
trivial-os.elf:     file format elf32-littlearm


Disassembly of section .text:

00008000 <__code_start__>:
    8000:	e3a00013 	mov	r0, #19
    8004:	e3800080 	orr	r0, r0, #128	; 0x80
    8008:	e129f000 	msr	CPSR_fc, r0
    800c:	e3a01000 	mov	r1, #0
    8010:	ee071f95 	mcr	15, 0, r1, cr7, cr5, {4}
    8014:	e3a0d302 	mov	sp, #134217728	; 0x8000000
    8018:	e3a0b000 	mov	fp, #0
    801c:	eb000427 	bl	90c0 <_cstart>
    8020:	eb000441 	bl	912c <rpi_reboot>

00008024 <PUT32>:
    8024:	e5801000 	str	r1, [r0]
    8028:	e12fff1e 	bx	lr

0000802c <GET32>:
    802c:	e5900000 	ldr	r0, [r0]
    8030:	e12fff1e 	bx	lr

00008034 <vector_base_set>:
    8034:	e52de004 	push	{lr}		; (str lr, [sp, #-4]!)
    8038:	e24dd00c 	sub	sp, sp, #12
    803c:	e3500000 	cmp	r0, #0
    8040:	0a000009 	beq	806c <vector_base_set+0x38>
    8044:	e310001f 	tst	r0, #31
    8048:	1a00000f 	bne	808c <vector_base_set+0x58>
    804c:	ee0c0f10 	mcr	15, 0, r0, cr12, cr0, {0}
    8050:	e3a03000 	mov	r3, #0
    8054:	ee073f95 	mcr	15, 0, r3, cr7, cr5, {4}
    8058:	ee1c3f10 	mrc	15, 0, r3, cr12, cr0, {0}
    805c:	e1500003 	cmp	r0, r3
    8060:	1a000010 	bne	80a8 <vector_base_set+0x74>
    8064:	e28dd00c 	add	sp, sp, #12
    8068:	e49df004 	pop	{pc}		; (ldr pc, [sp], #4)
    806c:	e59f3054 	ldr	r3, [pc, #84]	; 80c8 <vector_base_set+0x94>
    8070:	e58d3000 	str	r3, [sp]
    8074:	e3a03018 	mov	r3, #24
    8078:	e59f204c 	ldr	r2, [pc, #76]	; 80cc <vector_base_set+0x98>
    807c:	e59f104c 	ldr	r1, [pc, #76]	; 80d0 <vector_base_set+0x9c>
    8080:	e59f004c 	ldr	r0, [pc, #76]	; 80d4 <vector_base_set+0xa0>
    8084:	eb000358 	bl	8dec <printk>
    8088:	eb00043b 	bl	917c <clean_reboot>
    808c:	e58d0000 	str	r0, [sp]
    8090:	e3a0301c 	mov	r3, #28
    8094:	e59f2030 	ldr	r2, [pc, #48]	; 80cc <vector_base_set+0x98>
    8098:	e59f1030 	ldr	r1, [pc, #48]	; 80d0 <vector_base_set+0x9c>
    809c:	e59f0034 	ldr	r0, [pc, #52]	; 80d8 <vector_base_set+0xa4>
    80a0:	eb000351 	bl	8dec <printk>
    80a4:	eb000434 	bl	917c <clean_reboot>
    80a8:	e59f302c 	ldr	r3, [pc, #44]	; 80dc <vector_base_set+0xa8>
    80ac:	e58d3000 	str	r3, [sp]
    80b0:	e3a0301e 	mov	r3, #30
    80b4:	e59f2010 	ldr	r2, [pc, #16]	; 80cc <vector_base_set+0x98>
    80b8:	e59f1010 	ldr	r1, [pc, #16]	; 80d0 <vector_base_set+0x9c>
    80bc:	e59f0010 	ldr	r0, [pc, #16]	; 80d4 <vector_base_set+0xa0>
    80c0:	eb000349 	bl	8dec <printk>
    80c4:	eb00042c 	bl	917c <clean_reboot>
    80c8:	00009d2c 	andeq	r9, r0, ip, lsr #26
    80cc:	00009e9c 	muleq	r0, ip, lr
    80d0:	00009d08 	andeq	r9, r0, r8, lsl #26
    80d4:	00009d18 	andeq	r9, r0, r8, lsl sp
    80d8:	00009d38 	andeq	r9, r0, r8, lsr sp
    80dc:	00009d80 	andeq	r9, r0, r0, lsl #27

000080e0 <do_syscall>:
    80e0:	e92d4030 	push	{r4, r5, lr}
    80e4:	e24dd00c 	sub	sp, sp, #12
    80e8:	e1a04000 	mov	r4, r0
    80ec:	e1a05001 	mov	r5, r1
    80f0:	e59f10e4 	ldr	r1, [pc, #228]	; 81dc <do_syscall+0xfc>
    80f4:	e5911000 	ldr	r1, [r1]
    80f8:	e3510000 	cmp	r1, #0
    80fc:	1a00000d 	bne	8138 <do_syscall+0x58>
    8100:	e3540002 	cmp	r4, #2
    8104:	0a00001f 	beq	8188 <do_syscall+0xa8>
    8108:	e3540003 	cmp	r4, #3
    810c:	1a000010 	bne	8154 <do_syscall+0x74>
    8110:	e59f30c4 	ldr	r3, [pc, #196]	; 81dc <do_syscall+0xfc>
    8114:	e5933000 	ldr	r3, [r3]
    8118:	e3530000 	cmp	r3, #0
    811c:	0a000015 	beq	8178 <do_syscall+0x98>
    8120:	e1a01005 	mov	r1, r5
    8124:	e59f00b4 	ldr	r0, [pc, #180]	; 81e0 <do_syscall+0x100>
    8128:	eb00032f 	bl	8dec <printk>
    812c:	e3a00000 	mov	r0, #0
    8130:	e28dd00c 	add	sp, sp, #12
    8134:	e8bd8030 	pop	{r4, r5, pc}
    8138:	e58d3000 	str	r3, [sp]
    813c:	e1a03002 	mov	r3, r2
    8140:	e1a02005 	mov	r2, r5
    8144:	e1a01000 	mov	r1, r0
    8148:	e59f0094 	ldr	r0, [pc, #148]	; 81e4 <do_syscall+0x104>
    814c:	eb000326 	bl	8dec <printk>
    8150:	eaffffea 	b	8100 <do_syscall+0x20>
    8154:	e3540001 	cmp	r4, #1
    8158:	0a000016 	beq	81b8 <do_syscall+0xd8>
    815c:	e58d4000 	str	r4, [sp]
    8160:	e3a0303d 	mov	r3, #61	; 0x3d
    8164:	e59f207c 	ldr	r2, [pc, #124]	; 81e8 <do_syscall+0x108>
    8168:	e59f107c 	ldr	r1, [pc, #124]	; 81ec <do_syscall+0x10c>
    816c:	e59f007c 	ldr	r0, [pc, #124]	; 81f0 <do_syscall+0x110>
    8170:	eb00031d 	bl	8dec <printk>
    8174:	eb000400 	bl	917c <clean_reboot>
    8178:	e1a01005 	mov	r1, r5
    817c:	e59f0070 	ldr	r0, [pc, #112]	; 81f4 <do_syscall+0x114>
    8180:	eb000319 	bl	8dec <printk>
    8184:	eaffffe8 	b	812c <do_syscall+0x4c>
    8188:	e59f304c 	ldr	r3, [pc, #76]	; 81dc <do_syscall+0xfc>
    818c:	e5933000 	ldr	r3, [r3]
    8190:	e3530000 	cmp	r3, #0
    8194:	0a000003 	beq	81a8 <do_syscall+0xc8>
    8198:	e1a01005 	mov	r1, r5
    819c:	e59f0054 	ldr	r0, [pc, #84]	; 81f8 <do_syscall+0x118>
    81a0:	eb000311 	bl	8dec <printk>
    81a4:	eaffffe0 	b	812c <do_syscall+0x4c>
    81a8:	e1a01005 	mov	r1, r5
    81ac:	e59f0048 	ldr	r0, [pc, #72]	; 81fc <do_syscall+0x11c>
    81b0:	eb00030d 	bl	8dec <printk>
    81b4:	eaffffdc 	b	812c <do_syscall+0x4c>
    81b8:	e1a02005 	mov	r2, r5
    81bc:	e59f303c 	ldr	r3, [pc, #60]	; 8200 <do_syscall+0x120>
    81c0:	e5931000 	ldr	r1, [r3]
    81c4:	e59f0038 	ldr	r0, [pc, #56]	; 8204 <do_syscall+0x124>
    81c8:	eb000307 	bl	8dec <printk>
    81cc:	e3a01000 	mov	r1, #0
    81d0:	e59f0030 	ldr	r0, [pc, #48]	; 8208 <do_syscall+0x128>
    81d4:	eb000304 	bl	8dec <printk>
    81d8:	eb0003e7 	bl	917c <clean_reboot>
    81dc:	0000a72c 	andeq	sl, r0, ip, lsr #14
    81e0:	00009dc4 	andeq	r9, r0, r4, asr #27
    81e4:	00009da4 	andeq	r9, r0, r4, lsr #27
    81e8:	00009eac 	andeq	r9, r0, ip, lsr #29
    81ec:	00009e14 	andeq	r9, r0, r4, lsl lr
    81f0:	00009e24 	andeq	r9, r0, r4, lsr #28
    81f4:	00009dd0 	ldrdeq	r9, [r0], -r0
    81f8:	00009dd4 	ldrdeq	r9, [r0], -r4
    81fc:	00009de0 	andeq	r9, r0, r0, ror #27
    8200:	0000a69c 	muleq	r0, ip, r6
    8204:	00009de4 	andeq	r9, r0, r4, ror #27
    8208:	00009e08 	andeq	r9, r0, r8, lsl #28

0000820c <notmain>:
    820c:	e92d4010 	push	{r4, lr}
    8210:	e24dd008 	sub	sp, sp, #8
    8214:	e1a0100d 	mov	r1, sp
    8218:	e59f003c 	ldr	r0, [pc, #60]	; 825c <notmain+0x50>
    821c:	eb0002f2 	bl	8dec <printk>
    8220:	e1a0000d 	mov	r0, sp
    8224:	eb0000a6 	bl	84c4 <program_get>
    8228:	e59d2000 	ldr	r2, [sp]
    822c:	e59f302c 	ldr	r3, [pc, #44]	; 8260 <notmain+0x54>
    8230:	e5832000 	str	r2, [r3]
    8234:	e59d4004 	ldr	r4, [sp, #4]
    8238:	e59f0024 	ldr	r0, [pc, #36]	; 8264 <notmain+0x58>
    823c:	ebffff7c 	bl	8034 <vector_base_set>
    8240:	e12fff34 	blx	r4
    8244:	e3a03057 	mov	r3, #87	; 0x57
    8248:	e59f2018 	ldr	r2, [pc, #24]	; 8268 <notmain+0x5c>
    824c:	e59f1018 	ldr	r1, [pc, #24]	; 826c <notmain+0x60>
    8250:	e59f0018 	ldr	r0, [pc, #24]	; 8270 <notmain+0x64>
    8254:	eb0002e4 	bl	8dec <printk>
    8258:	eb0003c7 	bl	917c <clean_reboot>
    825c:	00009e50 	andeq	r9, r0, r0, asr lr
    8260:	0000a69c 	muleq	r0, ip, r6
    8264:	00008320 	andeq	r8, r0, r0, lsr #6
    8268:	00009eb8 			; <UNDEFINED> instruction: 0x00009eb8
    826c:	00009e14 	andeq	r9, r0, r4, lsl lr
    8270:	00009e74 	andeq	r9, r0, r4, ror lr
	...

00008280 <reset>:
    8280:	e24ee004 	sub	lr, lr, #4
    8284:	e3a0d409 	mov	sp, #150994944	; 0x9000000
    8288:	e92d5fff 	push	{r0, r1, r2, r3, r4, r5, r6, r7, r8, r9, sl, fp, ip, lr}
    828c:	e1a0000e 	mov	r0, lr
    8290:	eb00036c 	bl	9048 <reset_vector>
    8294:	e8bd5fff 	pop	{r0, r1, r2, r3, r4, r5, r6, r7, r8, r9, sl, fp, ip, lr}
    8298:	e1b0f00e 	movs	pc, lr

0000829c <undef>:
    829c:	e24ee004 	sub	lr, lr, #4
    82a0:	e3a0d409 	mov	sp, #150994944	; 0x9000000
    82a4:	e92d5fff 	push	{r0, r1, r2, r3, r4, r5, r6, r7, r8, r9, sl, fp, ip, lr}
    82a8:	e1a0000e 	mov	r0, lr
    82ac:	eb00032f 	bl	8f70 <undefined_instruction_vector>
    82b0:	e8bd5fff 	pop	{r0, r1, r2, r3, r4, r5, r6, r7, r8, r9, sl, fp, ip, lr}
    82b4:	e1b0f00e 	movs	pc, lr

000082b8 <prefetch_abort>:
    82b8:	e24ee004 	sub	lr, lr, #4
    82bc:	e3a0d409 	mov	sp, #150994944	; 0x9000000
    82c0:	e92d5fff 	push	{r0, r1, r2, r3, r4, r5, r6, r7, r8, r9, sl, fp, ip, lr}
    82c4:	e1a0000e 	mov	r0, lr
    82c8:	eb00026c 	bl	8c80 <prefetch_abort_vector>
    82cc:	e8bd5fff 	pop	{r0, r1, r2, r3, r4, r5, r6, r7, r8, r9, sl, fp, ip, lr}
    82d0:	e1b0f00e 	movs	pc, lr

000082d4 <data_abort>:
    82d4:	e24ee008 	sub	lr, lr, #8
    82d8:	e3a0d409 	mov	sp, #150994944	; 0x9000000
    82dc:	e92d5fff 	push	{r0, r1, r2, r3, r4, r5, r6, r7, r8, r9, sl, fp, ip, lr}
    82e0:	e1a0000e 	mov	r0, lr
    82e4:	eb000366 	bl	9084 <data_abort_vector>
    82e8:	e8bd5fff 	pop	{r0, r1, r2, r3, r4, r5, r6, r7, r8, r9, sl, fp, ip, lr}
    82ec:	e1b0f00e 	movs	pc, lr

000082f0 <interrupt>:
    82f0:	e24ee004 	sub	lr, lr, #4
    82f4:	e3a0d409 	mov	sp, #150994944	; 0x9000000
    82f8:	e92d5fff 	push	{r0, r1, r2, r3, r4, r5, r6, r7, r8, r9, sl, fp, ip, lr}
    82fc:	e1a0000e 	mov	r0, lr
    8300:	eb000341 	bl	900c <int_vector>
    8304:	e8bd5fff 	pop	{r0, r1, r2, r3, r4, r5, r6, r7, r8, r9, sl, fp, ip, lr}
    8308:	e1b0f00e 	movs	pc, lr

0000830c <swi_handler>:
    830c:	e92d5ffe 	push	{r1, r2, r3, r4, r5, r6, r7, r8, r9, sl, fp, ip, lr}
    8310:	ebffff72 	bl	80e0 <do_syscall>
    8314:	e8bd5ffe 	pop	{r1, r2, r3, r4, r5, r6, r7, r8, r9, sl, fp, ip, lr}
    8318:	e1b0f00e 	movs	pc, lr
    831c:	e320f000 	nop	{0}

00008320 <part1_swi_vec>:
    8320:	eaffffd6 	b	8280 <reset>
    8324:	eaffffdc 	b	829c <undef>
    8328:	eafffff7 	b	830c <swi_handler>
    832c:	eaffffe1 	b	82b8 <prefetch_abort>
    8330:	eaffffe7 	b	82d4 <data_abort>
    8334:	eaffffd1 	b	8280 <reset>
    8338:	eaffffec 	b	82f0 <interrupt>

0000833c <prefetch_handler_single_step>:
    833c:	e24ee004 	sub	lr, lr, #4
    8340:	e3a0d409 	mov	sp, #150994944	; 0x9000000
    8344:	e92d5fff 	push	{r0, r1, r2, r3, r4, r5, r6, r7, r8, r9, sl, fp, ip, lr}
    8348:	e1a0000e 	mov	r0, lr
    834c:	eb000088 	bl	8574 <prefetch_abort_single_step>
    8350:	e8bd5fff 	pop	{r0, r1, r2, r3, r4, r5, r6, r7, r8, r9, sl, fp, ip, lr}
    8354:	e1b0f00e 	movs	pc, lr
    8358:	e320f000 	nop	{0}
    835c:	e320f000 	nop	{0}

00008360 <part2_single_step_vec>:
    8360:	eaffffc6 	b	8280 <reset>
    8364:	eaffffcc 	b	829c <undef>
    8368:	eaffffe7 	b	830c <swi_handler>
    836c:	eafffff2 	b	833c <prefetch_handler_single_step>
    8370:	eaffffd7 	b	82d4 <data_abort>
    8374:	eaffffc1 	b	8280 <reset>
    8378:	eaffffdc 	b	82f0 <interrupt>

0000837c <prefetch_handler_equiv_pc>:
    837c:	e3a0d409 	mov	sp, #150994944	; 0x9000000
    8380:	e1a0000f 	mov	r0, pc
    8384:	ea000314 	b	8fdc <asm_not_implemented_helper>
    8388:	e320f000 	nop	{0}
    838c:	e320f000 	nop	{0}
    8390:	e320f000 	nop	{0}
    8394:	e320f000 	nop	{0}
    8398:	e320f000 	nop	{0}
    839c:	e320f000 	nop	{0}

000083a0 <part3_equiv_pc_vec>:
    83a0:	eaffffb6 	b	8280 <reset>
    83a4:	eaffffbc 	b	829c <undef>
    83a8:	eaffffd7 	b	830c <swi_handler>
    83ac:	eafffff2 	b	837c <prefetch_handler_equiv_pc>
    83b0:	eaffffc7 	b	82d4 <data_abort>
    83b4:	eaffffb1 	b	8280 <reset>
    83b8:	eaffffcc 	b	82f0 <interrupt>

000083bc <prefetch_handler_equiv>:
    83bc:	e3a0d409 	mov	sp, #150994944	; 0x9000000
    83c0:	e1a0000f 	mov	r0, pc
    83c4:	ea000304 	b	8fdc <asm_not_implemented_helper>
    83c8:	e320f000 	nop	{0}
    83cc:	e320f000 	nop	{0}
    83d0:	e320f000 	nop	{0}
    83d4:	e320f000 	nop	{0}
    83d8:	e320f000 	nop	{0}
    83dc:	e320f000 	nop	{0}

000083e0 <part4_equiv_vec>:
    83e0:	eaffffa6 	b	8280 <reset>
    83e4:	eaffffac 	b	829c <undef>
    83e8:	eaffffc7 	b	830c <swi_handler>
    83ec:	eafffff2 	b	83bc <prefetch_handler_equiv>
    83f0:	eaffffb7 	b	82d4 <data_abort>
    83f4:	eaffffa1 	b	8280 <reset>
    83f8:	eaffffbc 	b	82f0 <interrupt>

000083fc <user_mode_run_fn>:
    83fc:	e3a0d409 	mov	sp, #150994944	; 0x9000000
    8400:	e1a0000f 	mov	r0, pc
    8404:	ea0002f4 	b	8fdc <asm_not_implemented_helper>

00008408 <custom_loader>:
    8408:	e92d4070 	push	{r4, r5, r6, lr}
    840c:	e24dd008 	sub	sp, sp, #8
    8410:	e59f308c 	ldr	r3, [pc, #140]	; 84a4 <custom_loader+0x9c>
    8414:	e5932008 	ldr	r2, [r3, #8]
    8418:	e5934010 	ldr	r4, [r3, #16]
    841c:	e3540501 	cmp	r4, #4194304	; 0x400000
    8420:	1a00000f 	bne	8464 <custom_loader+0x5c>
    8424:	e59f107c 	ldr	r1, [pc, #124]	; 84a8 <custom_loader+0xa0>
    8428:	e0826001 	add	r6, r2, r1
    842c:	e1a00004 	mov	r0, r4
    8430:	eb000293 	bl	8e84 <memcpy>
    8434:	e1a00006 	mov	r0, r6
    8438:	eb000281 	bl	8e44 <strlen>
    843c:	e350007f 	cmp	r0, #127	; 0x7f
    8440:	8a00000f 	bhi	8484 <custom_loader+0x7c>
    8444:	e59f5060 	ldr	r5, [pc, #96]	; 84ac <custom_loader+0xa4>
    8448:	e1a01006 	mov	r1, r6
    844c:	e1a00005 	mov	r0, r5
    8450:	eb000283 	bl	8e64 <strcpy>
    8454:	e2844004 	add	r4, r4, #4
    8458:	e5854080 	str	r4, [r5, #128]	; 0x80
    845c:	e28dd008 	add	sp, sp, #8
    8460:	e8bd8070 	pop	{r4, r5, r6, pc}
    8464:	e59f3044 	ldr	r3, [pc, #68]	; 84b0 <custom_loader+0xa8>
    8468:	e58d3000 	str	r3, [sp]
    846c:	e3a03021 	mov	r3, #33	; 0x21
    8470:	e59f203c 	ldr	r2, [pc, #60]	; 84b4 <custom_loader+0xac>
    8474:	e59f103c 	ldr	r1, [pc, #60]	; 84b8 <custom_loader+0xb0>
    8478:	e59f003c 	ldr	r0, [pc, #60]	; 84bc <custom_loader+0xb4>
    847c:	eb00025a 	bl	8dec <printk>
    8480:	eb00033d 	bl	917c <clean_reboot>
    8484:	e59f3034 	ldr	r3, [pc, #52]	; 84c0 <custom_loader+0xb8>
    8488:	e58d3000 	str	r3, [sp]
    848c:	e3a0302b 	mov	r3, #43	; 0x2b
    8490:	e59f201c 	ldr	r2, [pc, #28]	; 84b4 <custom_loader+0xac>
    8494:	e59f101c 	ldr	r1, [pc, #28]	; 84b8 <custom_loader+0xb0>
    8498:	e59f001c 	ldr	r0, [pc, #28]	; 84bc <custom_loader+0xb4>
    849c:	eb000252 	bl	8dec <printk>
    84a0:	eb000335 	bl	917c <clean_reboot>
    84a4:	0000a72c 	andeq	sl, r0, ip, lsr #14
    84a8:	0000a73c 	andeq	sl, r0, ip, lsr r7
    84ac:	0000a6a0 	andeq	sl, r0, r0, lsr #13
    84b0:	00009ed0 	ldrdeq	r9, [r0], -r0
    84b4:	00009f38 	andeq	r9, r0, r8, lsr pc
    84b8:	00009ec0 	andeq	r9, r0, r0, asr #29
    84bc:	00009d18 	andeq	r9, r0, r8, lsl sp
    84c0:	00009ee4 	andeq	r9, r0, r4, ror #29

000084c4 <program_get>:
    84c4:	e92d4030 	push	{r4, r5, lr}
    84c8:	e24dd00c 	sub	sp, sp, #12
    84cc:	e59f3084 	ldr	r3, [pc, #132]	; 8558 <program_get+0x94>
    84d0:	e5d33000 	ldrb	r3, [r3]
    84d4:	e3530000 	cmp	r3, #0
    84d8:	0a00000e 	beq	8518 <program_get+0x54>
    84dc:	e1a04000 	mov	r4, r0
    84e0:	e59f3070 	ldr	r3, [pc, #112]	; 8558 <program_get+0x94>
    84e4:	e5931080 	ldr	r1, [r3, #128]	; 0x80
    84e8:	e3510000 	cmp	r1, #0
    84ec:	0a000011 	beq	8538 <program_get+0x74>
    84f0:	e59f5060 	ldr	r5, [pc, #96]	; 8558 <program_get+0x94>
    84f4:	e1a02005 	mov	r2, r5
    84f8:	e59f005c 	ldr	r0, [pc, #92]	; 855c <program_get+0x98>
    84fc:	eb00023a 	bl	8dec <printk>
    8500:	e5953080 	ldr	r3, [r5, #128]	; 0x80
    8504:	e5845000 	str	r5, [r4]
    8508:	e5843004 	str	r3, [r4, #4]
    850c:	e1a00004 	mov	r0, r4
    8510:	e28dd00c 	add	sp, sp, #12
    8514:	e8bd8030 	pop	{r4, r5, pc}
    8518:	e59f3040 	ldr	r3, [pc, #64]	; 8560 <program_get+0x9c>
    851c:	e58d3000 	str	r3, [sp]
    8520:	e3a03037 	mov	r3, #55	; 0x37
    8524:	e59f2038 	ldr	r2, [pc, #56]	; 8564 <program_get+0xa0>
    8528:	e59f1038 	ldr	r1, [pc, #56]	; 8568 <program_get+0xa4>
    852c:	e59f0038 	ldr	r0, [pc, #56]	; 856c <program_get+0xa8>
    8530:	eb00022d 	bl	8dec <printk>
    8534:	eb000310 	bl	917c <clean_reboot>
    8538:	e59f3030 	ldr	r3, [pc, #48]	; 8570 <program_get+0xac>
    853c:	e58d3000 	str	r3, [sp]
    8540:	e3a03038 	mov	r3, #56	; 0x38
    8544:	e59f2018 	ldr	r2, [pc, #24]	; 8564 <program_get+0xa0>
    8548:	e59f1018 	ldr	r1, [pc, #24]	; 8568 <program_get+0xa4>
    854c:	e59f0018 	ldr	r0, [pc, #24]	; 856c <program_get+0xa8>
    8550:	eb000225 	bl	8dec <printk>
    8554:	eb000308 	bl	917c <clean_reboot>
    8558:	0000a6a0 	andeq	sl, r0, r0, lsr #13
    855c:	00009f18 	andeq	r9, r0, r8, lsl pc
    8560:	00009f00 	andeq	r9, r0, r0, lsl #30
    8564:	00009f48 	andeq	r9, r0, r8, asr #30
    8568:	00009ec0 	andeq	r9, r0, r0, asr #29
    856c:	00009d18 	andeq	r9, r0, r8, lsl sp
    8570:	00009f10 	andeq	r9, r0, r0, lsl pc

00008574 <prefetch_abort_single_step>:
    8574:	e92d4010 	push	{r4, lr}
    8578:	e1a04000 	mov	r4, r0
    857c:	e1a01000 	mov	r1, r0
    8580:	e59f001c 	ldr	r0, [pc, #28]	; 85a4 <prefetch_abort_single_step+0x30>
    8584:	eb000218 	bl	8dec <printk>
    8588:	e1a00004 	mov	r0, r4
    858c:	eb00020f 	bl	8dd0 <brkpt_mismatch_set>
    8590:	e59f2010 	ldr	r2, [pc, #16]	; 85a8 <prefetch_abort_single_step+0x34>
    8594:	e5923000 	ldr	r3, [r2]
    8598:	e2833001 	add	r3, r3, #1
    859c:	e5823000 	str	r3, [r2]
    85a0:	e8bd8010 	pop	{r4, pc}
    85a4:	00009f54 	andeq	r9, r0, r4, asr pc
    85a8:	0000a730 	andeq	sl, r0, r0, lsr r7

000085ac <single_step_run_fn>:
    85ac:	e92d4070 	push	{r4, r5, r6, lr}
    85b0:	e1a04000 	mov	r4, r0
    85b4:	e1a05001 	mov	r5, r1
    85b8:	eb0001ff 	bl	8dbc <brkpt_mismatch_start>
    85bc:	e1a01005 	mov	r1, r5
    85c0:	e1a00004 	mov	r0, r4
    85c4:	ebffff8c 	bl	83fc <user_mode_run_fn>
    85c8:	e1a04000 	mov	r4, r0
    85cc:	eb000202 	bl	8ddc <brkpt_mismatch_stop>
    85d0:	e1a00004 	mov	r0, r4
    85d4:	e8bd8070 	pop	{r4, r5, r6, pc}

000085d8 <single_step_cnt>:
    85d8:	e59f3004 	ldr	r3, [pc, #4]	; 85e4 <single_step_cnt+0xc>
    85dc:	e5930000 	ldr	r0, [r3]
    85e0:	e12fff1e 	bx	lr
    85e4:	0000a730 	andeq	sl, r0, r0, lsr r7

000085e8 <prefetch_abort_equiv_pc>:
    85e8:	e92d4010 	push	{r4, lr}
    85ec:	e3a0301d 	mov	r3, #29
    85f0:	e59f200c 	ldr	r2, [pc, #12]	; 8604 <prefetch_abort_equiv_pc+0x1c>
    85f4:	e59f100c 	ldr	r1, [pc, #12]	; 8608 <prefetch_abort_equiv_pc+0x20>
    85f8:	e59f000c 	ldr	r0, [pc, #12]	; 860c <prefetch_abort_equiv_pc+0x24>
    85fc:	eb0001fa 	bl	8dec <printk>
    8600:	eb0002dd 	bl	917c <clean_reboot>
    8604:	0000a04c 	andeq	sl, r0, ip, asr #32
    8608:	00009f78 	andeq	r9, r0, r8, ror pc
    860c:	00009f80 	andeq	r9, r0, r0, lsl #31

00008610 <prefetch_abort_equiv>:
    8610:	e92d4010 	push	{r4, lr}
    8614:	e3a03027 	mov	r3, #39	; 0x27
    8618:	e59f200c 	ldr	r2, [pc, #12]	; 862c <prefetch_abort_equiv+0x1c>
    861c:	e59f100c 	ldr	r1, [pc, #12]	; 8630 <prefetch_abort_equiv+0x20>
    8620:	e59f000c 	ldr	r0, [pc, #12]	; 8634 <prefetch_abort_equiv+0x24>
    8624:	eb0001f0 	bl	8dec <printk>
    8628:	eb0002d3 	bl	917c <clean_reboot>
    862c:	0000a064 	andeq	sl, r0, r4, rrx
    8630:	00009f78 	andeq	r9, r0, r8, ror pc
    8634:	00009f80 	andeq	r9, r0, r0, lsl #31

00008638 <equiv_run_fn>:
    8638:	e92d40f0 	push	{r4, r5, r6, r7, lr}
    863c:	e24dd00c 	sub	sp, sp, #12
    8640:	e1a05000 	mov	r5, r0
    8644:	e1a06001 	mov	r6, r1
    8648:	e1a04002 	mov	r4, r2
    864c:	e59f70ac 	ldr	r7, [pc, #172]	; 8700 <equiv_run_fn+0xc8>
    8650:	e3a01000 	mov	r1, #0
    8654:	e1a00007 	mov	r0, r7
    8658:	e4801004 	str	r1, [r0], #4
    865c:	e3a02010 	mov	r2, #16
    8660:	eb00023b 	bl	8f54 <memset>
    8664:	e5874010 	str	r4, [r7, #16]
    8668:	e10f3000 	mrs	r3, CPSR
    866c:	e203301f 	and	r3, r3, #31
    8670:	e3530012 	cmp	r3, #18
    8674:	13530010 	cmpne	r3, #16
    8678:	0a000005 	beq	8694 <equiv_run_fn+0x5c>
    867c:	e3530017 	cmp	r3, #23
    8680:	13530013 	cmpne	r3, #19
    8684:	0a000002 	beq	8694 <equiv_run_fn+0x5c>
    8688:	e353001f 	cmp	r3, #31
    868c:	1353001b 	cmpne	r3, #27
    8690:	1a000009 	bne	86bc <equiv_run_fn+0x84>
    8694:	e3530013 	cmp	r3, #19
    8698:	0a00000e 	beq	86d8 <equiv_run_fn+0xa0>
    869c:	e59f3060 	ldr	r3, [pc, #96]	; 8704 <equiv_run_fn+0xcc>
    86a0:	e58d3000 	str	r3, [sp]
    86a4:	e3a03030 	mov	r3, #48	; 0x30
    86a8:	e59f2058 	ldr	r2, [pc, #88]	; 8708 <equiv_run_fn+0xd0>
    86ac:	e59f1058 	ldr	r1, [pc, #88]	; 870c <equiv_run_fn+0xd4>
    86b0:	e59f0058 	ldr	r0, [pc, #88]	; 8710 <equiv_run_fn+0xd8>
    86b4:	eb0001cc 	bl	8dec <printk>
    86b8:	eb0002af 	bl	917c <clean_reboot>
    86bc:	e58d3000 	str	r3, [sp]
    86c0:	e3a03010 	mov	r3, #16
    86c4:	e59f2048 	ldr	r2, [pc, #72]	; 8714 <equiv_run_fn+0xdc>
    86c8:	e59f1048 	ldr	r1, [pc, #72]	; 8718 <equiv_run_fn+0xe0>
    86cc:	e59f0048 	ldr	r0, [pc, #72]	; 871c <equiv_run_fn+0xe4>
    86d0:	eb0001c5 	bl	8dec <printk>
    86d4:	eb0002a8 	bl	917c <clean_reboot>
    86d8:	eb0001b7 	bl	8dbc <brkpt_mismatch_start>
    86dc:	e1a01006 	mov	r1, r6
    86e0:	e1a00005 	mov	r0, r5
    86e4:	ebffff44 	bl	83fc <user_mode_run_fn>
    86e8:	e3a03035 	mov	r3, #53	; 0x35
    86ec:	e59f2014 	ldr	r2, [pc, #20]	; 8708 <equiv_run_fn+0xd0>
    86f0:	e59f1014 	ldr	r1, [pc, #20]	; 870c <equiv_run_fn+0xd4>
    86f4:	e59f0024 	ldr	r0, [pc, #36]	; 8720 <equiv_run_fn+0xe8>
    86f8:	eb0001bb 	bl	8dec <printk>
    86fc:	eb00029e 	bl	917c <clean_reboot>
    8700:	0000a734 	andeq	sl, r0, r4, lsr r7
    8704:	00009fdc 	ldrdeq	r9, [r0], -ip
    8708:	0000a088 	andeq	sl, r0, r8, lsl #1
    870c:	00009f78 	andeq	r9, r0, r8, ror pc
    8710:	00009d18 	andeq	r9, r0, r8, lsl sp
    8714:	0000a07c 	andeq	sl, r0, ip, ror r0
    8718:	00009fac 	andeq	r9, r0, ip, lsr #31
    871c:	00009fb8 			; <UNDEFINED> instruction: 0x00009fb8
    8720:	00009e74 	andeq	r9, r0, r4, ror lr

00008724 <equiv_print>:
    8724:	e92d4010 	push	{r4, lr}
    8728:	e24dd010 	sub	sp, sp, #16
    872c:	e1a0c000 	mov	ip, r0
    8730:	e59f3084 	ldr	r3, [pc, #132]	; 87bc <equiv_print+0x98>
    8734:	e893000f 	ldm	r3, {r0, r1, r2, r3}
    8738:	e28de010 	add	lr, sp, #16
    873c:	e90e000f 	stmdb	lr, {r0, r1, r2, r3}
    8740:	e3500000 	cmp	r0, #0
    8744:	1a000001 	bne	8750 <equiv_print+0x2c>
    8748:	e28dd010 	add	sp, sp, #16
    874c:	e8bd8010 	pop	{r4, pc}
    8750:	e1a04000 	mov	r4, r0
    8754:	e1a0100c 	mov	r1, ip
    8758:	e59f0060 	ldr	r0, [pc, #96]	; 87c0 <equiv_print+0x9c>
    875c:	eb0001a2 	bl	8dec <printk>
    8760:	e59f005c 	ldr	r0, [pc, #92]	; 87c4 <equiv_print+0xa0>
    8764:	eb0001a0 	bl	8dec <printk>
    8768:	e1a01004 	mov	r1, r4
    876c:	e59f0054 	ldr	r0, [pc, #84]	; 87c8 <equiv_print+0xa4>
    8770:	eb00019d 	bl	8dec <printk>
    8774:	e59d4008 	ldr	r4, [sp, #8]
    8778:	e3540000 	cmp	r4, #0
    877c:	1a000008 	bne	87a4 <equiv_print+0x80>
    8780:	e59d4004 	ldr	r4, [sp, #4]
    8784:	e3540000 	cmp	r4, #0
    8788:	0affffee 	beq	8748 <equiv_print+0x24>
    878c:	e59f0030 	ldr	r0, [pc, #48]	; 87c4 <equiv_print+0xa0>
    8790:	eb000195 	bl	8dec <printk>
    8794:	e1a01004 	mov	r1, r4
    8798:	e59f002c 	ldr	r0, [pc, #44]	; 87cc <equiv_print+0xa8>
    879c:	eb000192 	bl	8dec <printk>
    87a0:	eaffffe8 	b	8748 <equiv_print+0x24>
    87a4:	e59f0018 	ldr	r0, [pc, #24]	; 87c4 <equiv_print+0xa0>
    87a8:	eb00018f 	bl	8dec <printk>
    87ac:	e1a01004 	mov	r1, r4
    87b0:	e59f0018 	ldr	r0, [pc, #24]	; 87d0 <equiv_print+0xac>
    87b4:	eb00018c 	bl	8dec <printk>
    87b8:	eaffffe2 	b	8748 <equiv_print+0x24>
    87bc:	0000a738 	andeq	sl, r0, r8, lsr r7
    87c0:	00009fec 	andeq	r9, r0, ip, ror #31
    87c4:	00009ff0 	strdeq	r9, [r0], -r0
    87c8:	00009ff8 	strdeq	r9, [r0], -r8
    87cc:	0000a034 	andeq	sl, r0, r4, lsr r0
    87d0:	0000a01c 	andeq	sl, r0, ip, lsl r0

000087d4 <brkpt_set0_helper>:
    87d4:	e52de004 	push	{lr}		; (str lr, [sp, #-4]!)
    87d8:	e24dd00c 	sub	sp, sp, #12
    87dc:	ee000e90 	mcr	14, 0, r0, cr0, cr0, {4}
    87e0:	e3a03000 	mov	r3, #0
    87e4:	ee073f95 	mcr	15, 0, r3, cr7, cr5, {4}
    87e8:	ee103e90 	mrc	14, 0, r3, cr0, cr0, {4}
    87ec:	e1500003 	cmp	r0, r3
    87f0:	1a00000a 	bne	8820 <brkpt_set0_helper+0x4c>
    87f4:	e3510000 	cmp	r1, #0
    87f8:	0a000010 	beq	8840 <brkpt_set0_helper+0x6c>
    87fc:	e59f3064 	ldr	r3, [pc, #100]	; 8868 <brkpt_set0_helper+0x94>
    8800:	ee003eb0 	mcr	14, 0, r3, cr0, cr0, {5}
    8804:	e3a02000 	mov	r2, #0
    8808:	ee072f95 	mcr	15, 0, r2, cr7, cr5, {4}
    880c:	ee102eb0 	mrc	14, 0, r2, cr0, cr0, {5}
    8810:	e1520003 	cmp	r2, r3
    8814:	1a00000b 	bne	8848 <brkpt_set0_helper+0x74>
    8818:	e28dd00c 	add	sp, sp, #12
    881c:	e49df004 	pop	{pc}		; (ldr pc, [sp], #4)
    8820:	e59f3044 	ldr	r3, [pc, #68]	; 886c <brkpt_set0_helper+0x98>
    8824:	e58d3000 	str	r3, [sp]
    8828:	e3a030a5 	mov	r3, #165	; 0xa5
    882c:	e59f203c 	ldr	r2, [pc, #60]	; 8870 <brkpt_set0_helper+0x9c>
    8830:	e59f103c 	ldr	r1, [pc, #60]	; 8874 <brkpt_set0_helper+0xa0>
    8834:	e59f003c 	ldr	r0, [pc, #60]	; 8878 <brkpt_set0_helper+0xa4>
    8838:	eb00016b 	bl	8dec <printk>
    883c:	eb00024e 	bl	917c <clean_reboot>
    8840:	e59f3034 	ldr	r3, [pc, #52]	; 887c <brkpt_set0_helper+0xa8>
    8844:	eaffffed 	b	8800 <brkpt_set0_helper+0x2c>
    8848:	e59f3030 	ldr	r3, [pc, #48]	; 8880 <brkpt_set0_helper+0xac>
    884c:	e58d3000 	str	r3, [sp]
    8850:	e3a030aa 	mov	r3, #170	; 0xaa
    8854:	e59f2014 	ldr	r2, [pc, #20]	; 8870 <brkpt_set0_helper+0x9c>
    8858:	e59f1014 	ldr	r1, [pc, #20]	; 8874 <brkpt_set0_helper+0xa0>
    885c:	e59f0014 	ldr	r0, [pc, #20]	; 8878 <brkpt_set0_helper+0xa4>
    8860:	eb000161 	bl	8dec <printk>
    8864:	eb000244 	bl	917c <clean_reboot>
    8868:	000001e7 	andeq	r0, r0, r7, ror #3
    886c:	0000a0ac 	andeq	sl, r0, ip, lsr #1
    8870:	0000a2b0 			; <UNDEFINED> instruction: 0x0000a2b0
    8874:	0000a098 	muleq	r0, r8, r0
    8878:	00009d18 	andeq	r9, r0, r8, lsl sp
    887c:	004001e7 	subeq	r0, r0, r7, ror #3
    8880:	0000a0c4 	andeq	sl, r0, r4, asr #1

00008884 <brkpt_disable0>:
    8884:	ee103eb0 	mrc	14, 0, r3, cr0, cr0, {5}
    8888:	e3c33001 	bic	r3, r3, #1
    888c:	ee003eb0 	mcr	14, 0, r3, cr0, cr0, {5}
    8890:	e3a03000 	mov	r3, #0
    8894:	ee073f95 	mcr	15, 0, r3, cr7, cr5, {4}
    8898:	ee073f95 	mcr	15, 0, r3, cr7, cr5, {4}
    889c:	ee103eb0 	mrc	14, 0, r3, cr0, cr0, {5}
    88a0:	e3130001 	tst	r3, #1
    88a4:	012fff1e 	bxeq	lr
    88a8:	e52de004 	push	{lr}		; (str lr, [sp, #-4]!)
    88ac:	e24dd00c 	sub	sp, sp, #12
    88b0:	e59f3018 	ldr	r3, [pc, #24]	; 88d0 <brkpt_disable0+0x4c>
    88b4:	e58d3000 	str	r3, [sp]
    88b8:	e3a03098 	mov	r3, #152	; 0x98
    88bc:	e59f2010 	ldr	r2, [pc, #16]	; 88d4 <brkpt_disable0+0x50>
    88c0:	e59f1010 	ldr	r1, [pc, #16]	; 88d8 <brkpt_disable0+0x54>
    88c4:	e59f0010 	ldr	r0, [pc, #16]	; 88dc <brkpt_disable0+0x58>
    88c8:	eb000147 	bl	8dec <printk>
    88cc:	eb00022a 	bl	917c <clean_reboot>
    88d0:	0000a0dc 	ldrdeq	sl, [r0], -ip
    88d4:	0000a2c4 	andeq	sl, r0, r4, asr #5
    88d8:	0000a098 	muleq	r0, r8, r0
    88dc:	00009d18 	andeq	r9, r0, r8, lsl sp

000088e0 <watchpt_set0>:
    88e0:	e52de004 	push	{lr}		; (str lr, [sp, #-4]!)
    88e4:	e24dd00c 	sub	sp, sp, #12
    88e8:	ee103ef0 	mrc	14, 0, r3, cr0, cr0, {7}
    88ec:	e3c33001 	bic	r3, r3, #1
    88f0:	ee003ef0 	mcr	14, 0, r3, cr0, cr0, {7}
    88f4:	e3a03000 	mov	r3, #0
    88f8:	ee073f95 	mcr	15, 0, r3, cr7, cr5, {4}
    88fc:	ee000ed0 	mcr	14, 0, r0, cr0, cr0, {6}
    8900:	ee073f95 	mcr	15, 0, r3, cr7, cr5, {4}
    8904:	ee103ed0 	mrc	14, 0, r3, cr0, cr0, {6}
    8908:	e1500003 	cmp	r0, r3
    890c:	1a00000c 	bne	8944 <watchpt_set0+0x64>
    8910:	e3a0307f 	mov	r3, #127	; 0x7f
    8914:	ee003ef0 	mcr	14, 0, r3, cr0, cr0, {7}
    8918:	e3a03000 	mov	r3, #0
    891c:	ee073f95 	mcr	15, 0, r3, cr7, cr5, {4}
    8920:	ee103ef0 	mrc	14, 0, r3, cr0, cr0, {7}
    8924:	e353007f 	cmp	r3, #127	; 0x7f
    8928:	1a00000d 	bne	8964 <watchpt_set0+0x84>
    892c:	e3a03000 	mov	r3, #0
    8930:	ee073f95 	mcr	15, 0, r3, cr7, cr5, {4}
    8934:	e59f3048 	ldr	r3, [pc, #72]	; 8984 <watchpt_set0+0xa4>
    8938:	e5831000 	str	r1, [r3]
    893c:	e28dd00c 	add	sp, sp, #12
    8940:	e49df004 	pop	{pc}		; (ldr pc, [sp], #4)
    8944:	e59f303c 	ldr	r3, [pc, #60]	; 8988 <watchpt_set0+0xa8>
    8948:	e58d3000 	str	r3, [sp]
    894c:	e3a0302d 	mov	r3, #45	; 0x2d
    8950:	e59f2034 	ldr	r2, [pc, #52]	; 898c <watchpt_set0+0xac>
    8954:	e59f1034 	ldr	r1, [pc, #52]	; 8990 <watchpt_set0+0xb0>
    8958:	e59f0034 	ldr	r0, [pc, #52]	; 8994 <watchpt_set0+0xb4>
    895c:	eb000122 	bl	8dec <printk>
    8960:	eb000205 	bl	917c <clean_reboot>
    8964:	e59f302c 	ldr	r3, [pc, #44]	; 8998 <watchpt_set0+0xb8>
    8968:	e58d3000 	str	r3, [sp]
    896c:	e3a03035 	mov	r3, #53	; 0x35
    8970:	e59f2014 	ldr	r2, [pc, #20]	; 898c <watchpt_set0+0xac>
    8974:	e59f1014 	ldr	r1, [pc, #20]	; 8990 <watchpt_set0+0xb0>
    8978:	e59f0014 	ldr	r0, [pc, #20]	; 8994 <watchpt_set0+0xb4>
    897c:	eb00011a 	bl	8dec <printk>
    8980:	eb0001fd 	bl	917c <clean_reboot>
    8984:	0000a748 	andeq	sl, r0, r8, asr #14
    8988:	0000a0fc 	strdeq	sl, [r0], -ip
    898c:	0000a2d4 	ldrdeq	sl, [r0], -r4
    8990:	0000a098 	muleq	r0, r8, r0
    8994:	00009d18 	andeq	r9, r0, r8, lsl sp
    8998:	0000a114 	andeq	sl, r0, r4, lsl r1

0000899c <debug_data_abort_vector>:
    899c:	e92d4030 	push	{r4, r5, lr}
    89a0:	e24dd00c 	sub	sp, sp, #12
    89a4:	e1a04000 	mov	r4, r0
    89a8:	e59f3148 	ldr	r3, [pc, #328]	; 8af8 <debug_data_abort_vector+0x15c>
    89ac:	e5931004 	ldr	r1, [r3, #4]
    89b0:	e2812001 	add	r2, r1, #1
    89b4:	e5832004 	str	r2, [r3, #4]
    89b8:	e1a02000 	mov	r2, r0
    89bc:	e59f0138 	ldr	r0, [pc, #312]	; 8afc <debug_data_abort_vector+0x160>
    89c0:	eb000109 	bl	8dec <printk>
    89c4:	ee153f10 	mrc	15, 0, r3, cr5, cr0, {0}
    89c8:	e3130b02 	tst	r3, #2048	; 0x800
    89cc:	1a000023 	bne	8a60 <debug_data_abort_vector+0xc4>
    89d0:	e59f0128 	ldr	r0, [pc, #296]	; 8b00 <debug_data_abort_vector+0x164>
    89d4:	eb000104 	bl	8dec <printk>
    89d8:	ee153f10 	mrc	15, 0, r3, cr5, cr0, {0}
    89dc:	e3130b01 	tst	r3, #1024	; 0x400
    89e0:	0a000021 	beq	8a6c <debug_data_abort_vector+0xd0>
    89e4:	e3a02000 	mov	r2, #0
    89e8:	e1a03002 	mov	r3, r2
    89ec:	e3520000 	cmp	r2, #0
    89f0:	1a000023 	bne	8a84 <debug_data_abort_vector+0xe8>
    89f4:	e3530000 	cmp	r3, #0
    89f8:	0a000028 	beq	8aa0 <debug_data_abort_vector+0x104>
    89fc:	ee101e16 	mrc	14, 0, r1, cr0, cr6, {0}
    8a00:	e1a02004 	mov	r2, r4
    8a04:	e2411008 	sub	r1, r1, #8
    8a08:	e59f00f4 	ldr	r0, [pc, #244]	; 8b04 <debug_data_abort_vector+0x168>
    8a0c:	eb0000f6 	bl	8dec <printk>
    8a10:	ee103e16 	mrc	14, 0, r3, cr0, cr6, {0}
    8a14:	e2433004 	sub	r3, r3, #4
    8a18:	e1530004 	cmp	r3, r4
    8a1c:	1a000025 	bne	8ab8 <debug_data_abort_vector+0x11c>
    8a20:	e59f30d0 	ldr	r3, [pc, #208]	; 8af8 <debug_data_abort_vector+0x15c>
    8a24:	e5933000 	ldr	r3, [r3]
    8a28:	e3530000 	cmp	r3, #0
    8a2c:	0a000029 	beq	8ad8 <debug_data_abort_vector+0x13c>
    8a30:	ee165f10 	mrc	15, 0, r5, cr6, cr0, {0}
    8a34:	e1a01005 	mov	r1, r5
    8a38:	e59f00c8 	ldr	r0, [pc, #200]	; 8b08 <debug_data_abort_vector+0x16c>
    8a3c:	eb0000ea 	bl	8dec <printk>
    8a40:	e59f30b0 	ldr	r3, [pc, #176]	; 8af8 <debug_data_abort_vector+0x15c>
    8a44:	e5933000 	ldr	r3, [r3]
    8a48:	e1a02005 	mov	r2, r5
    8a4c:	e1a01004 	mov	r1, r4
    8a50:	e3a00000 	mov	r0, #0
    8a54:	e12fff33 	blx	r3
    8a58:	e28dd00c 	add	sp, sp, #12
    8a5c:	e8bd8030 	pop	{r4, r5, pc}
    8a60:	e59f00a4 	ldr	r0, [pc, #164]	; 8b0c <debug_data_abort_vector+0x170>
    8a64:	eb0000e0 	bl	8dec <printk>
    8a68:	eaffffda 	b	89d8 <debug_data_abort_vector+0x3c>
    8a6c:	e203301f 	and	r3, r3, #31
    8a70:	e3530002 	cmp	r3, #2
    8a74:	13a02000 	movne	r2, #0
    8a78:	1affffda 	bne	89e8 <debug_data_abort_vector+0x4c>
    8a7c:	e3a02001 	mov	r2, #1
    8a80:	eaffffd8 	b	89e8 <debug_data_abort_vector+0x4c>
    8a84:	ee103e11 	mrc	14, 0, r3, cr0, cr1, {0}
    8a88:	e1a03123 	lsr	r3, r3, #2
    8a8c:	e2033007 	and	r3, r3, #7
    8a90:	e3530002 	cmp	r3, #2
    8a94:	13a03000 	movne	r3, #0
    8a98:	03a03001 	moveq	r3, #1
    8a9c:	eaffffd4 	b	89f4 <debug_data_abort_vector+0x58>
    8aa0:	e3a03048 	mov	r3, #72	; 0x48
    8aa4:	e59f2064 	ldr	r2, [pc, #100]	; 8b10 <debug_data_abort_vector+0x174>
    8aa8:	e59f1064 	ldr	r1, [pc, #100]	; 8b14 <debug_data_abort_vector+0x178>
    8aac:	e59f0064 	ldr	r0, [pc, #100]	; 8b18 <debug_data_abort_vector+0x17c>
    8ab0:	eb0000cd 	bl	8dec <printk>
    8ab4:	eb0001b0 	bl	917c <clean_reboot>
    8ab8:	e59f305c 	ldr	r3, [pc, #92]	; 8b1c <debug_data_abort_vector+0x180>
    8abc:	e58d3000 	str	r3, [sp]
    8ac0:	e3a0304c 	mov	r3, #76	; 0x4c
    8ac4:	e59f2044 	ldr	r2, [pc, #68]	; 8b10 <debug_data_abort_vector+0x174>
    8ac8:	e59f1044 	ldr	r1, [pc, #68]	; 8b14 <debug_data_abort_vector+0x178>
    8acc:	e59f004c 	ldr	r0, [pc, #76]	; 8b20 <debug_data_abort_vector+0x184>
    8ad0:	eb0000c5 	bl	8dec <printk>
    8ad4:	eb0001a8 	bl	917c <clean_reboot>
    8ad8:	e59f3044 	ldr	r3, [pc, #68]	; 8b24 <debug_data_abort_vector+0x188>
    8adc:	e58d3000 	str	r3, [sp]
    8ae0:	e3a0304e 	mov	r3, #78	; 0x4e
    8ae4:	e59f2024 	ldr	r2, [pc, #36]	; 8b10 <debug_data_abort_vector+0x174>
    8ae8:	e59f1024 	ldr	r1, [pc, #36]	; 8b14 <debug_data_abort_vector+0x178>
    8aec:	e59f002c 	ldr	r0, [pc, #44]	; 8b20 <debug_data_abort_vector+0x184>
    8af0:	eb0000bd 	bl	8dec <printk>
    8af4:	eb0001a0 	bl	917c <clean_reboot>
    8af8:	0000a748 	andeq	sl, r0, r8, asr #14
    8afc:	0000a12c 	andeq	sl, r0, ip, lsr #2
    8b00:	0000a14c 	andeq	sl, r0, ip, asr #2
    8b04:	0000a1ac 	andeq	sl, r0, ip, lsr #3
    8b08:	0000a1f0 	strdeq	sl, [r0], -r0
    8b0c:	0000a160 	andeq	sl, r0, r0, ror #2
    8b10:	0000a2e4 	andeq	sl, r0, r4, ror #5
    8b14:	0000a098 	muleq	r0, r8, r0
    8b18:	0000a174 	andeq	sl, r0, r4, ror r1
    8b1c:	0000a1c8 	andeq	sl, r0, r8, asr #3
    8b20:	00009d18 	andeq	r9, r0, r8, lsl sp
    8b24:	0000a1dc 	ldrdeq	sl, [r0], -ip

00008b28 <cp14_enable>:
    8b28:	e52de004 	push	{lr}		; (str lr, [sp, #-4]!)
    8b2c:	e24dd00c 	sub	sp, sp, #12
    8b30:	ee103e11 	mrc	14, 0, r3, cr0, cr1, {0}
    8b34:	e3130901 	tst	r3, #16384	; 0x4000
    8b38:	1a000010 	bne	8b80 <cp14_enable+0x58>
    8b3c:	e3130902 	tst	r3, #32768	; 0x8000
    8b40:	1a000016 	bne	8ba0 <cp14_enable+0x78>
    8b44:	e3130902 	tst	r3, #32768	; 0x8000
    8b48:	1a00001c 	bne	8bc0 <cp14_enable+0x98>
    8b4c:	e3130901 	tst	r3, #16384	; 0x4000
    8b50:	1a000022 	bne	8be0 <cp14_enable+0xb8>
    8b54:	e3833902 	orr	r3, r3, #32768	; 0x8000
    8b58:	ee003e11 	mcr	14, 0, r3, cr0, cr1, {0}
    8b5c:	ee103e11 	mrc	14, 0, r3, cr0, cr1, {0}
    8b60:	e3130902 	tst	r3, #32768	; 0x8000
    8b64:	0a000025 	beq	8c00 <cp14_enable+0xd8>
    8b68:	e3130901 	tst	r3, #16384	; 0x4000
    8b6c:	1a00002b 	bne	8c20 <cp14_enable+0xf8>
    8b70:	e3a03000 	mov	r3, #0
    8b74:	ee073f95 	mcr	15, 0, r3, cr7, cr5, {4}
    8b78:	e28dd00c 	add	sp, sp, #12
    8b7c:	e49df004 	pop	{pc}		; (ldr pc, [sp], #4)
    8b80:	e59f30b8 	ldr	r3, [pc, #184]	; 8c40 <cp14_enable+0x118>
    8b84:	e58d3000 	str	r3, [sp]
    8b88:	e3a03064 	mov	r3, #100	; 0x64
    8b8c:	e59f20b0 	ldr	r2, [pc, #176]	; 8c44 <cp14_enable+0x11c>
    8b90:	e59f10b0 	ldr	r1, [pc, #176]	; 8c48 <cp14_enable+0x120>
    8b94:	e59f00b0 	ldr	r0, [pc, #176]	; 8c4c <cp14_enable+0x124>
    8b98:	eb000093 	bl	8dec <printk>
    8b9c:	eb000176 	bl	917c <clean_reboot>
    8ba0:	e59f30a8 	ldr	r3, [pc, #168]	; 8c50 <cp14_enable+0x128>
    8ba4:	e58d3000 	str	r3, [sp]
    8ba8:	e3a03065 	mov	r3, #101	; 0x65
    8bac:	e59f2090 	ldr	r2, [pc, #144]	; 8c44 <cp14_enable+0x11c>
    8bb0:	e59f1090 	ldr	r1, [pc, #144]	; 8c48 <cp14_enable+0x120>
    8bb4:	e59f0090 	ldr	r0, [pc, #144]	; 8c4c <cp14_enable+0x124>
    8bb8:	eb00008b 	bl	8dec <printk>
    8bbc:	eb00016e 	bl	917c <clean_reboot>
    8bc0:	e59f308c 	ldr	r3, [pc, #140]	; 8c54 <cp14_enable+0x12c>
    8bc4:	e58d3000 	str	r3, [sp]
    8bc8:	e3a03066 	mov	r3, #102	; 0x66
    8bcc:	e59f2070 	ldr	r2, [pc, #112]	; 8c44 <cp14_enable+0x11c>
    8bd0:	e59f1070 	ldr	r1, [pc, #112]	; 8c48 <cp14_enable+0x120>
    8bd4:	e59f0070 	ldr	r0, [pc, #112]	; 8c4c <cp14_enable+0x124>
    8bd8:	eb000083 	bl	8dec <printk>
    8bdc:	eb000166 	bl	917c <clean_reboot>
    8be0:	e59f3070 	ldr	r3, [pc, #112]	; 8c58 <cp14_enable+0x130>
    8be4:	e58d3000 	str	r3, [sp]
    8be8:	e3a03067 	mov	r3, #103	; 0x67
    8bec:	e59f2050 	ldr	r2, [pc, #80]	; 8c44 <cp14_enable+0x11c>
    8bf0:	e59f1050 	ldr	r1, [pc, #80]	; 8c48 <cp14_enable+0x120>
    8bf4:	e59f0050 	ldr	r0, [pc, #80]	; 8c4c <cp14_enable+0x124>
    8bf8:	eb00007b 	bl	8dec <printk>
    8bfc:	eb00015e 	bl	917c <clean_reboot>
    8c00:	e59f3054 	ldr	r3, [pc, #84]	; 8c5c <cp14_enable+0x134>
    8c04:	e58d3000 	str	r3, [sp]
    8c08:	e3a0306b 	mov	r3, #107	; 0x6b
    8c0c:	e59f2030 	ldr	r2, [pc, #48]	; 8c44 <cp14_enable+0x11c>
    8c10:	e59f1030 	ldr	r1, [pc, #48]	; 8c48 <cp14_enable+0x120>
    8c14:	e59f0030 	ldr	r0, [pc, #48]	; 8c4c <cp14_enable+0x124>
    8c18:	eb000073 	bl	8dec <printk>
    8c1c:	eb000156 	bl	917c <clean_reboot>
    8c20:	e59f3018 	ldr	r3, [pc, #24]	; 8c40 <cp14_enable+0x118>
    8c24:	e58d3000 	str	r3, [sp]
    8c28:	e3a0306c 	mov	r3, #108	; 0x6c
    8c2c:	e59f2010 	ldr	r2, [pc, #16]	; 8c44 <cp14_enable+0x11c>
    8c30:	e59f1010 	ldr	r1, [pc, #16]	; 8c48 <cp14_enable+0x120>
    8c34:	e59f0010 	ldr	r0, [pc, #16]	; 8c4c <cp14_enable+0x124>
    8c38:	eb00006b 	bl	8dec <printk>
    8c3c:	eb00014e 	bl	917c <clean_reboot>
    8c40:	0000a204 	andeq	sl, r0, r4, lsl #4
    8c44:	0000a2fc 	strdeq	sl, [r0], -ip
    8c48:	0000a098 	muleq	r0, r8, r0
    8c4c:	00009d18 	andeq	r9, r0, r8, lsl sp
    8c50:	0000a218 	andeq	sl, r0, r8, lsl r2
    8c54:	0000a22c 	andeq	sl, r0, ip, lsr #4
    8c58:	0000a244 	andeq	sl, r0, r4, asr #4
    8c5c:	0000a25c 	andeq	sl, r0, ip, asr r2

00008c60 <brkpt_set0>:
    8c60:	e92d4010 	push	{r4, lr}
    8c64:	e1a04001 	mov	r4, r1
    8c68:	e3a01001 	mov	r1, #1
    8c6c:	ebfffed8 	bl	87d4 <brkpt_set0_helper>
    8c70:	e59f3004 	ldr	r3, [pc, #4]	; 8c7c <brkpt_set0+0x1c>
    8c74:	e5834008 	str	r4, [r3, #8]
    8c78:	e8bd8010 	pop	{r4, pc}
    8c7c:	0000a748 	andeq	sl, r0, r8, asr #14

00008c80 <prefetch_abort_vector>:
    8c80:	e52de004 	push	{lr}		; (str lr, [sp, #-4]!)
    8c84:	e24dd00c 	sub	sp, sp, #12
    8c88:	e1a01000 	mov	r1, r0
    8c8c:	ee153f30 	mrc	15, 0, r3, cr5, cr0, {1}
    8c90:	e3130b01 	tst	r3, #1024	; 0x400
    8c94:	0a00000e 	beq	8cd4 <prefetch_abort_vector+0x54>
    8c98:	e3a02000 	mov	r2, #0
    8c9c:	e1a03002 	mov	r3, r2
    8ca0:	e3520000 	cmp	r2, #0
    8ca4:	1a000010 	bne	8cec <prefetch_abort_vector+0x6c>
    8ca8:	e3530000 	cmp	r3, #0
    8cac:	0a000015 	beq	8d08 <prefetch_abort_vector+0x88>
    8cb0:	e59f3088 	ldr	r3, [pc, #136]	; 8d40 <prefetch_abort_vector+0xc0>
    8cb4:	e5933008 	ldr	r3, [r3, #8]
    8cb8:	e3530000 	cmp	r3, #0
    8cbc:	0a000017 	beq	8d20 <prefetch_abort_vector+0xa0>
    8cc0:	ee162f10 	mrc	15, 0, r2, cr6, cr0, {0}
    8cc4:	e3a00000 	mov	r0, #0
    8cc8:	e12fff33 	blx	r3
    8ccc:	e28dd00c 	add	sp, sp, #12
    8cd0:	e49df004 	pop	{pc}		; (ldr pc, [sp], #4)
    8cd4:	e203301f 	and	r3, r3, #31
    8cd8:	e3530002 	cmp	r3, #2
    8cdc:	13a02000 	movne	r2, #0
    8ce0:	1affffed 	bne	8c9c <prefetch_abort_vector+0x1c>
    8ce4:	e3a02001 	mov	r2, #1
    8ce8:	eaffffeb 	b	8c9c <prefetch_abort_vector+0x1c>
    8cec:	ee103e11 	mrc	14, 0, r3, cr0, cr1, {0}
    8cf0:	e1a03123 	lsr	r3, r3, #2
    8cf4:	e2033007 	and	r3, r3, #7
    8cf8:	e3530001 	cmp	r3, #1
    8cfc:	13a03000 	movne	r3, #0
    8d00:	03a03001 	moveq	r3, #1
    8d04:	eaffffe7 	b	8ca8 <prefetch_abort_vector+0x28>
    8d08:	e3a030bb 	mov	r3, #187	; 0xbb
    8d0c:	e59f2030 	ldr	r2, [pc, #48]	; 8d44 <prefetch_abort_vector+0xc4>
    8d10:	e59f1030 	ldr	r1, [pc, #48]	; 8d48 <prefetch_abort_vector+0xc8>
    8d14:	e59f0030 	ldr	r0, [pc, #48]	; 8d4c <prefetch_abort_vector+0xcc>
    8d18:	eb000033 	bl	8dec <printk>
    8d1c:	eb000116 	bl	917c <clean_reboot>
    8d20:	e59f3028 	ldr	r3, [pc, #40]	; 8d50 <prefetch_abort_vector+0xd0>
    8d24:	e58d3000 	str	r3, [sp]
    8d28:	e3a030c2 	mov	r3, #194	; 0xc2
    8d2c:	e59f2010 	ldr	r2, [pc, #16]	; 8d44 <prefetch_abort_vector+0xc4>
    8d30:	e59f1010 	ldr	r1, [pc, #16]	; 8d48 <prefetch_abort_vector+0xc8>
    8d34:	e59f0018 	ldr	r0, [pc, #24]	; 8d54 <prefetch_abort_vector+0xd4>
    8d38:	eb00002b 	bl	8dec <printk>
    8d3c:	eb00010e 	bl	917c <clean_reboot>
    8d40:	0000a748 	andeq	sl, r0, r8, asr #14
    8d44:	0000a308 	andeq	sl, r0, r8, lsl #6
    8d48:	0000a098 	muleq	r0, r8, r0
    8d4c:	0000a174 	andeq	sl, r0, r4, ror r1
    8d50:	0000a270 	andeq	sl, r0, r0, ror r2
    8d54:	00009d18 	andeq	r9, r0, r8, lsl sp

00008d58 <brk_no_ret_error>:
    8d58:	e92d4010 	push	{r4, lr}
    8d5c:	e3a030cf 	mov	r3, #207	; 0xcf
    8d60:	e59f200c 	ldr	r2, [pc, #12]	; 8d74 <brk_no_ret_error+0x1c>
    8d64:	e59f100c 	ldr	r1, [pc, #12]	; 8d78 <brk_no_ret_error+0x20>
    8d68:	e59f000c 	ldr	r0, [pc, #12]	; 8d7c <brk_no_ret_error+0x24>
    8d6c:	eb00001e 	bl	8dec <printk>
    8d70:	eb000101 	bl	917c <clean_reboot>
    8d74:	0000a320 	andeq	sl, r0, r0, lsr #6
    8d78:	0000a098 	muleq	r0, r8, r0
    8d7c:	0000a280 	andeq	sl, r0, r0, lsl #5

00008d80 <brkpt_mismatch_set0_raw>:
    8d80:	e92d4010 	push	{r4, lr}
    8d84:	e3a01000 	mov	r1, #0
    8d88:	ebfffe91 	bl	87d4 <brkpt_set0_helper>
    8d8c:	e8bd8010 	pop	{r4, pc}

00008d90 <brkpt_mismatch_set0>:
    8d90:	e92d4010 	push	{r4, lr}
    8d94:	e1a04001 	mov	r4, r1
    8d98:	e3a01000 	mov	r1, #0
    8d9c:	ebfffe8c 	bl	87d4 <brkpt_set0_helper>
    8da0:	e59f3004 	ldr	r3, [pc, #4]	; 8dac <brkpt_mismatch_set0+0x1c>
    8da4:	e5834008 	str	r4, [r3, #8]
    8da8:	e8bd8010 	pop	{r4, pc}
    8dac:	0000a748 	andeq	sl, r0, r8, asr #14

00008db0 <brkpt_mismatch_disable0>:
    8db0:	e92d4010 	push	{r4, lr}
    8db4:	ebfffeb2 	bl	8884 <brkpt_disable0>
    8db8:	e8bd8010 	pop	{r4, pc}

00008dbc <brkpt_mismatch_start>:
    8dbc:	e92d4010 	push	{r4, lr}
    8dc0:	ebffff58 	bl	8b28 <cp14_enable>
    8dc4:	e3a00000 	mov	r0, #0
    8dc8:	ebffffec 	bl	8d80 <brkpt_mismatch_set0_raw>
    8dcc:	e8bd8010 	pop	{r4, pc}

00008dd0 <brkpt_mismatch_set>:
    8dd0:	e92d4010 	push	{r4, lr}
    8dd4:	ebffffe9 	bl	8d80 <brkpt_mismatch_set0_raw>
    8dd8:	e8bd8010 	pop	{r4, pc}

00008ddc <brkpt_mismatch_stop>:
    8ddc:	e92d4010 	push	{r4, lr}
    8de0:	e3a00000 	mov	r0, #0
    8de4:	ebfffff1 	bl	8db0 <brkpt_mismatch_disable0>
    8de8:	e8bd8010 	pop	{r4, pc}

00008dec <printk>:
    8dec:	e92d000f 	push	{r0, r1, r2, r3}
    8df0:	e92d4030 	push	{r4, r5, lr}
    8df4:	e24dd00c 	sub	sp, sp, #12
    8df8:	e28d301c 	add	r3, sp, #28
    8dfc:	e58d3004 	str	r3, [sp, #4]
    8e00:	e59f5034 	ldr	r5, [pc, #52]	; 8e3c <printk+0x50>
    8e04:	e59d2018 	ldr	r2, [sp, #24]
    8e08:	e3a01b01 	mov	r1, #1024	; 0x400
    8e0c:	e1a00005 	mov	r0, r5
    8e10:	eb000225 	bl	96ac <va_printk>
    8e14:	e1a04000 	mov	r4, r0
    8e18:	e59f3020 	ldr	r3, [pc, #32]	; 8e40 <printk+0x54>
    8e1c:	e5933000 	ldr	r3, [r3]
    8e20:	e1a00005 	mov	r0, r5
    8e24:	e12fff33 	blx	r3
    8e28:	e1a00004 	mov	r0, r4
    8e2c:	e28dd00c 	add	sp, sp, #12
    8e30:	e8bd4030 	pop	{r4, r5, lr}
    8e34:	e28dd010 	add	sp, sp, #16
    8e38:	e12fff1e 	bx	lr
    8e3c:	0000a758 	andeq	sl, r0, r8, asr r7
    8e40:	0000a724 	andeq	sl, r0, r4, lsr #14

00008e44 <strlen>:
    8e44:	e1a02000 	mov	r2, r0
    8e48:	e3a00000 	mov	r0, #0
    8e4c:	ea000000 	b	8e54 <strlen+0x10>
    8e50:	e2800001 	add	r0, r0, #1
    8e54:	e7d23000 	ldrb	r3, [r2, r0]
    8e58:	e3530000 	cmp	r3, #0
    8e5c:	1afffffb 	bne	8e50 <strlen+0xc>
    8e60:	e12fff1e 	bx	lr

00008e64 <strcpy>:
    8e64:	e1a0c000 	mov	ip, r0
    8e68:	e5d12000 	ldrb	r2, [r1]
    8e6c:	e2811001 	add	r1, r1, #1
    8e70:	e5cc2000 	strb	r2, [ip]
    8e74:	e28cc001 	add	ip, ip, #1
    8e78:	e3520000 	cmp	r2, #0
    8e7c:	1afffff9 	bne	8e68 <strcpy+0x4>
    8e80:	e12fff1e 	bx	lr

00008e84 <memcpy>:
    8e84:	e2103003 	ands	r3, r0, #3
    8e88:	1a000011 	bne	8ed4 <memcpy+0x50>
    8e8c:	e211c003 	ands	ip, r1, #3
    8e90:	1a00000c 	bne	8ec8 <memcpy+0x44>
    8e94:	e2123003 	ands	r3, r2, #3
    8e98:	1a00000f 	bne	8edc <memcpy+0x58>
    8e9c:	e1a02122 	lsr	r2, r2, #2
    8ea0:	ea000002 	b	8eb0 <memcpy+0x2c>
    8ea4:	e791c103 	ldr	ip, [r1, r3, lsl #2]
    8ea8:	e780c103 	str	ip, [r0, r3, lsl #2]
    8eac:	e2833001 	add	r3, r3, #1
    8eb0:	e1530002 	cmp	r3, r2
    8eb4:	3afffffa 	bcc	8ea4 <memcpy+0x20>
    8eb8:	e12fff1e 	bx	lr
    8ebc:	e7d1c003 	ldrb	ip, [r1, r3]
    8ec0:	e7c0c003 	strb	ip, [r0, r3]
    8ec4:	e2833001 	add	r3, r3, #1
    8ec8:	e1530002 	cmp	r3, r2
    8ecc:	3afffffa 	bcc	8ebc <memcpy+0x38>
    8ed0:	e12fff1e 	bx	lr
    8ed4:	e3a03000 	mov	r3, #0
    8ed8:	eafffffa 	b	8ec8 <memcpy+0x44>
    8edc:	e1a0300c 	mov	r3, ip
    8ee0:	eafffff8 	b	8ec8 <memcpy+0x44>

00008ee4 <internal_putk>:
    8ee4:	e92d4010 	push	{r4, lr}
    8ee8:	e1a04000 	mov	r4, r0
    8eec:	ea000003 	b	8f00 <internal_putk+0x1c>
    8ef0:	e59f301c 	ldr	r3, [pc, #28]	; 8f14 <internal_putk+0x30>
    8ef4:	e5933000 	ldr	r3, [r3]
    8ef8:	e12fff33 	blx	r3
    8efc:	e2844001 	add	r4, r4, #1
    8f00:	e5d40000 	ldrb	r0, [r4]
    8f04:	e3500000 	cmp	r0, #0
    8f08:	1afffff8 	bne	8ef0 <internal_putk+0xc>
    8f0c:	e3a00001 	mov	r0, #1
    8f10:	e8bd8010 	pop	{r4, pc}
    8f14:	0000a728 	andeq	sl, r0, r8, lsr #14

00008f18 <internal_putchar>:
    8f18:	e92d4010 	push	{r4, lr}
    8f1c:	e1a04000 	mov	r4, r0
    8f20:	eb000117 	bl	9384 <uart_putc>
    8f24:	e1a00004 	mov	r0, r4
    8f28:	e8bd8010 	pop	{r4, pc}

00008f2c <rpi_reset_putc>:
    8f2c:	e59f3008 	ldr	r3, [pc, #8]	; 8f3c <rpi_reset_putc+0x10>
    8f30:	e59f2008 	ldr	r2, [pc, #8]	; 8f40 <rpi_reset_putc+0x14>
    8f34:	e5832000 	str	r2, [r3]
    8f38:	e12fff1e 	bx	lr
    8f3c:	0000a728 	andeq	sl, r0, r8, lsr #14
    8f40:	00008f18 	andeq	r8, r0, r8, lsl pc

00008f44 <rpi_set_putc>:
    8f44:	e59f3004 	ldr	r3, [pc, #4]	; 8f50 <rpi_set_putc+0xc>
    8f48:	e5830000 	str	r0, [r3]
    8f4c:	e12fff1e 	bx	lr
    8f50:	0000a728 	andeq	sl, r0, r8, lsr #14

00008f54 <memset>:
    8f54:	e0802002 	add	r2, r0, r2
    8f58:	e1a03000 	mov	r3, r0
    8f5c:	ea000000 	b	8f64 <memset+0x10>
    8f60:	e4c31001 	strb	r1, [r3], #1
    8f64:	e1530002 	cmp	r3, r2
    8f68:	3afffffc 	bcc	8f60 <memset+0xc>
    8f6c:	e12fff1e 	bx	lr

00008f70 <undefined_instruction_vector>:
    8f70:	e52de004 	push	{lr}		; (str lr, [sp, #-4]!)
    8f74:	e24dd00c 	sub	sp, sp, #12
    8f78:	e58d0004 	str	r0, [sp, #4]
    8f7c:	e59f3018 	ldr	r3, [pc, #24]	; 8f9c <undefined_instruction_vector+0x2c>
    8f80:	e58d3000 	str	r3, [sp]
    8f84:	e3a03002 	mov	r3, #2
    8f88:	e59f2010 	ldr	r2, [pc, #16]	; 8fa0 <undefined_instruction_vector+0x30>
    8f8c:	e59f1010 	ldr	r1, [pc, #16]	; 8fa4 <undefined_instruction_vector+0x34>
    8f90:	e59f0010 	ldr	r0, [pc, #16]	; 8fa8 <undefined_instruction_vector+0x38>
    8f94:	ebffff94 	bl	8dec <printk>
    8f98:	eb000077 	bl	917c <clean_reboot>
    8f9c:	0000a3a0 	andeq	sl, r0, r0, lsr #7
    8fa0:	0000a3b0 			; <UNDEFINED> instruction: 0x0000a3b0
    8fa4:	0000a334 	andeq	sl, r0, r4, lsr r3
    8fa8:	0000a364 	andeq	sl, r0, r4, ror #6

00008fac <asm_not_reached_helper>:
    8fac:	e52de004 	push	{lr}		; (str lr, [sp, #-4]!)
    8fb0:	e24dd00c 	sub	sp, sp, #12
    8fb4:	e58d0000 	str	r0, [sp]
    8fb8:	e3a03004 	mov	r3, #4
    8fbc:	e59f200c 	ldr	r2, [pc, #12]	; 8fd0 <asm_not_reached_helper+0x24>
    8fc0:	e59f100c 	ldr	r1, [pc, #12]	; 8fd4 <asm_not_reached_helper+0x28>
    8fc4:	e59f000c 	ldr	r0, [pc, #12]	; 8fd8 <asm_not_reached_helper+0x2c>
    8fc8:	ebffff87 	bl	8dec <printk>
    8fcc:	eb00006a 	bl	917c <clean_reboot>
    8fd0:	0000a440 	andeq	sl, r0, r0, asr #8
    8fd4:	0000a3d0 	ldrdeq	sl, [r0], -r0
    8fd8:	0000a3ec 	andeq	sl, r0, ip, ror #7

00008fdc <asm_not_implemented_helper>:
    8fdc:	e52de004 	push	{lr}		; (str lr, [sp, #-4]!)
    8fe0:	e24dd00c 	sub	sp, sp, #12
    8fe4:	e58d0000 	str	r0, [sp]
    8fe8:	e3a03007 	mov	r3, #7
    8fec:	e59f200c 	ldr	r2, [pc, #12]	; 9000 <asm_not_implemented_helper+0x24>
    8ff0:	e59f100c 	ldr	r1, [pc, #12]	; 9004 <asm_not_implemented_helper+0x28>
    8ff4:	e59f000c 	ldr	r0, [pc, #12]	; 9008 <asm_not_implemented_helper+0x2c>
    8ff8:	ebffff7b 	bl	8dec <printk>
    8ffc:	eb00005e 	bl	917c <clean_reboot>
    9000:	0000a458 	andeq	sl, r0, r8, asr r4
    9004:	0000a3d0 	ldrdeq	sl, [r0], -r0
    9008:	0000a418 	andeq	sl, r0, r8, lsl r4

0000900c <int_vector>:
    900c:	e52de004 	push	{lr}		; (str lr, [sp, #-4]!)
    9010:	e24dd00c 	sub	sp, sp, #12
    9014:	e58d0004 	str	r0, [sp, #4]
    9018:	e59f3018 	ldr	r3, [pc, #24]	; 9038 <int_vector+0x2c>
    901c:	e58d3000 	str	r3, [sp]
    9020:	e3a03003 	mov	r3, #3
    9024:	e59f2010 	ldr	r2, [pc, #16]	; 903c <int_vector+0x30>
    9028:	e59f1010 	ldr	r1, [pc, #16]	; 9040 <int_vector+0x34>
    902c:	e59f0010 	ldr	r0, [pc, #16]	; 9044 <int_vector+0x38>
    9030:	ebffff6d 	bl	8dec <printk>
    9034:	eb000050 	bl	917c <clean_reboot>
    9038:	0000a498 	muleq	r0, r8, r4
    903c:	0000a4a4 	andeq	sl, r0, r4, lsr #9
    9040:	0000a474 	andeq	sl, r0, r4, ror r4
    9044:	0000a364 	andeq	sl, r0, r4, ror #6

00009048 <reset_vector>:
    9048:	e52de004 	push	{lr}		; (str lr, [sp, #-4]!)
    904c:	e24dd00c 	sub	sp, sp, #12
    9050:	e58d0004 	str	r0, [sp, #4]
    9054:	e59f3018 	ldr	r3, [pc, #24]	; 9074 <reset_vector+0x2c>
    9058:	e58d3000 	str	r3, [sp]
    905c:	e3a03002 	mov	r3, #2
    9060:	e59f2010 	ldr	r2, [pc, #16]	; 9078 <reset_vector+0x30>
    9064:	e59f1010 	ldr	r1, [pc, #16]	; 907c <reset_vector+0x34>
    9068:	e59f0010 	ldr	r0, [pc, #16]	; 9080 <reset_vector+0x38>
    906c:	ebffff5e 	bl	8dec <printk>
    9070:	eb000041 	bl	917c <clean_reboot>
    9074:	0000a4d4 	ldrdeq	sl, [r0], -r4
    9078:	0000a4dc 	ldrdeq	sl, [r0], -ip
    907c:	0000a4b0 			; <UNDEFINED> instruction: 0x0000a4b0
    9080:	0000a364 	andeq	sl, r0, r4, ror #6

00009084 <data_abort_vector>:
    9084:	e52de004 	push	{lr}		; (str lr, [sp, #-4]!)
    9088:	e24dd00c 	sub	sp, sp, #12
    908c:	e58d0004 	str	r0, [sp, #4]
    9090:	e59f3018 	ldr	r3, [pc, #24]	; 90b0 <data_abort_vector+0x2c>
    9094:	e58d3000 	str	r3, [sp]
    9098:	e3a03002 	mov	r3, #2
    909c:	e59f2010 	ldr	r2, [pc, #16]	; 90b4 <data_abort_vector+0x30>
    90a0:	e59f1010 	ldr	r1, [pc, #16]	; 90b8 <data_abort_vector+0x34>
    90a4:	e59f0010 	ldr	r0, [pc, #16]	; 90bc <data_abort_vector+0x38>
    90a8:	ebffff4f 	bl	8dec <printk>
    90ac:	eb000032 	bl	917c <clean_reboot>
    90b0:	0000a518 	andeq	sl, r0, r8, lsl r5
    90b4:	0000a524 	andeq	sl, r0, r4, lsr #10
    90b8:	0000a4ec 	andeq	sl, r0, ip, ror #9
    90bc:	0000a364 	andeq	sl, r0, r4, ror #6

000090c0 <_cstart>:
    90c0:	e92d4010 	push	{r4, lr}
    90c4:	ebfffccf 	bl	8408 <custom_loader>
    90c8:	e59f3028 	ldr	r3, [pc, #40]	; 90f8 <_cstart+0x38>
    90cc:	ea000001 	b	90d8 <_cstart+0x18>
    90d0:	e3a02000 	mov	r2, #0
    90d4:	e4832004 	str	r2, [r3], #4
    90d8:	e59f201c 	ldr	r2, [pc, #28]	; 90fc <_cstart+0x3c>
    90dc:	e1530002 	cmp	r3, r2
    90e0:	3afffffa 	bcc	90d0 <_cstart+0x10>
    90e4:	eb000060 	bl	926c <uart_init>
    90e8:	e3a03001 	mov	r3, #1
    90ec:	ee0f3f1c 	mcr	15, 0, r3, cr15, cr12, {0}
    90f0:	ebfffc45 	bl	820c <notmain>
    90f4:	eb000020 	bl	917c <clean_reboot>
    90f8:	0000a72c 	andeq	sl, r0, ip, lsr #14
    90fc:	0000ab58 	andeq	sl, r0, r8, asr fp

00009100 <at_user_level>:
    9100:	e10f0000 	mrs	r0, CPSR
    9104:	e200001f 	and	r0, r0, #31
    9108:	e3500010 	cmp	r0, #16
    910c:	13a00000 	movne	r0, #0
    9110:	03a00001 	moveq	r0, #1
    9114:	e12fff1e 	bx	lr

00009118 <set_user_level>:
    9118:	e10f3000 	mrs	r3, CPSR
    911c:	e3c3301f 	bic	r3, r3, #31
    9120:	e3833010 	orr	r3, r3, #16
    9124:	e129f003 	msr	CPSR_fc, r3
    9128:	e12fff1e 	bx	lr

0000912c <rpi_reboot>:
    912c:	e92d4010 	push	{r4, lr}
    9130:	ebfffff2 	bl	9100 <at_user_level>
    9134:	e3500000 	cmp	r0, #0
    9138:	1a000009 	bne	9164 <rpi_reboot+0x38>
    913c:	eb0000a8 	bl	93e4 <uart_flush_tx>
    9140:	e3a0000a 	mov	r0, #10
    9144:	eb00002c 	bl	91fc <delay_ms>
    9148:	e59f101c 	ldr	r1, [pc, #28]	; 916c <rpi_reboot+0x40>
    914c:	e59f001c 	ldr	r0, [pc, #28]	; 9170 <rpi_reboot+0x44>
    9150:	ebfffbb3 	bl	8024 <PUT32>
    9154:	e59f1018 	ldr	r1, [pc, #24]	; 9174 <rpi_reboot+0x48>
    9158:	e59f0018 	ldr	r0, [pc, #24]	; 9178 <rpi_reboot+0x4c>
    915c:	ebfffbb0 	bl	8024 <PUT32>
    9160:	eafffffe 	b	9160 <rpi_reboot+0x34>
    9164:	ebffffeb 	bl	9118 <set_user_level>
    9168:	eafffff3 	b	913c <rpi_reboot+0x10>
    916c:	5a000001 	bpl	9178 <rpi_reboot+0x4c>
    9170:	20100024 	andscs	r0, r0, r4, lsr #32
    9174:	5a000020 	bpl	91fc <delay_ms>
    9178:	2010001c 	andscs	r0, r0, ip, lsl r0

0000917c <clean_reboot>:
    917c:	e92d4010 	push	{r4, lr}
    9180:	e59f3018 	ldr	r3, [pc, #24]	; 91a0 <clean_reboot+0x24>
    9184:	e5933000 	ldr	r3, [r3]
    9188:	e59f0014 	ldr	r0, [pc, #20]	; 91a4 <clean_reboot+0x28>
    918c:	e12fff33 	blx	r3
    9190:	eb000093 	bl	93e4 <uart_flush_tx>
    9194:	e3a0000a 	mov	r0, #10
    9198:	eb000017 	bl	91fc <delay_ms>
    919c:	ebffffe2 	bl	912c <rpi_reboot>
    91a0:	0000a724 	andeq	sl, r0, r4, lsr #14
    91a4:	0000a538 	andeq	sl, r0, r8, lsr r5

000091a8 <timer_get_usec_raw>:
    91a8:	e92d4010 	push	{r4, lr}
    91ac:	e59f0004 	ldr	r0, [pc, #4]	; 91b8 <timer_get_usec_raw+0x10>
    91b0:	ebfffb9d 	bl	802c <GET32>
    91b4:	e8bd8010 	pop	{r4, pc}
    91b8:	20003004 	andcs	r3, r0, r4

000091bc <timer_get_usec>:
    91bc:	e92d4010 	push	{r4, lr}
    91c0:	eb000283 	bl	9bd4 <dev_barrier>
    91c4:	ebfffff7 	bl	91a8 <timer_get_usec_raw>
    91c8:	e1a04000 	mov	r4, r0
    91cc:	eb000280 	bl	9bd4 <dev_barrier>
    91d0:	e1a00004 	mov	r0, r4
    91d4:	e8bd8010 	pop	{r4, pc}

000091d8 <delay_us>:
    91d8:	e92d4070 	push	{r4, r5, r6, lr}
    91dc:	e1a05000 	mov	r5, r0
    91e0:	ebfffff5 	bl	91bc <timer_get_usec>
    91e4:	e1a04000 	mov	r4, r0
    91e8:	ebfffff3 	bl	91bc <timer_get_usec>
    91ec:	e0400004 	sub	r0, r0, r4
    91f0:	e1500005 	cmp	r0, r5
    91f4:	3afffffb 	bcc	91e8 <delay_us+0x10>
    91f8:	e8bd8070 	pop	{r4, r5, r6, pc}

000091fc <delay_ms>:
    91fc:	e92d4010 	push	{r4, lr}
    9200:	e0603280 	rsb	r3, r0, r0, lsl #5
    9204:	e0800103 	add	r0, r0, r3, lsl #2
    9208:	e1a00180 	lsl	r0, r0, #3
    920c:	ebfffff1 	bl	91d8 <delay_us>
    9210:	e8bd8010 	pop	{r4, pc}

00009214 <delay_sec>:
    9214:	e92d4010 	push	{r4, lr}
    9218:	e0603280 	rsb	r3, r0, r0, lsl #5
    921c:	e0800103 	add	r0, r0, r3, lsl #2
    9220:	e1a00180 	lsl	r0, r0, #3
    9224:	ebfffff4 	bl	91fc <delay_ms>
    9228:	e8bd8010 	pop	{r4, pc}

0000922c <and_in32>:
    922c:	e92d4070 	push	{r4, r5, r6, lr}
    9230:	e1a04000 	mov	r4, r0
    9234:	e1a05001 	mov	r5, r1
    9238:	ebfffb7b 	bl	802c <GET32>
    923c:	e0001005 	and	r1, r0, r5
    9240:	e1a00004 	mov	r0, r4
    9244:	ebfffb76 	bl	8024 <PUT32>
    9248:	e8bd8070 	pop	{r4, r5, r6, pc}

0000924c <or_in32>:
    924c:	e92d4070 	push	{r4, r5, r6, lr}
    9250:	e1a04000 	mov	r4, r0
    9254:	e1a05001 	mov	r5, r1
    9258:	ebfffb73 	bl	802c <GET32>
    925c:	e1801005 	orr	r1, r0, r5
    9260:	e1a00004 	mov	r0, r4
    9264:	ebfffb6e 	bl	8024 <PUT32>
    9268:	e8bd8070 	pop	{r4, r5, r6, pc}

0000926c <uart_init>:
    926c:	e92d4010 	push	{r4, lr}
    9270:	e3a01002 	mov	r1, #2
    9274:	e3a0000e 	mov	r0, #14
    9278:	eb00025b 	bl	9bec <gpio_set_function>
    927c:	e3a01002 	mov	r1, #2
    9280:	e3a0000f 	mov	r0, #15
    9284:	eb000258 	bl	9bec <gpio_set_function>
    9288:	eb000251 	bl	9bd4 <dev_barrier>
    928c:	e3a01001 	mov	r1, #1
    9290:	e59f0064 	ldr	r0, [pc, #100]	; 92fc <uart_init+0x90>
    9294:	ebffffec 	bl	924c <or_in32>
    9298:	eb00024d 	bl	9bd4 <dev_barrier>
    929c:	e59f405c 	ldr	r4, [pc, #92]	; 9300 <uart_init+0x94>
    92a0:	e3a01000 	mov	r1, #0
    92a4:	e1a00004 	mov	r0, r4
    92a8:	ebfffb5d 	bl	8024 <PUT32>
    92ac:	e3a01000 	mov	r1, #0
    92b0:	e59f004c 	ldr	r0, [pc, #76]	; 9304 <uart_init+0x98>
    92b4:	ebfffb5a 	bl	8024 <PUT32>
    92b8:	e3a01003 	mov	r1, #3
    92bc:	e59f0044 	ldr	r0, [pc, #68]	; 9308 <uart_init+0x9c>
    92c0:	ebfffb57 	bl	8024 <PUT32>
    92c4:	e3a01000 	mov	r1, #0
    92c8:	e59f003c 	ldr	r0, [pc, #60]	; 930c <uart_init+0xa0>
    92cc:	ebfffb54 	bl	8024 <PUT32>
    92d0:	e3a010c7 	mov	r1, #199	; 0xc7
    92d4:	e59f0034 	ldr	r0, [pc, #52]	; 9310 <uart_init+0xa4>
    92d8:	ebfffb51 	bl	8024 <PUT32>
    92dc:	e59f1030 	ldr	r1, [pc, #48]	; 9314 <uart_init+0xa8>
    92e0:	e59f0030 	ldr	r0, [pc, #48]	; 9318 <uart_init+0xac>
    92e4:	ebfffb4e 	bl	8024 <PUT32>
    92e8:	e3a01003 	mov	r1, #3
    92ec:	e1a00004 	mov	r0, r4
    92f0:	ebfffb4b 	bl	8024 <PUT32>
    92f4:	eb000236 	bl	9bd4 <dev_barrier>
    92f8:	e8bd8010 	pop	{r4, pc}
    92fc:	20215004 	eorcs	r5, r1, r4
    9300:	20215060 	eorcs	r5, r1, r0, rrx
    9304:	20215044 	eorcs	r5, r1, r4, asr #32
    9308:	2021504c 	eorcs	r5, r1, ip, asr #32
    930c:	20215050 	eorcs	r5, r1, r0, asr r0
    9310:	20215048 	eorcs	r5, r1, r8, asr #32
    9314:	0000010e 	andeq	r0, r0, lr, lsl #2
    9318:	20215068 	eorcs	r5, r1, r8, rrx

0000931c <uart_can_getc>:
    931c:	e92d4010 	push	{r4, lr}
    9320:	e59f0008 	ldr	r0, [pc, #8]	; 9330 <uart_can_getc+0x14>
    9324:	ebfffb40 	bl	802c <GET32>
    9328:	e2000001 	and	r0, r0, #1
    932c:	e8bd8010 	pop	{r4, pc}
    9330:	20215064 	eorcs	r5, r1, r4, rrx

00009334 <uart_can_putc>:
    9334:	e92d4010 	push	{r4, lr}
    9338:	e59f0010 	ldr	r0, [pc, #16]	; 9350 <uart_can_putc+0x1c>
    933c:	ebfffb3a 	bl	802c <GET32>
    9340:	e3100002 	tst	r0, #2
    9344:	13a00001 	movne	r0, #1
    9348:	03a00000 	moveq	r0, #0
    934c:	e8bd8010 	pop	{r4, pc}
    9350:	20215064 	eorcs	r5, r1, r4, rrx

00009354 <uart_getc>:
    9354:	e92d4010 	push	{r4, lr}
    9358:	eb00021d 	bl	9bd4 <dev_barrier>
    935c:	ebffffee 	bl	931c <uart_can_getc>
    9360:	e3500000 	cmp	r0, #0
    9364:	0afffffc 	beq	935c <uart_getc+0x8>
    9368:	e59f0010 	ldr	r0, [pc, #16]	; 9380 <uart_getc+0x2c>
    936c:	ebfffb2e 	bl	802c <GET32>
    9370:	e6ef4070 	uxtb	r4, r0
    9374:	eb000216 	bl	9bd4 <dev_barrier>
    9378:	e1a00004 	mov	r0, r4
    937c:	e8bd8010 	pop	{r4, pc}
    9380:	20215040 	eorcs	r5, r1, r0, asr #32

00009384 <uart_putc>:
    9384:	e92d4010 	push	{r4, lr}
    9388:	e1a04000 	mov	r4, r0
    938c:	eb000210 	bl	9bd4 <dev_barrier>
    9390:	ebffffe7 	bl	9334 <uart_can_putc>
    9394:	e3500000 	cmp	r0, #0
    9398:	0afffffc 	beq	9390 <uart_putc+0xc>
    939c:	e6ef1074 	uxtb	r1, r4
    93a0:	e59f0008 	ldr	r0, [pc, #8]	; 93b0 <uart_putc+0x2c>
    93a4:	ebfffb1e 	bl	8024 <PUT32>
    93a8:	eb000209 	bl	9bd4 <dev_barrier>
    93ac:	e8bd8010 	pop	{r4, pc}
    93b0:	20215040 	eorcs	r5, r1, r0, asr #32

000093b4 <uart_has_data>:
    93b4:	e92d4010 	push	{r4, lr}
    93b8:	eb000205 	bl	9bd4 <dev_barrier>
    93bc:	ebffffd6 	bl	931c <uart_can_getc>
    93c0:	e8bd8010 	pop	{r4, pc}

000093c4 <uart_tx_is_empty>:
    93c4:	e92d4010 	push	{r4, lr}
    93c8:	eb000201 	bl	9bd4 <dev_barrier>
    93cc:	e59f000c 	ldr	r0, [pc, #12]	; 93e0 <uart_tx_is_empty+0x1c>
    93d0:	ebfffb15 	bl	802c <GET32>
    93d4:	e1a004a0 	lsr	r0, r0, #9
    93d8:	e2000001 	and	r0, r0, #1
    93dc:	e8bd8010 	pop	{r4, pc}
    93e0:	20215064 	eorcs	r5, r1, r4, rrx

000093e4 <uart_flush_tx>:
    93e4:	e92d4010 	push	{r4, lr}
    93e8:	ebfffff5 	bl	93c4 <uart_tx_is_empty>
    93ec:	e3500000 	cmp	r0, #0
    93f0:	0afffffc 	beq	93e8 <uart_flush_tx+0x4>
    93f4:	e8bd8010 	pop	{r4, pc}

000093f8 <uart_disable>:
    93f8:	e92d4010 	push	{r4, lr}
    93fc:	ebfffff8 	bl	93e4 <uart_flush_tx>
    9400:	eb0001f3 	bl	9bd4 <dev_barrier>
    9404:	e3e01001 	mvn	r1, #1
    9408:	e59f0008 	ldr	r0, [pc, #8]	; 9418 <uart_disable+0x20>
    940c:	ebffff86 	bl	922c <and_in32>
    9410:	eb0001ef 	bl	9bd4 <dev_barrier>
    9414:	e8bd8010 	pop	{r4, pc}
    9418:	20215004 	eorcs	r5, r1, r4

0000941c <isdigit>:
    941c:	e2400030 	sub	r0, r0, #48	; 0x30
    9420:	e3500009 	cmp	r0, #9
    9424:	83a00000 	movhi	r0, #0
    9428:	93a00001 	movls	r0, #1
    942c:	e12fff1e 	bx	lr

00009430 <pad>:
    9430:	e0401001 	sub	r1, r0, r1
    9434:	ea000002 	b	9444 <pad+0x14>
    9438:	e3a03020 	mov	r3, #32
    943c:	e4c03001 	strb	r3, [r0], #1
    9440:	e2811001 	add	r1, r1, #1
    9444:	e1510002 	cmp	r1, r2
    9448:	bafffffa 	blt	9438 <pad+0x8>
    944c:	e3a03000 	mov	r3, #0
    9450:	e5c03000 	strb	r3, [r0]
    9454:	e12fff1e 	bx	lr

00009458 <reverse>:
    9458:	e042c003 	sub	ip, r2, r3
    945c:	e28cc001 	add	ip, ip, #1
    9460:	e15c0001 	cmp	ip, r1
    9464:	c04cc001 	subgt	ip, ip, r1
    9468:	c083300c 	addgt	r3, r3, ip
    946c:	e2421001 	sub	r1, r2, #1
    9470:	e1a02000 	mov	r2, r0
    9474:	ea000001 	b	9480 <reverse+0x28>
    9478:	e451c001 	ldrb	ip, [r1], #-1
    947c:	e4c2c001 	strb	ip, [r2], #1
    9480:	e1510003 	cmp	r1, r3
    9484:	2afffffb 	bcs	9478 <reverse+0x20>
    9488:	e3a03000 	mov	r3, #0
    948c:	e5c23000 	strb	r3, [r2]
    9490:	e12fff1e 	bx	lr

00009494 <emit>:
    9494:	e92d40f0 	push	{r4, r5, r6, r7, lr}
    9498:	e24dd04c 	sub	sp, sp, #76	; 0x4c
    949c:	e1a05001 	mov	r5, r1
    94a0:	e1a04002 	mov	r4, r2
    94a4:	e59d2060 	ldr	r2, [sp, #96]	; 0x60
    94a8:	e1520004 	cmp	r2, r4
    94ac:	c2442001 	subgt	r2, r4, #1
    94b0:	e1a0c003 	mov	ip, r3
    94b4:	e2400002 	sub	r0, r0, #2
    94b8:	e350000e 	cmp	r0, #14
    94bc:	979ff100 	ldrls	pc, [pc, r0, lsl #2]
    94c0:	ea000050 	b	9608 <emit+0x174>
    94c4:	000095e0 	andeq	r9, r0, r0, ror #11
    94c8:	00009608 	andeq	r9, r0, r8, lsl #12
    94cc:	00009608 	andeq	r9, r0, r8, lsl #12
    94d0:	00009608 	andeq	r9, r0, r8, lsl #12
    94d4:	00009608 	andeq	r9, r0, r8, lsl #12
    94d8:	00009608 	andeq	r9, r0, r8, lsl #12
    94dc:	000095d4 	ldrdeq	r9, [r0], -r4
    94e0:	00009608 	andeq	r9, r0, r8, lsl #12
    94e4:	00009500 	andeq	r9, r0, r0, lsl #10
    94e8:	00009608 	andeq	r9, r0, r8, lsl #12
    94ec:	00009608 	andeq	r9, r0, r8, lsl #12
    94f0:	00009608 	andeq	r9, r0, r8, lsl #12
    94f4:	00009608 	andeq	r9, r0, r8, lsl #12
    94f8:	00009608 	andeq	r9, r0, r8, lsl #12
    94fc:	00009578 	andeq	r9, r0, r8, ror r5
    9500:	e59d1064 	ldr	r1, [sp, #100]	; 0x64
    9504:	e2511000 	subs	r1, r1, #0
    9508:	13a01001 	movne	r1, #1
    950c:	e0111fa3 	ands	r1, r1, r3, lsr #31
    9510:	0a000016 	beq	9570 <emit+0xdc>
    9514:	e263c000 	rsb	ip, r3, #0
    9518:	e3a06001 	mov	r6, #1
    951c:	e28d0008 	add	r0, sp, #8
    9520:	e59f3100 	ldr	r3, [pc, #256]	; 9628 <emit+0x194>
    9524:	e0831c93 	umull	r1, r3, r3, ip
    9528:	e1a031a3 	lsr	r3, r3, #3
    952c:	e1a0e003 	mov	lr, r3
    9530:	e0833103 	add	r3, r3, r3, lsl #2
    9534:	e04c3083 	sub	r3, ip, r3, lsl #1
    9538:	e1a01000 	mov	r1, r0
    953c:	e2800001 	add	r0, r0, #1
    9540:	e59f70e4 	ldr	r7, [pc, #228]	; 962c <emit+0x198>
    9544:	e7d73003 	ldrb	r3, [r7, r3]
    9548:	e5c13000 	strb	r3, [r1]
    954c:	e1a0300c 	mov	r3, ip
    9550:	e1a0c00e 	mov	ip, lr
    9554:	e3530009 	cmp	r3, #9
    9558:	8afffff0 	bhi	9520 <emit+0x8c>
    955c:	e3560000 	cmp	r6, #0
    9560:	13a0302d 	movne	r3, #45	; 0x2d
    9564:	15c03000 	strbne	r3, [r0]
    9568:	12810002 	addne	r0, r1, #2
    956c:	ea00000f 	b	95b0 <emit+0x11c>
    9570:	e3a06000 	mov	r6, #0
    9574:	eaffffe8 	b	951c <emit+0x88>
    9578:	e28d1008 	add	r1, sp, #8
    957c:	e20c000f 	and	r0, ip, #15
    9580:	e59fe0a8 	ldr	lr, [pc, #168]	; 9630 <emit+0x19c>
    9584:	e7de0000 	ldrb	r0, [lr, r0]
    9588:	e5c10000 	strb	r0, [r1]
    958c:	e2811001 	add	r1, r1, #1
    9590:	e35c000f 	cmp	ip, #15
    9594:	e1a0c22c 	lsr	ip, ip, #4
    9598:	8afffff7 	bhi	957c <emit+0xe8>
    959c:	e1a00001 	mov	r0, r1
    95a0:	e3a03078 	mov	r3, #120	; 0x78
    95a4:	e4c03002 	strb	r3, [r0], #2
    95a8:	e3a03030 	mov	r3, #48	; 0x30
    95ac:	e5c13001 	strb	r3, [r1, #1]
    95b0:	e28d1008 	add	r1, sp, #8
    95b4:	ebffff9d 	bl	9430 <pad>
    95b8:	e1a02000 	mov	r2, r0
    95bc:	e28d3008 	add	r3, sp, #8
    95c0:	e1a01004 	mov	r1, r4
    95c4:	e1a00005 	mov	r0, r5
    95c8:	ebffffa2 	bl	9458 <reverse>
    95cc:	e28dd04c 	add	sp, sp, #76	; 0x4c
    95d0:	e8bd80f0 	pop	{r4, r5, r6, r7, pc}
    95d4:	e5cd3008 	strb	r3, [sp, #8]
    95d8:	e28d0009 	add	r0, sp, #9
    95dc:	eafffff3 	b	95b0 <emit+0x11c>
    95e0:	e28d0008 	add	r0, sp, #8
    95e4:	e20c1001 	and	r1, ip, #1
    95e8:	e59fe044 	ldr	lr, [pc, #68]	; 9634 <emit+0x1a0>
    95ec:	e7de1001 	ldrb	r1, [lr, r1]
    95f0:	e5c01000 	strb	r1, [r0]
    95f4:	e2800001 	add	r0, r0, #1
    95f8:	e35c0001 	cmp	ip, #1
    95fc:	e1a0c0ac 	lsr	ip, ip, #1
    9600:	8afffff7 	bhi	95e4 <emit+0x150>
    9604:	eaffffe9 	b	95b0 <emit+0x11c>
    9608:	e59f3028 	ldr	r3, [pc, #40]	; 9638 <emit+0x1a4>
    960c:	e58d3000 	str	r3, [sp]
    9610:	e3a03079 	mov	r3, #121	; 0x79
    9614:	e59f2020 	ldr	r2, [pc, #32]	; 963c <emit+0x1a8>
    9618:	e59f1020 	ldr	r1, [pc, #32]	; 9640 <emit+0x1ac>
    961c:	e59f0020 	ldr	r0, [pc, #32]	; 9644 <emit+0x1b0>
    9620:	ebfffdf1 	bl	8dec <printk>
    9624:	ebfffed4 	bl	917c <clean_reboot>
    9628:	cccccccd 	stclgt	12, cr12, [ip], {205}	; 0xcd
    962c:	0000a55c 	andeq	sl, r0, ip, asr r5
    9630:	0000a568 	andeq	sl, r0, r8, ror #10
    9634:	0000a57c 	andeq	sl, r0, ip, ror r5
    9638:	0000a558 	andeq	sl, r0, r8, asr r5
    963c:	0000a678 	andeq	sl, r0, r8, ror r6
    9640:	0000a544 	andeq	sl, r0, r4, asr #10
    9644:	00009d18 	andeq	r9, r0, r8, lsl sp

00009648 <rpi_set_output>:
    9648:	e3500000 	cmp	r0, #0
    964c:	0a000006 	beq	966c <rpi_set_output+0x24>
    9650:	e59f303c 	ldr	r3, [pc, #60]	; 9694 <rpi_set_output+0x4c>
    9654:	e5830000 	str	r0, [r3]
    9658:	e3510000 	cmp	r1, #0
    965c:	012fff1e 	bxeq	lr
    9660:	e59f3030 	ldr	r3, [pc, #48]	; 9698 <rpi_set_output+0x50>
    9664:	e5831000 	str	r1, [r3]
    9668:	e12fff1e 	bx	lr
    966c:	e52de004 	push	{lr}		; (str lr, [sp, #-4]!)
    9670:	e24dd00c 	sub	sp, sp, #12
    9674:	e59f3020 	ldr	r3, [pc, #32]	; 969c <rpi_set_output+0x54>
    9678:	e58d3000 	str	r3, [sp]
    967c:	e3a03020 	mov	r3, #32
    9680:	e59f2018 	ldr	r2, [pc, #24]	; 96a0 <rpi_set_output+0x58>
    9684:	e59f1018 	ldr	r1, [pc, #24]	; 96a4 <rpi_set_output+0x5c>
    9688:	e59f0018 	ldr	r0, [pc, #24]	; 96a8 <rpi_set_output+0x60>
    968c:	ebfffdd6 	bl	8dec <printk>
    9690:	ebfffeb9 	bl	917c <clean_reboot>
    9694:	0000a728 	andeq	sl, r0, r8, lsr #14
    9698:	0000a724 	andeq	sl, r0, r4, lsr #14
    969c:	0000a580 	andeq	sl, r0, r0, lsl #11
    96a0:	0000a680 	andeq	sl, r0, r0, lsl #13
    96a4:	0000a544 	andeq	sl, r0, r4, asr #10
    96a8:	00009d18 	andeq	r9, r0, r8, lsl sp

000096ac <va_printk>:
    96ac:	e92d4ff0 	push	{r4, r5, r6, r7, r8, r9, sl, fp, lr}
    96b0:	e24ddf45 	sub	sp, sp, #276	; 0x114
    96b4:	e1a09000 	mov	r9, r0
    96b8:	e58d2008 	str	r2, [sp, #8]
    96bc:	e58d300c 	str	r3, [sp, #12]
    96c0:	e2411001 	sub	r1, r1, #1
    96c4:	e0808001 	add	r8, r0, r1
    96c8:	e3a03000 	mov	r3, #0
    96cc:	e5c03000 	strb	r3, [r0]
    96d0:	e1a04000 	mov	r4, r0
    96d4:	e1a06002 	mov	r6, r2
    96d8:	ea000004 	b	96f0 <va_printk+0x44>
    96dc:	e5d62001 	ldrb	r2, [r6, #1]
    96e0:	e3520025 	cmp	r2, #37	; 0x25
    96e4:	1a00000b 	bne	9718 <va_printk+0x6c>
    96e8:	e4c43001 	strb	r3, [r4], #1
    96ec:	e2866002 	add	r6, r6, #2
    96f0:	e5d63000 	ldrb	r3, [r6]
    96f4:	e3530000 	cmp	r3, #0
    96f8:	0a0000ff 	beq	9afc <va_printk+0x450>
    96fc:	e1540008 	cmp	r4, r8
    9700:	2a0000fd 	bcs	9afc <va_printk+0x450>
    9704:	e3530025 	cmp	r3, #37	; 0x25
    9708:	0afffff3 	beq	96dc <va_printk+0x30>
    970c:	e2866001 	add	r6, r6, #1
    9710:	e4c43001 	strb	r3, [r4], #1
    9714:	eafffff5 	b	96f0 <va_printk+0x44>
    9718:	e2866001 	add	r6, r6, #1
    971c:	e3a05000 	mov	r5, #0
    9720:	ea000003 	b	9734 <va_printk+0x88>
    9724:	e0855105 	add	r5, r5, r5, lsl #2
    9728:	e0875085 	add	r5, r7, r5, lsl #1
    972c:	e2455030 	sub	r5, r5, #48	; 0x30
    9730:	e2866001 	add	r6, r6, #1
    9734:	e5d67000 	ldrb	r7, [r6]
    9738:	e1a00007 	mov	r0, r7
    973c:	ebffff36 	bl	941c <isdigit>
    9740:	e3500000 	cmp	r0, #0
    9744:	1afffff6 	bne	9724 <va_printk+0x78>
    9748:	e355001f 	cmp	r5, #31
    974c:	8a00001a 	bhi	97bc <va_printk+0x110>
    9750:	e2473062 	sub	r3, r7, #98	; 0x62
    9754:	e3530016 	cmp	r3, #22
    9758:	979ff103 	ldrls	pc, [pc, r3, lsl #2]
    975c:	ea0000ce 	b	9a9c <va_printk+0x3f0>
    9760:	00009a20 	andeq	r9, r0, r0, lsr #20
    9764:	00009a68 	andeq	r9, r0, r8, ror #20
    9768:	00009980 	andeq	r9, r0, r0, lsl #19
    976c:	00009a9c 	muleq	r0, ip, sl
    9770:	00009968 	andeq	r9, r0, r8, ror #18
    9774:	00009a9c 	muleq	r0, ip, sl
    9778:	00009a9c 	muleq	r0, ip, sl
    977c:	00009a9c 	muleq	r0, ip, sl
    9780:	00009a9c 	muleq	r0, ip, sl
    9784:	00009a9c 	muleq	r0, ip, sl
    9788:	000097dc 	ldrdeq	r9, [r0], -ip
    978c:	00009a9c 	muleq	r0, ip, sl
    9790:	00009a9c 	muleq	r0, ip, sl
    9794:	00009a9c 	muleq	r0, ip, sl
    9798:	000099ec 	andeq	r9, r0, ip, ror #19
    979c:	00009a9c 	muleq	r0, ip, sl
    97a0:	00009a9c 	muleq	r0, ip, sl
    97a4:	00009a54 	andeq	r9, r0, r4, asr sl
    97a8:	00009a9c 	muleq	r0, ip, sl
    97ac:	000099b8 			; <UNDEFINED> instruction: 0x000099b8
    97b0:	00009a9c 	muleq	r0, ip, sl
    97b4:	00009a9c 	muleq	r0, ip, sl
    97b8:	000099ec 	andeq	r9, r0, ip, ror #19
    97bc:	e59f334c 	ldr	r3, [pc, #844]	; 9b10 <va_printk+0x464>
    97c0:	e58d3000 	str	r3, [sp]
    97c4:	e3a03098 	mov	r3, #152	; 0x98
    97c8:	e59f2344 	ldr	r2, [pc, #836]	; 9b14 <va_printk+0x468>
    97cc:	e59f1344 	ldr	r1, [pc, #836]	; 9b18 <va_printk+0x46c>
    97d0:	e59f0344 	ldr	r0, [pc, #836]	; 9b1c <va_printk+0x470>
    97d4:	ebfffd84 	bl	8dec <printk>
    97d8:	ebfffe67 	bl	917c <clean_reboot>
    97dc:	e3a02003 	mov	r2, #3
    97e0:	e59f1338 	ldr	r1, [pc, #824]	; 9b20 <va_printk+0x474>
    97e4:	e1a00006 	mov	r0, r6
    97e8:	eb0000ee 	bl	9ba8 <strncmp>
    97ec:	e3500000 	cmp	r0, #0
    97f0:	0a000005 	beq	980c <va_printk+0x160>
    97f4:	e3a02003 	mov	r2, #3
    97f8:	e59f1324 	ldr	r1, [pc, #804]	; 9b24 <va_printk+0x478>
    97fc:	e1a00006 	mov	r0, r6
    9800:	eb0000e8 	bl	9ba8 <strncmp>
    9804:	e3500000 	cmp	r0, #0
    9808:	1a00002d 	bne	98c4 <va_printk+0x218>
    980c:	e286b002 	add	fp, r6, #2
    9810:	e59d300c 	ldr	r3, [sp, #12]
    9814:	e2833007 	add	r3, r3, #7
    9818:	e3c33007 	bic	r3, r3, #7
    981c:	e2832008 	add	r2, r3, #8
    9820:	e58d200c 	str	r2, [sp, #12]
    9824:	e593a000 	ldr	sl, [r3]
    9828:	e5937004 	ldr	r7, [r3, #4]
    982c:	e3a02003 	mov	r2, #3
    9830:	e59f12e8 	ldr	r1, [pc, #744]	; 9b20 <va_printk+0x474>
    9834:	e1a00006 	mov	r0, r6
    9838:	eb0000da 	bl	9ba8 <strncmp>
    983c:	e3500000 	cmp	r0, #0
    9840:	0a000027 	beq	98e4 <va_printk+0x238>
    9844:	e3a02003 	mov	r2, #3
    9848:	e59f12d4 	ldr	r1, [pc, #724]	; 9b24 <va_printk+0x478>
    984c:	e1a00006 	mov	r0, r6
    9850:	eb0000d4 	bl	9ba8 <strncmp>
    9854:	e3500000 	cmp	r0, #0
    9858:	1a00003b 	bne	994c <va_printk+0x2a0>
    985c:	e3a06000 	mov	r6, #0
    9860:	e58d6004 	str	r6, [sp, #4]
    9864:	e58d5000 	str	r5, [sp]
    9868:	e1a03007 	mov	r3, r7
    986c:	e3a02080 	mov	r2, #128	; 0x80
    9870:	e28d1010 	add	r1, sp, #16
    9874:	e3a0000a 	mov	r0, #10
    9878:	ebffff05 	bl	9494 <emit>
    987c:	e1a07000 	mov	r7, r0
    9880:	e58d6004 	str	r6, [sp, #4]
    9884:	e58d5000 	str	r5, [sp]
    9888:	e1a0300a 	mov	r3, sl
    988c:	e3a02080 	mov	r2, #128	; 0x80
    9890:	e28d1090 	add	r1, sp, #144	; 0x90
    9894:	e3a0000a 	mov	r0, #10
    9898:	ebfffefd 	bl	9494 <emit>
    989c:	e59f1284 	ldr	r1, [pc, #644]	; 9b28 <va_printk+0x47c>
    98a0:	e28d0010 	add	r0, sp, #16
    98a4:	eb0000a6 	bl	9b44 <strcmp>
    98a8:	e1500006 	cmp	r0, r6
    98ac:	1a000021 	bne	9938 <va_printk+0x28c>
    98b0:	e28d1090 	add	r1, sp, #144	; 0x90
    98b4:	e28d0010 	add	r0, sp, #16
    98b8:	ebfffd69 	bl	8e64 <strcpy>
    98bc:	e1a0600b 	mov	r6, fp
    98c0:	ea00003a 	b	99b0 <va_printk+0x304>
    98c4:	e59f3260 	ldr	r3, [pc, #608]	; 9b2c <va_printk+0x480>
    98c8:	e58d3000 	str	r3, [sp]
    98cc:	e3a0309f 	mov	r3, #159	; 0x9f
    98d0:	e59f223c 	ldr	r2, [pc, #572]	; 9b14 <va_printk+0x468>
    98d4:	e59f123c 	ldr	r1, [pc, #572]	; 9b18 <va_printk+0x46c>
    98d8:	e59f023c 	ldr	r0, [pc, #572]	; 9b1c <va_printk+0x470>
    98dc:	ebfffd42 	bl	8dec <printk>
    98e0:	ebfffe25 	bl	917c <clean_reboot>
    98e4:	e3a06000 	mov	r6, #0
    98e8:	e58d6004 	str	r6, [sp, #4]
    98ec:	e58d5000 	str	r5, [sp]
    98f0:	e1a03007 	mov	r3, r7
    98f4:	e3a02080 	mov	r2, #128	; 0x80
    98f8:	e28d1010 	add	r1, sp, #16
    98fc:	e3a00010 	mov	r0, #16
    9900:	ebfffee3 	bl	9494 <emit>
    9904:	e1a07000 	mov	r7, r0
    9908:	e58d6004 	str	r6, [sp, #4]
    990c:	e58d5000 	str	r5, [sp]
    9910:	e1a0300a 	mov	r3, sl
    9914:	e3a02080 	mov	r2, #128	; 0x80
    9918:	e28d1090 	add	r1, sp, #144	; 0x90
    991c:	e3a00010 	mov	r0, #16
    9920:	ebfffedb 	bl	9494 <emit>
    9924:	e28d1092 	add	r1, sp, #146	; 0x92
    9928:	e28d0010 	add	r0, sp, #16
    992c:	eb000090 	bl	9b74 <strcat>
    9930:	e1a0600b 	mov	r6, fp
    9934:	ea00001d 	b	99b0 <va_printk+0x304>
    9938:	e28d1090 	add	r1, sp, #144	; 0x90
    993c:	e28d0010 	add	r0, sp, #16
    9940:	eb00008b 	bl	9b74 <strcat>
    9944:	e1a0600b 	mov	r6, fp
    9948:	ea000018 	b	99b0 <va_printk+0x304>
    994c:	e58d6000 	str	r6, [sp]
    9950:	e3a030b6 	mov	r3, #182	; 0xb6
    9954:	e59f21b8 	ldr	r2, [pc, #440]	; 9b14 <va_printk+0x468>
    9958:	e59f11b8 	ldr	r1, [pc, #440]	; 9b18 <va_printk+0x46c>
    995c:	e59f01cc 	ldr	r0, [pc, #460]	; 9b30 <va_printk+0x484>
    9960:	ebfffd21 	bl	8dec <printk>
    9964:	ebfffe04 	bl	917c <clean_reboot>
    9968:	e3a030be 	mov	r3, #190	; 0xbe
    996c:	e59f21a0 	ldr	r2, [pc, #416]	; 9b14 <va_printk+0x468>
    9970:	e59f11a0 	ldr	r1, [pc, #416]	; 9b18 <va_printk+0x46c>
    9974:	e59f01b8 	ldr	r0, [pc, #440]	; 9b34 <va_printk+0x488>
    9978:	ebfffd1b 	bl	8dec <printk>
    997c:	ebfffdfe 	bl	917c <clean_reboot>
    9980:	e59d300c 	ldr	r3, [sp, #12]
    9984:	e2832004 	add	r2, r3, #4
    9988:	e58d200c 	str	r2, [sp, #12]
    998c:	e5933000 	ldr	r3, [r3]
    9990:	e3a02001 	mov	r2, #1
    9994:	e58d2004 	str	r2, [sp, #4]
    9998:	e58d5000 	str	r5, [sp]
    999c:	e3a02080 	mov	r2, #128	; 0x80
    99a0:	e28d1010 	add	r1, sp, #16
    99a4:	e3a0000a 	mov	r0, #10
    99a8:	ebfffeb9 	bl	9494 <emit>
    99ac:	e1a07000 	mov	r7, r0
    99b0:	e2866001 	add	r6, r6, #1
    99b4:	ea00004a 	b	9ae4 <va_printk+0x438>
    99b8:	e59d300c 	ldr	r3, [sp, #12]
    99bc:	e2832004 	add	r2, r3, #4
    99c0:	e58d200c 	str	r2, [sp, #12]
    99c4:	e5933000 	ldr	r3, [r3]
    99c8:	e3a02000 	mov	r2, #0
    99cc:	e58d2004 	str	r2, [sp, #4]
    99d0:	e58d5000 	str	r5, [sp]
    99d4:	e3a02080 	mov	r2, #128	; 0x80
    99d8:	e28d1010 	add	r1, sp, #16
    99dc:	e3a0000a 	mov	r0, #10
    99e0:	ebfffeab 	bl	9494 <emit>
    99e4:	e1a07000 	mov	r7, r0
    99e8:	eafffff0 	b	99b0 <va_printk+0x304>
    99ec:	e59d300c 	ldr	r3, [sp, #12]
    99f0:	e2832004 	add	r2, r3, #4
    99f4:	e58d200c 	str	r2, [sp, #12]
    99f8:	e5933000 	ldr	r3, [r3]
    99fc:	e3a02000 	mov	r2, #0
    9a00:	e58d2004 	str	r2, [sp, #4]
    9a04:	e58d5000 	str	r5, [sp]
    9a08:	e3a02080 	mov	r2, #128	; 0x80
    9a0c:	e28d1010 	add	r1, sp, #16
    9a10:	e3a00010 	mov	r0, #16
    9a14:	ebfffe9e 	bl	9494 <emit>
    9a18:	e1a07000 	mov	r7, r0
    9a1c:	eaffffe3 	b	99b0 <va_printk+0x304>
    9a20:	e59d300c 	ldr	r3, [sp, #12]
    9a24:	e2832004 	add	r2, r3, #4
    9a28:	e58d200c 	str	r2, [sp, #12]
    9a2c:	e5933000 	ldr	r3, [r3]
    9a30:	e3a02000 	mov	r2, #0
    9a34:	e58d2004 	str	r2, [sp, #4]
    9a38:	e58d5000 	str	r5, [sp]
    9a3c:	e3a02080 	mov	r2, #128	; 0x80
    9a40:	e28d1010 	add	r1, sp, #16
    9a44:	e3a00002 	mov	r0, #2
    9a48:	ebfffe91 	bl	9494 <emit>
    9a4c:	e1a07000 	mov	r7, r0
    9a50:	eaffffd6 	b	99b0 <va_printk+0x304>
    9a54:	e59d300c 	ldr	r3, [sp, #12]
    9a58:	e2832004 	add	r2, r3, #4
    9a5c:	e58d200c 	str	r2, [sp, #12]
    9a60:	e5937000 	ldr	r7, [r3]
    9a64:	eaffffd1 	b	99b0 <va_printk+0x304>
    9a68:	e59d300c 	ldr	r3, [sp, #12]
    9a6c:	e2832004 	add	r2, r3, #4
    9a70:	e58d200c 	str	r2, [sp, #12]
    9a74:	e5933000 	ldr	r3, [r3]
    9a78:	e3a02000 	mov	r2, #0
    9a7c:	e58d2004 	str	r2, [sp, #4]
    9a80:	e58d5000 	str	r5, [sp]
    9a84:	e3a02080 	mov	r2, #128	; 0x80
    9a88:	e28d1010 	add	r1, sp, #16
    9a8c:	e3a00008 	mov	r0, #8
    9a90:	ebfffe7f 	bl	9494 <emit>
    9a94:	e1a07000 	mov	r7, r0
    9a98:	eaffffc4 	b	99b0 <va_printk+0x304>
    9a9c:	e3a03000 	mov	r3, #0
    9aa0:	e5c63001 	strb	r3, [r6, #1]
    9aa4:	e1a02007 	mov	r2, r7
    9aa8:	e1a01007 	mov	r1, r7
    9aac:	e59f0084 	ldr	r0, [pc, #132]	; 9b38 <va_printk+0x48c>
    9ab0:	ebfffccd 	bl	8dec <printk>
    9ab4:	e59f3080 	ldr	r3, [pc, #128]	; 9b3c <va_printk+0x490>
    9ab8:	e5933000 	ldr	r3, [r3]
    9abc:	e59d0008 	ldr	r0, [sp, #8]
    9ac0:	e12fff33 	blx	r3
    9ac4:	e3a030e2 	mov	r3, #226	; 0xe2
    9ac8:	e59f2044 	ldr	r2, [pc, #68]	; 9b14 <va_printk+0x468>
    9acc:	e59f1044 	ldr	r1, [pc, #68]	; 9b18 <va_printk+0x46c>
    9ad0:	e59f0068 	ldr	r0, [pc, #104]	; 9b40 <va_printk+0x494>
    9ad4:	ebfffcc4 	bl	8dec <printk>
    9ad8:	ebfffda7 	bl	917c <clean_reboot>
    9adc:	e2877001 	add	r7, r7, #1
    9ae0:	e4c43001 	strb	r3, [r4], #1
    9ae4:	e1540008 	cmp	r4, r8
    9ae8:	2affff00 	bcs	96f0 <va_printk+0x44>
    9aec:	e5d73000 	ldrb	r3, [r7]
    9af0:	e3530000 	cmp	r3, #0
    9af4:	1afffff8 	bne	9adc <va_printk+0x430>
    9af8:	eafffefc 	b	96f0 <va_printk+0x44>
    9afc:	e3a03000 	mov	r3, #0
    9b00:	e4c43001 	strb	r3, [r4], #1
    9b04:	e0440009 	sub	r0, r4, r9
    9b08:	e28ddf45 	add	sp, sp, #276	; 0x114
    9b0c:	e8bd8ff0 	pop	{r4, r5, r6, r7, r8, r9, sl, fp, pc}
    9b10:	0000a588 	andeq	sl, r0, r8, lsl #11
    9b14:	0000a690 	muleq	r0, r0, r6
    9b18:	0000a544 	andeq	sl, r0, r4, asr #10
    9b1c:	00009d18 	andeq	r9, r0, r8, lsl sp
    9b20:	0000a594 	muleq	r0, r4, r5
    9b24:	0000a598 	muleq	r0, r8, r5
    9b28:	0000a558 	andeq	sl, r0, r8, asr r5
    9b2c:	0000a59c 	muleq	r0, ip, r5
    9b30:	0000a5d8 	ldrdeq	sl, [r0], -r8
    9b34:	0000a600 	andeq	sl, r0, r0, lsl #12
    9b38:	0000a628 	andeq	sl, r0, r8, lsr #12
    9b3c:	0000a724 	andeq	sl, r0, r4, lsr #14
    9b40:	0000a658 	andeq	sl, r0, r8, asr r6

00009b44 <strcmp>:
    9b44:	ea000001 	b	9b50 <strcmp+0xc>
    9b48:	e2800001 	add	r0, r0, #1
    9b4c:	e2811001 	add	r1, r1, #1
    9b50:	e5d03000 	ldrb	r3, [r0]
    9b54:	e3530000 	cmp	r3, #0
    9b58:	0a000002 	beq	9b68 <strcmp+0x24>
    9b5c:	e5d12000 	ldrb	r2, [r1]
    9b60:	e1530002 	cmp	r3, r2
    9b64:	0afffff7 	beq	9b48 <strcmp+0x4>
    9b68:	e5d10000 	ldrb	r0, [r1]
    9b6c:	e0430000 	sub	r0, r3, r0
    9b70:	e12fff1e 	bx	lr

00009b74 <strcat>:
    9b74:	e1a02000 	mov	r2, r0
    9b78:	e1a03002 	mov	r3, r2
    9b7c:	e2822001 	add	r2, r2, #1
    9b80:	e5d3c000 	ldrb	ip, [r3]
    9b84:	e35c0000 	cmp	ip, #0
    9b88:	1afffffa 	bne	9b78 <strcat+0x4>
    9b8c:	e2433001 	sub	r3, r3, #1
    9b90:	e5d12000 	ldrb	r2, [r1]
    9b94:	e2811001 	add	r1, r1, #1
    9b98:	e5e32001 	strb	r2, [r3, #1]!
    9b9c:	e3520000 	cmp	r2, #0
    9ba0:	1afffffa 	bne	9b90 <strcat+0x1c>
    9ba4:	e12fff1e 	bx	lr

00009ba8 <strncmp>:
    9ba8:	e3520000 	cmp	r2, #0
    9bac:	e2422001 	sub	r2, r2, #1
    9bb0:	0a000005 	beq	9bcc <strncmp+0x24>
    9bb4:	e4d03001 	ldrb	r3, [r0], #1
    9bb8:	e4d1c001 	ldrb	ip, [r1], #1
    9bbc:	e153000c 	cmp	r3, ip
    9bc0:	0afffff8 	beq	9ba8 <strncmp>
    9bc4:	e043000c 	sub	r0, r3, ip
    9bc8:	e12fff1e 	bx	lr
    9bcc:	e3a00000 	mov	r0, #0
    9bd0:	e12fff1e 	bx	lr

00009bd4 <dev_barrier>:
    9bd4:	ea000002 	b	9be4 <dsb>

00009bd8 <dmb>:
    9bd8:	e3a00000 	mov	r0, #0
    9bdc:	ee070fba 	mcr	15, 0, r0, cr7, cr10, {5}
    9be0:	e12fff1e 	bx	lr

00009be4 <dsb>:
    9be4:	ee070f9a 	mcr	15, 0, r0, cr7, cr10, {4}
    9be8:	e12fff1e 	bx	lr

00009bec <gpio_set_function>:
    9bec:	e350001f 	cmp	r0, #31
    9bf0:	812fff1e 	bxhi	lr
    9bf4:	e92d4070 	push	{r4, r5, r6, lr}
    9bf8:	e1a05001 	mov	r5, r1
    9bfc:	e3d13007 	bics	r3, r1, #7
    9c00:	18bd8070 	popne	{r4, r5, r6, pc}
    9c04:	e59f3040 	ldr	r3, [pc, #64]	; 9c4c <gpio_set_function+0x60>
    9c08:	e0832093 	umull	r2, r3, r3, r0
    9c0c:	e1a031a3 	lsr	r3, r3, #3
    9c10:	e1a02003 	mov	r2, r3
    9c14:	e0833103 	add	r3, r3, r3, lsl #2
    9c18:	e0403083 	sub	r3, r0, r3, lsl #1
    9c1c:	e0834083 	add	r4, r3, r3, lsl #1
    9c20:	e2820302 	add	r0, r2, #134217728	; 0x8000000
    9c24:	e2800702 	add	r0, r0, #524288	; 0x80000
    9c28:	e1a06100 	lsl	r6, r0, #2
    9c2c:	e1a00006 	mov	r0, r6
    9c30:	ebfff8fd 	bl	802c <GET32>
    9c34:	e3a01007 	mov	r1, #7
    9c38:	e1c01411 	bic	r1, r0, r1, lsl r4
    9c3c:	e1811415 	orr	r1, r1, r5, lsl r4
    9c40:	e1a00006 	mov	r0, r6
    9c44:	ebfff8f6 	bl	8024 <PUT32>
    9c48:	e8bd8070 	pop	{r4, r5, r6, pc}
    9c4c:	cccccccd 	stclgt	12, cr12, [ip], {205}	; 0xcd

00009c50 <gpio_set_output>:
    9c50:	e92d4010 	push	{r4, lr}
    9c54:	e3a01001 	mov	r1, #1
    9c58:	ebffffe3 	bl	9bec <gpio_set_function>
    9c5c:	e8bd8010 	pop	{r4, pc}

00009c60 <gpio_set_on>:
    9c60:	e350001f 	cmp	r0, #31
    9c64:	812fff1e 	bxhi	lr
    9c68:	e92d4010 	push	{r4, lr}
    9c6c:	e3a01001 	mov	r1, #1
    9c70:	e1a01011 	lsl	r1, r1, r0
    9c74:	e59f0004 	ldr	r0, [pc, #4]	; 9c80 <gpio_set_on+0x20>
    9c78:	ebfff8e9 	bl	8024 <PUT32>
    9c7c:	e8bd8010 	pop	{r4, pc}
    9c80:	2020001c 	eorcs	r0, r0, ip, lsl r0

00009c84 <gpio_set_off>:
    9c84:	e350001f 	cmp	r0, #31
    9c88:	812fff1e 	bxhi	lr
    9c8c:	e92d4010 	push	{r4, lr}
    9c90:	e3a01001 	mov	r1, #1
    9c94:	e1a01011 	lsl	r1, r1, r0
    9c98:	e59f0004 	ldr	r0, [pc, #4]	; 9ca4 <gpio_set_off+0x20>
    9c9c:	ebfff8e0 	bl	8024 <PUT32>
    9ca0:	e8bd8010 	pop	{r4, pc}
    9ca4:	20200028 	eorcs	r0, r0, r8, lsr #32

00009ca8 <gpio_set_input>:
    9ca8:	e92d4010 	push	{r4, lr}
    9cac:	e3a01000 	mov	r1, #0
    9cb0:	ebffffcd 	bl	9bec <gpio_set_function>
    9cb4:	e8bd8010 	pop	{r4, pc}

00009cb8 <gpio_write>:
    9cb8:	e92d4010 	push	{r4, lr}
    9cbc:	e3510000 	cmp	r1, #0
    9cc0:	0a000001 	beq	9ccc <gpio_write+0x14>
    9cc4:	ebffffe5 	bl	9c60 <gpio_set_on>
    9cc8:	e8bd8010 	pop	{r4, pc}
    9ccc:	ebffffec 	bl	9c84 <gpio_set_off>
    9cd0:	e8bd8010 	pop	{r4, pc}

00009cd4 <gpio_read>:
    9cd4:	e350001f 	cmp	r0, #31
    9cd8:	8a000007 	bhi	9cfc <gpio_read+0x28>
    9cdc:	e92d4010 	push	{r4, lr}
    9ce0:	e200401f 	and	r4, r0, #31
    9ce4:	e59f3018 	ldr	r3, [pc, #24]	; 9d04 <gpio_read+0x30>
    9ce8:	e08302a0 	add	r0, r3, r0, lsr #5
    9cec:	ebfff8ce 	bl	802c <GET32>
    9cf0:	e1a00430 	lsr	r0, r0, r4
    9cf4:	e2000001 	and	r0, r0, #1
    9cf8:	e8bd8010 	pop	{r4, pc}
    9cfc:	e3e00000 	mvn	r0, #0
    9d00:	e12fff1e 	bx	lr
    9d04:	20200034 	eorcs	r0, r0, r4, lsr r0

Disassembly of section .rodata:

00009d08 <__FUNCTION__.2-0x194>:
    9d08:	74636576 	strbtvc	r6, [r3], #-1398	; 0xfffffa8a
    9d0c:	622d726f 	eorvs	r7, sp, #-268435450	; 0xf0000006
    9d10:	2e657361 	cdpcs	3, 6, cr7, cr5, cr1, {3}
    9d14:	00000068 	andeq	r0, r0, r8, rrx
    9d18:	494e4150 	stmdbmi	lr, {r4, r6, r8, lr}^
    9d1c:	73253a43 			; <UNDEFINED> instruction: 0x73253a43
    9d20:	3a73253a 	bcc	1cd3210 <__bss_end__+0x1cc86b8>
    9d24:	253a6425 	ldrcs	r6, [sl, #-1061]!	; 0xfffffbdb
    9d28:	00000a73 	andeq	r0, r0, r3, ror sl
    9d2c:	74636576 	strbtvc	r6, [r3], #-1398	; 0xfffffa8a
    9d30:	625f726f 	subsvs	r7, pc, #-268435450	; 0xf0000006
    9d34:	00657361 	rsbeq	r7, r5, r1, ror #6
    9d38:	494e4150 	stmdbmi	lr, {r4, r6, r8, lr}^
    9d3c:	73253a43 			; <UNDEFINED> instruction: 0x73253a43
    9d40:	3a73253a 	bcc	1cd3230 <__bss_end__+0x1cc86d8>
    9d44:	6c3a6425 	cfldrsvs	mvf6, [sl], #-148	; 0xffffff6c
    9d48:	7265776f 	rsbvc	r7, r5, #29097984	; 0x1bc0000
    9d4c:	62203520 	eorvs	r3, r0, #32, 10	; 0x8000000
    9d50:	20737469 	rsbscs	r7, r3, r9, ror #8
    9d54:	7420666f 	strtvc	r6, [r0], #-1647	; 0xfffff991
    9d58:	76206568 	strtvc	r6, [r0], -r8, ror #10
    9d5c:	6f746365 	svcvs	0x00746365
    9d60:	61622072 	smcvs	8706	; 0x2202
    9d64:	73206573 			; <UNDEFINED> instruction: 0x73206573
    9d68:	6c756f68 	ldclvs	15, cr6, [r5], #-416	; 0xfffffe60
    9d6c:	65622064 	strbvs	r2, [r2, #-100]!	; 0xffffff9c
    9d70:	202c3020 	eorcs	r3, ip, r0, lsr #32
    9d74:	65766168 	ldrbvs	r6, [r6, #-360]!	; 0xfffffe98
    9d78:	7825203a 	stmdavc	r5!, {r1, r3, r4, r5, sp}
    9d7c:	00000a0a 	andeq	r0, r0, sl, lsl #20
    9d80:	74636576 	strbtvc	r6, [r3], #-1398	; 0xfffffa8a
    9d84:	625f726f 	subsvs	r7, pc, #-268435450	; 0xf0000006
    9d88:	5f657361 	svcpl	0x00657361
    9d8c:	28746567 	ldmdacs	r4!, {r0, r1, r2, r5, r6, r8, sl, sp, lr}^
    9d90:	3d3d2029 	ldccc	0, cr2, [sp, #-164]!	; 0xffffff5c
    9d94:	63657620 	cmnvs	r5, #32, 12	; 0x2000000
    9d98:	5f726f74 	svcpl	0x00726f74
    9d9c:	65736162 	ldrbvs	r6, [r3, #-354]!	; 0xfffffe9e
    9da0:	00000000 	andeq	r0, r0, r0
    9da4:	63737973 	cmnvs	r3, #1884160	; 0x1cc000
    9da8:	3d6c6c61 	stclcc	12, cr6, [ip, #-388]!	; 0xfffffe7c
    9dac:	202c6425 	eorcs	r6, ip, r5, lsr #8
    9db0:	253d3061 	ldrcs	r3, [sp, #-97]!	; 0xffffff9f
    9db4:	31612c78 	smccc	4808	; 0x12c8
    9db8:	2c78253d 	cfldr64cs	mvdx2, [r8], #-244	; 0xffffff0c
    9dbc:	253d3261 	ldrcs	r3, [sp, #-609]!	; 0xfffffd9f
    9dc0:	00000a78 	andeq	r0, r0, r8, ror sl
    9dc4:	52455355 	subpl	r5, r5, #1409286145	; 0x54000001
    9dc8:	7825203a 	stmdavc	r5!, {r1, r3, r4, r5, sp}
    9dcc:	0000000a 	andeq	r0, r0, sl
    9dd0:	00007825 	andeq	r7, r0, r5, lsr #16
    9dd4:	52455355 	subpl	r5, r5, #1409286145	; 0x54000001
    9dd8:	6325203a 			; <UNDEFINED> instruction: 0x6325203a
    9ddc:	0000000a 	andeq	r0, r0, sl
    9de0:	00006325 	andeq	r6, r0, r5, lsr #6
    9de4:	203a7325 	eorscs	r7, sl, r5, lsr #6
    9de8:	5f737973 	svcpl	0x00737973
    9dec:	74697865 	strbtvc	r7, [r9], #-2149	; 0xfffff79b
    9df0:	29642528 	stmdbcs	r4!, {r3, r5, r8, sl, sp}^
    9df4:	6f67203a 	svcvs	0x0067203a
    9df8:	20676e69 	rsbcs	r6, r7, r9, ror #28
    9dfc:	72206f74 	eorvc	r6, r0, #116, 30	; 0x1d0
    9e00:	6f6f6265 	svcvs	0x006f6265
    9e04:	00000a74 	andeq	r0, r0, r4, ror sl
    9e08:	74726170 	ldrbtvc	r6, [r2], #-368	; 0xfffffe90
    9e0c:	0a64253d 	beq	1913308 <__bss_end__+0x19087b0>
    9e10:	00000000 	andeq	r0, r0, r0
    9e14:	76697274 			; <UNDEFINED> instruction: 0x76697274
    9e18:	2d6c6169 	stfcse	f6, [ip, #-420]!	; 0xfffffe5c
    9e1c:	632e736f 			; <UNDEFINED> instruction: 0x632e736f
    9e20:	00000000 	andeq	r0, r0, r0
    9e24:	494e4150 	stmdbmi	lr, {r4, r6, r8, lr}^
    9e28:	73253a43 			; <UNDEFINED> instruction: 0x73253a43
    9e2c:	3a73253a 	bcc	1cd331c <__bss_end__+0x1cc87c4>
    9e30:	753a6425 	ldrvc	r6, [sl, #-1061]!	; 0xfffffbdb
    9e34:	6665646e 	strbtvs	r6, [r5], -lr, ror #8
    9e38:	64656e69 	strbtvs	r6, [r5], #-3689	; 0xfffff197
    9e3c:	73797320 	cmnvc	r9, #32, 6	; 0x80000000
    9e40:	206d6574 	rsbcs	r6, sp, r4, ror r5
    9e44:	6c6c6163 	stfvse	f6, [ip], #-396	; 0xfffffe74
    9e48:	6425203a 	strtvs	r2, [r5], #-58	; 0xffffffc6
    9e4c:	00000a0a 	andeq	r0, r0, sl, lsl #20
    9e50:	6e72656b 	cdpvs	5, 7, cr6, cr2, cr11, {3}
    9e54:	203a6c65 	eorscs	r6, sl, r5, ror #24
    9e58:	63617473 	cmnvs	r1, #1929379840	; 0x73000000
    9e5c:	7369206b 	cmnvc	r9, #107	; 0x6b
    9e60:	756f7220 	strbvc	r7, [pc, #-544]!	; 9c48 <gpio_set_function+0x5c>
    9e64:	796c6867 	stmdbvc	ip!, {r0, r1, r2, r5, r6, fp, sp, lr}^
    9e68:	3a746120 	bcc	1d222f0 <__bss_end__+0x1d17798>
    9e6c:	0a782520 	beq	1e132f4 <__bss_end__+0x1e0879c>
    9e70:	00000000 	andeq	r0, r0, r0
    9e74:	494e4150 	stmdbmi	lr, {r4, r6, r8, lr}^
    9e78:	73253a43 			; <UNDEFINED> instruction: 0x73253a43
    9e7c:	3a73253a 	bcc	1cd336c <__bss_end__+0x1cc8814>
    9e80:	4e3a6425 	cdpmi	4, 3, cr6, cr10, cr5, {1}
    9e84:	4552544f 	ldrbmi	r5, [r2, #-1103]	; 0xfffffbb1
    9e88:	45484341 	strbmi	r4, [r8, #-833]	; 0xfffffcbf
    9e8c:	0a0a2144 	beq	2923a4 <__bss_end__+0x28784c>
    9e90:	00000000 	andeq	r0, r0, r0
    9e94:	6c6c6568 	cfstr64vs	mvdx6, [ip], #-416	; 0xfffffe60
    9e98:	0000006f 	andeq	r0, r0, pc, rrx

00009e9c <__FUNCTION__.2>:
    9e9c:	74636576 	strbtvc	r6, [r3], #-1398	; 0xfffffa8a
    9ea0:	625f726f 	subsvs	r7, pc, #-268435450	; 0xf0000006
    9ea4:	5f657361 	svcpl	0x00657361
    9ea8:	00746573 	rsbseq	r6, r4, r3, ror r5

00009eac <__FUNCTION__.4>:
    9eac:	735f6f64 	cmpvc	pc, #100, 30	; 0x190
    9eb0:	61637379 	smcvs	14137	; 0x3739
    9eb4:	00006c6c 	andeq	r6, r0, ip, ror #24

00009eb8 <__FUNCTION__.3>:
    9eb8:	6d746f6e 	ldclvs	15, cr6, [r4, #-440]!	; 0xfffffe48
    9ebc:	006e6961 	rsbeq	r6, lr, r1, ror #18
    9ec0:	66617473 			; <UNDEFINED> instruction: 0x66617473
    9ec4:	6f6c2d66 	svcvs	0x006c2d66
    9ec8:	72656461 	rsbvc	r6, r5, #1627389952	; 0x61000000
    9ecc:	0000632e 	andeq	r6, r0, lr, lsr #6
    9ed0:	64615f62 	strbtvs	r5, [r1], #-3938	; 0xfffff09e
    9ed4:	3d207264 	sfmcc	f7, 4, [r0, #-400]!	; 0xfffffe70
    9ed8:	7830203d 	ldmdavc	r0!, {r0, r2, r3, r4, r5, sp}
    9edc:	30303034 	eorscc	r3, r0, r4, lsr r0
    9ee0:	00003030 	andeq	r3, r0, r0, lsr r0
    9ee4:	6c727473 	cfldrdvs	mvd7, [r2], #-460	; 0xfffffe34
    9ee8:	70286e65 	eorvc	r6, r8, r5, ror #28
    9eec:	203c2029 	eorscs	r2, ip, r9, lsr #32
    9ef0:	474f5250 	smlsldmi	r5, pc, r0, r2	; <UNPREDICTABLE>
    9ef4:	4d414e5f 	stclmi	14, cr4, [r1, #-380]	; 0xfffffe84
    9ef8:	414d5f45 	cmpmi	sp, r5, asr #30
    9efc:	00000058 	andeq	r0, r0, r8, asr r0
    9f00:	676f7270 			; <UNDEFINED> instruction: 0x676f7270
    9f04:	6d616e5f 	stclvs	14, cr6, [r1, #-380]!	; 0xfffffe84
    9f08:	5d305b65 	fldmdbxpl	r0!, {d5-d54}	;@ Deprecated
    9f0c:	00000000 	andeq	r0, r0, r0
    9f10:	65646f63 	strbvs	r6, [r4, #-3939]!	; 0xfffff09d
    9f14:	00000000 	andeq	r0, r0, r0
    9f18:	72657375 	rsbvc	r7, r5, #-738197503	; 0xd4000001
    9f1c:	646f635f 	strbtvs	r6, [pc], #-863	; 9f24 <__FUNCTION__.3+0x6c>
    9f20:	78253d65 	stmdavc	r5!, {r0, r2, r5, r6, r8, sl, fp, ip, sp}
    9f24:	7270202c 	rsbsvc	r2, r0, #44	; 0x2c
    9f28:	6e20676f 	cdpvs	7, 2, cr6, cr0, cr15, {3}
    9f2c:	3d656d61 	stclcc	13, cr6, [r5, #-388]!	; 0xfffffe7c
    9f30:	3e73253c 	mrccc	5, 3, r2, cr3, cr12, {1}
    9f34:	0000000a 	andeq	r0, r0, sl

00009f38 <__FUNCTION__.1>:
    9f38:	74737563 	ldrbtvc	r7, [r3], #-1379	; 0xfffffa9d
    9f3c:	6c5f6d6f 	mrrcvs	13, 6, r6, pc, cr15	; <UNPREDICTABLE>
    9f40:	6564616f 	strbvs	r6, [r4, #-367]!	; 0xfffffe91
    9f44:	00000072 	andeq	r0, r0, r2, ror r0

00009f48 <__FUNCTION__.0>:
    9f48:	676f7270 			; <UNDEFINED> instruction: 0x676f7270
    9f4c:	5f6d6172 	svcpl	0x006d6172
    9f50:	00746567 	rsbseq	r6, r4, r7, ror #10
    9f54:	676e6973 			; <UNDEFINED> instruction: 0x676e6973
    9f58:	735f656c 	cmpvc	pc, #108, 10	; 0x1b000000
    9f5c:	3a706574 	bcc	1c23534 <__bss_end__+0x1c189dc>
    9f60:	66657270 			; <UNDEFINED> instruction: 0x66657270
    9f64:	68637465 	stmdavs	r3!, {r0, r2, r5, r6, sl, ip, sp, lr}^
    9f68:	6f626120 	svcvs	0x00626120
    9f6c:	61207472 			; <UNDEFINED> instruction: 0x61207472
    9f70:	70252074 	eorvc	r2, r5, r4, ror r0
    9f74:	0000000a 	andeq	r0, r0, sl
    9f78:	69757165 	ldmdbvs	r5!, {r0, r2, r5, r6, r8, ip, sp, lr}^
    9f7c:	00632e76 	rsbeq	r2, r3, r6, ror lr
    9f80:	494e4150 	stmdbmi	lr, {r4, r6, r8, lr}^
    9f84:	73253a43 			; <UNDEFINED> instruction: 0x73253a43
    9f88:	3a73253a 	bcc	1cd3478 <__bss_end__+0x1cc8920>
    9f8c:	693a6425 	ldmdbvs	sl!, {r0, r2, r5, sl, sp, lr}
    9f90:	656c706d 	strbvs	r7, [ip, #-109]!	; 0xffffff93
    9f94:	746e656d 	strbtvc	r6, [lr], #-1389	; 0xfffffa93
    9f98:	69687420 	stmdbvs	r8!, {r5, sl, ip, sp, lr}^
    9f9c:	75662073 	strbvc	r2, [r6, #-115]!	; 0xffffff8d
    9fa0:	6974636e 	ldmdbvs	r4!, {r1, r2, r3, r5, r6, r8, r9, sp, lr}^
    9fa4:	0a216e6f 	beq	865968 <__bss_end__+0x85ae10>
    9fa8:	0000000a 	andeq	r0, r0, sl
    9fac:	72737063 	rsbsvc	r7, r3, #99	; 0x63
    9fb0:	6974752d 	ldmdbvs	r4!, {r0, r2, r3, r5, r8, sl, ip, sp, lr}^
    9fb4:	00682e6c 	rsbeq	r2, r8, ip, ror #28
    9fb8:	494e4150 	stmdbmi	lr, {r4, r6, r8, lr}^
    9fbc:	73253a43 			; <UNDEFINED> instruction: 0x73253a43
    9fc0:	3a73253a 	bcc	1cd34b0 <__bss_end__+0x1cc8958>
    9fc4:	693a6425 	ldmdbvs	sl!, {r0, r2, r5, sl, sp, lr}
    9fc8:	67656c6c 	strbvs	r6, [r5, -ip, ror #24]!
    9fcc:	6d206c61 	stcvs	12, cr6, [r0, #-388]!	; 0xfffffe7c
    9fd0:	3a65646f 	bcc	1963194 <__bss_end__+0x195863c>
    9fd4:	0a782520 	beq	1e1345c <__bss_end__+0x1e08904>
    9fd8:	0000000a 	andeq	r0, r0, sl
    9fdc:	65646f6d 	strbvs	r6, [r4, #-3949]!	; 0xfffff093
    9fe0:	5f73695f 	svcpl	0x0073695f
    9fe4:	65707573 	ldrbvs	r7, [r0, #-1395]!	; 0xfffffa8d
    9fe8:	00292872 	eoreq	r2, r9, r2, ror r8
    9fec:	000a7325 	andeq	r7, sl, r5, lsr #6
    9ff0:	43415254 	movtmi	r5, #4692	; 0x1254
    9ff4:	00003a45 	andeq	r3, r0, r5, asr #20
    9ff8:	49555145 	ldmdbmi	r5, {r0, r2, r6, r8, ip, lr}^
    9ffc:	6e093a56 			; <UNDEFINED> instruction: 0x6e093a56
    a000:	65626d75 	strbvs	r6, [r2, #-3445]!	; 0xfffff28b
    a004:	6e692072 	mcrvs	0, 3, r2, cr9, cr2, {3}
    a008:	75727473 	ldrbvc	r7, [r2, #-1139]!	; 0xfffffb8d
    a00c:	6f697463 	svcvs	0x00697463
    a010:	3d20736e 	stccc	3, cr7, [r0, #-440]!	; 0xfffffe48
    a014:	0a642520 	beq	191349c <__bss_end__+0x1908944>
    a018:	00000000 	andeq	r0, r0, r0
    a01c:	49555145 	ldmdbmi	r5, {r0, r2, r6, r8, ip, lr}^
    a020:	72093a56 	andvc	r3, r9, #352256	; 0x56000
    a024:	68206765 	stmdavs	r0!, {r0, r2, r5, r6, r8, r9, sl, sp, lr}
    a028:	20687361 	rsbcs	r7, r8, r1, ror #6
    a02c:	7825203d 	stmdavc	r5!, {r0, r2, r3, r4, r5, sp}
    a030:	0000000a 	andeq	r0, r0, sl
    a034:	49555145 	ldmdbmi	r5, {r0, r2, r6, r8, ip, lr}^
    a038:	70093a56 	andvc	r3, r9, r6, asr sl
    a03c:	61682063 	cmnvs	r8, r3, rrx
    a040:	3d206873 	stccc	8, cr6, [r0, #-460]!	; 0xfffffe34
    a044:	0a782520 	beq	1e134cc <__bss_end__+0x1e08974>
    a048:	00000000 	andeq	r0, r0, r0

0000a04c <__FUNCTION__.6>:
    a04c:	66657270 			; <UNDEFINED> instruction: 0x66657270
    a050:	68637465 	stmdavs	r3!, {r0, r2, r5, r6, sl, ip, sp, lr}^
    a054:	6f62615f 	svcvs	0x0062615f
    a058:	655f7472 	ldrbvs	r7, [pc, #-1138]	; 9bee <gpio_set_function+0x2>
    a05c:	76697571 			; <UNDEFINED> instruction: 0x76697571
    a060:	0063705f 	rsbeq	r7, r3, pc, asr r0

0000a064 <__FUNCTION__.5>:
    a064:	66657270 			; <UNDEFINED> instruction: 0x66657270
    a068:	68637465 	stmdavs	r3!, {r0, r2, r5, r6, sl, ip, sp, lr}^
    a06c:	6f62615f 	svcvs	0x0062615f
    a070:	655f7472 	ldrbvs	r7, [pc, #-1138]	; 9c06 <gpio_set_function+0x1a>
    a074:	76697571 			; <UNDEFINED> instruction: 0x76697571
    a078:	00000000 	andeq	r0, r0, r0

0000a07c <__FUNCTION__.0>:
    a07c:	65646f6d 	strbvs	r6, [r4, #-3949]!	; 0xfffff093
    a080:	67656c5f 			; <UNDEFINED> instruction: 0x67656c5f
    a084:	00006c61 	andeq	r6, r0, r1, ror #24

0000a088 <__FUNCTION__.4>:
    a088:	69757165 	ldmdbvs	r5!, {r0, r2, r5, r6, r8, ip, sp, lr}^
    a08c:	75725f76 	ldrbvc	r5, [r2, #-3958]!	; 0xfffff08a
    a090:	6e665f6e 	cdpvs	15, 6, cr5, cr6, cr14, {3}
    a094:	00000000 	andeq	r0, r0, r0
    a098:	66617473 			; <UNDEFINED> instruction: 0x66617473
    a09c:	72622d66 	rsbvc	r2, r2, #6528	; 0x1980
    a0a0:	706b6165 	rsbvc	r6, fp, r5, ror #2
    a0a4:	746e696f 	strbtvc	r6, [lr], #-2415	; 0xfffff691
    a0a8:	0000632e 	andeq	r6, r0, lr, lsr #6
    a0ac:	34317063 	ldrtcc	r7, [r1], #-99	; 0xffffff9d
    a0b0:	7276625f 	rsbsvc	r6, r6, #-268435451	; 0xf0000005
    a0b4:	65675f30 	strbvs	r5, [r7, #-3888]!	; 0xfffff0d0
    a0b8:	20292874 	eorcs	r2, r9, r4, ror r8
    a0bc:	61203d3d 			; <UNDEFINED> instruction: 0x61203d3d
    a0c0:	00726464 	rsbseq	r6, r2, r4, ror #8
    a0c4:	34317063 	ldrtcc	r7, [r1], #-99	; 0xffffff9d
    a0c8:	7263625f 	rsbvc	r6, r3, #-268435451	; 0xf0000005
    a0cc:	65675f30 	strbvs	r5, [r7, #-3888]!	; 0xfffff0d0
    a0d0:	20292874 	eorcs	r2, r9, r4, ror r8
    a0d4:	78203d3d 	stmdavc	r0!, {r0, r2, r3, r4, r5, r8, sl, fp, ip, sp}
    a0d8:	00000000 	andeq	r0, r0, r0
    a0dc:	74696221 	strbtvc	r6, [r9], #-545	; 0xfffffddf
    a0e0:	7373695f 	cmnvc	r3, #1556480	; 0x17c000
    a0e4:	63287465 			; <UNDEFINED> instruction: 0x63287465
    a0e8:	5f343170 	svcpl	0x00343170
    a0ec:	30726362 	rsbscc	r6, r2, r2, ror #6
    a0f0:	7465675f 	strbtvc	r6, [r5], #-1887	; 0xfffff8a1
    a0f4:	302c2928 	eorcc	r2, ip, r8, lsr #18
    a0f8:	00000029 	andeq	r0, r0, r9, lsr #32
    a0fc:	34317063 	ldrtcc	r7, [r1], #-99	; 0xffffff9d
    a100:	7276775f 	rsbsvc	r7, r6, #24903680	; 0x17c0000
    a104:	65675f30 	strbvs	r5, [r7, #-3888]!	; 0xfffff0d0
    a108:	20292874 	eorcs	r2, r9, r4, ror r8
    a10c:	61203d3d 			; <UNDEFINED> instruction: 0x61203d3d
    a110:	00726464 	rsbseq	r6, r2, r4, ror #8
    a114:	34317063 	ldrtcc	r7, [r1], #-99	; 0xffffff9d
    a118:	7263775f 	rsbvc	r7, r3, #24903680	; 0x17c0000
    a11c:	65675f30 	strbvs	r5, [r7, #-3888]!	; 0xfffff0d0
    a120:	20292874 	eorcs	r2, r9, r4, ror r8
    a124:	78203d3d 	stmdavc	r0!, {r0, r2, r3, r4, r5, r8, sl, fp, ip, sp}
    a128:	00000000 	andeq	r0, r0, r0
    a12c:	7561666e 	strbvc	r6, [r1, #-1646]!	; 0xfffff992
    a130:	253d746c 	ldrcs	r7, [sp, #-1132]!	; 0xfffffb94
    a134:	64203a64 	strtvs	r3, [r0], #-2660	; 0xfffff59c
    a138:	20617461 	rsbcs	r7, r1, r1, ror #8
    a13c:	726f6261 	rsbvc	r6, pc, #268435462	; 0x10000006
    a140:	74612074 	strbtvc	r2, [r1], #-116	; 0xffffff8c
    a144:	0a702520 	beq	1c135cc <__bss_end__+0x1c08a74>
    a148:	00000000 	andeq	r0, r0, r0
    a14c:	20736177 	rsbscs	r6, r3, r7, ror r1
    a150:	6d6f7266 	sfmvs	f7, 2, [pc, #-408]!	; 9fc0 <__FUNCTION__.0+0x78>
    a154:	6c206120 	stfvss	f6, [r0], #-128	; 0xffffff80
    a158:	0a64616f 	beq	192271c <__bss_end__+0x1917bc4>
    a15c:	00000000 	andeq	r0, r0, r0
    a160:	20736177 	rsbscs	r6, r3, r7, ror r1
    a164:	6d6f7266 	sfmvs	f7, 2, [pc, #-408]!	; 9fd4 <__FUNCTION__.0+0x8c>
    a168:	73206120 			; <UNDEFINED> instruction: 0x73206120
    a16c:	65726f74 	ldrbvs	r6, [r2, #-3956]!	; 0xfffff08c
    a170:	0000000a 	andeq	r0, r0, sl
    a174:	494e4150 	stmdbmi	lr, {r4, r6, r8, lr}^
    a178:	73253a43 			; <UNDEFINED> instruction: 0x73253a43
    a17c:	3a73253a 	bcc	1cd366c <__bss_end__+0x1cc8b14>
    a180:	693a6425 	ldmdbvs	sl!, {r0, r2, r5, sl, sp, lr}
    a184:	736f706d 	cmnvc	pc, #109	; 0x6d
    a188:	6c626973 			; <UNDEFINED> instruction: 0x6c626973
    a18c:	73203a65 			; <UNDEFINED> instruction: 0x73203a65
    a190:	6c756f68 	ldclvs	15, cr6, [r5], #-416	; 0xfffffe60
    a194:	65672064 	strbvs	r2, [r7, #-100]!	; 0xffffff9c
    a198:	6f6e2074 	svcvs	0x006e2074
    a19c:	68746f20 	ldmdavs	r4!, {r5, r8, r9, sl, fp, sp, lr}^
    a1a0:	66207265 	strtvs	r7, [r0], -r5, ror #4
    a1a4:	746c7561 	strbtvc	r7, [ip], #-1377	; 0xfffffa9f
    a1a8:	000a0a73 	andeq	r0, sl, r3, ror sl
    a1ac:	72616677 	rsbvc	r6, r1, #124780544	; 0x7700000
    a1b0:	64646120 	strbtvs	r6, [r4], #-288	; 0xfffffee0
    a1b4:	73736572 	cmnvc	r3, #478150656	; 0x1c800000
    a1b8:	25203d20 	strcs	r3, [r0, #-3360]!	; 0xfffff2e0
    a1bc:	70202c70 	eorvc	r2, r0, r0, ror ip
    a1c0:	203d2063 	eorscs	r2, sp, r3, rrx
    a1c4:	000a7025 	andeq	r7, sl, r5, lsr #32
    a1c8:	72616677 	rsbvc	r6, r1, #124780544	; 0x7700000
    a1cc:	7465675f 	strbtvc	r6, [r5], #-1887	; 0xfffff8a1
    a1d0:	342d2928 	strtcc	r2, [sp], #-2344	; 0xfffff6d8
    a1d4:	203d3d20 	eorscs	r3, sp, r0, lsr #26
    a1d8:	00006370 	andeq	r6, r0, r0, ror r3
    a1dc:	63746177 	cmnvs	r4, #-1073741795	; 0xc000001d
    a1e0:	5f747068 	svcpl	0x00747068
    a1e4:	646e6168 	strbtvs	r6, [lr], #-360	; 0xfffffe98
    a1e8:	3072656c 	rsbscc	r6, r2, ip, ror #10
    a1ec:	00000000 	andeq	r0, r0, r0
    a1f0:	20726166 	rsbscs	r6, r2, r6, ror #2
    a1f4:	72646461 	rsbvc	r6, r4, #1627389952	; 0x61000000
    a1f8:	20737365 	rsbscs	r7, r3, r5, ror #6
    a1fc:	7025203d 	eorvc	r2, r5, sp, lsr r0
    a200:	0000000a 	andeq	r0, r0, sl
    a204:	74696221 	strbtvc	r6, [r9], #-545	; 0xfffffddf
    a208:	7373695f 	cmnvc	r3, #1556480	; 0x17c000
    a20c:	73287465 			; <UNDEFINED> instruction: 0x73287465
    a210:	3431202c 	ldrtcc	r2, [r1], #-44	; 0xffffffd4
    a214:	00000029 	andeq	r0, r0, r9, lsr #32
    a218:	74696221 	strbtvc	r6, [r9], #-545	; 0xfffffddf
    a21c:	7373695f 	cmnvc	r3, #1556480	; 0x17c000
    a220:	73287465 			; <UNDEFINED> instruction: 0x73287465
    a224:	3531202c 	ldrcc	r2, [r1, #-44]!	; 0xffffffd4
    a228:	00000029 	andeq	r0, r0, r9, lsr #32
    a22c:	73746962 	cmnvc	r4, #1605632	; 0x188000
    a230:	7465675f 	strbtvc	r6, [r5], #-1887	; 0xfffff8a1
    a234:	312c7328 			; <UNDEFINED> instruction: 0x312c7328
    a238:	35312c35 	ldrcc	r2, [r1, #-3125]!	; 0xfffff3cb
    a23c:	3d3d2029 	ldccc	0, cr2, [sp, #-164]!	; 0xffffff5c
    a240:	00003020 	andeq	r3, r0, r0, lsr #32
    a244:	73746962 	cmnvc	r4, #1605632	; 0x188000
    a248:	7465675f 	strbtvc	r6, [r5], #-1887	; 0xfffff8a1
    a24c:	312c7328 			; <UNDEFINED> instruction: 0x312c7328
    a250:	34312c34 	ldrtcc	r2, [r1], #-3124	; 0xfffff3cc
    a254:	3d3d2029 	ldccc	0, cr2, [sp, #-164]!	; 0xffffff5c
    a258:	00003020 	andeq	r3, r0, r0, lsr #32
    a25c:	5f746962 	svcpl	0x00746962
    a260:	65737369 	ldrbvs	r7, [r3, #-873]!	; 0xfffffc97
    a264:	2c732874 	ldclcs	8, cr2, [r3], #-464	; 0xfffffe30
    a268:	29353120 	ldmdbcs	r5!, {r5, r8, ip, sp}
    a26c:	00000000 	andeq	r0, r0, r0
    a270:	706b7262 	rsbvc	r7, fp, r2, ror #4
    a274:	61685f74 	smcvs	34292	; 0x85f4
    a278:	656c646e 	strbvs	r6, [ip, #-1134]!	; 0xfffffb92
    a27c:	00003072 	andeq	r3, r0, r2, ror r0
    a280:	494e4150 	stmdbmi	lr, {r4, r6, r8, lr}^
    a284:	73253a43 			; <UNDEFINED> instruction: 0x73253a43
    a288:	3a73253a 	bcc	1cd3778 <__bss_end__+0x1cc8c20>
    a28c:	723a6425 	eorsvc	r6, sl, #620756992	; 0x25000000
    a290:	72757465 	rsbsvc	r7, r5, #1694498816	; 0x65000000
    a294:	2064656e 	rsbcs	r6, r4, lr, ror #10
    a298:	20646e61 	rsbcs	r6, r4, r1, ror #28
    a29c:	756f6873 	strbvc	r6, [pc, #-2163]!	; 9a31 <va_printk+0x385>
    a2a0:	6e20646c 	cdpvs	4, 2, cr6, cr0, cr12, {3}
    a2a4:	6820746f 	stmdavs	r0!, {r0, r1, r2, r3, r5, r6, sl, ip, sp, lr}
    a2a8:	21657661 	cmncs	r5, r1, ror #12
    a2ac:	00000a0a 	andeq	r0, r0, sl, lsl #20

0000a2b0 <__FUNCTION__.4243>:
    a2b0:	706b7262 	rsbvc	r7, fp, r2, ror #4
    a2b4:	65735f74 	ldrbvs	r5, [r3, #-3956]!	; 0xfffff08c
    a2b8:	685f3074 	ldmdavs	pc, {r2, r4, r5, r6, ip, sp}^	; <UNPREDICTABLE>
    a2bc:	65706c65 	ldrbvs	r6, [r0, #-3173]!	; 0xfffff39b
    a2c0:	00000072 	andeq	r0, r0, r2, ror r0

0000a2c4 <__FUNCTION__.4238>:
    a2c4:	706b7262 	rsbvc	r7, fp, r2, ror #4
    a2c8:	69645f74 	stmdbvs	r4!, {r2, r4, r5, r6, r8, r9, sl, fp, ip, lr}^
    a2cc:	6c626173 	stfvse	f6, [r2], #-460	; 0xfffffe34
    a2d0:	00003065 	andeq	r3, r0, r5, rrx

0000a2d4 <__FUNCTION__.4193>:
    a2d4:	63746177 	cmnvs	r4, #-1073741795	; 0xc000001d
    a2d8:	5f747068 	svcpl	0x00747068
    a2dc:	30746573 	rsbscc	r6, r4, r3, ror r5
    a2e0:	00000000 	andeq	r0, r0, r0

0000a2e4 <__FUNCTION__.4199>:
    a2e4:	75626564 	strbvc	r6, [r2, #-1380]!	; 0xfffffa9c
    a2e8:	61645f67 	cmnvs	r4, r7, ror #30
    a2ec:	615f6174 	cmpvs	pc, r4, ror r1	; <UNPREDICTABLE>
    a2f0:	74726f62 	ldrbtvc	r6, [r2], #-3938	; 0xfffff09e
    a2f4:	6365765f 	cmnvs	r5, #99614720	; 0x5f00000
    a2f8:	00726f74 	rsbseq	r6, r2, r4, ror pc

0000a2fc <__FUNCTION__.4206>:
    a2fc:	34317063 	ldrtcc	r7, [r1], #-99	; 0xffffff9d
    a300:	616e655f 	cmnvs	lr, pc, asr r5
    a304:	00656c62 	rsbeq	r6, r5, r2, ror #24

0000a308 <__FUNCTION__.4252>:
    a308:	66657270 			; <UNDEFINED> instruction: 0x66657270
    a30c:	68637465 	stmdavs	r3!, {r0, r2, r5, r6, sl, ip, sp, lr}^
    a310:	6f62615f 	svcvs	0x0062615f
    a314:	765f7472 			; <UNDEFINED> instruction: 0x765f7472
    a318:	6f746365 	svcvs	0x00746365
    a31c:	00000072 	andeq	r0, r0, r2, ror r0

0000a320 <__FUNCTION__.4257>:
    a320:	5f6b7262 	svcpl	0x006b7262
    a324:	725f6f6e 	subsvc	r6, pc, #440	; 0x1b8
    a328:	655f7465 	ldrbvs	r7, [pc, #-1125]	; 9ecb <__FUNCTION__.3+0x13>
    a32c:	726f7272 	rsbvc	r7, pc, #536870919	; 0x20000007
    a330:	00000000 	andeq	r0, r0, r0
    a334:	74732f2e 	ldrbtvc	r2, [r3], #-3886	; 0xfffff0d2
    a338:	2d666661 	stclcs	6, cr6, [r6, #-388]!	; 0xfffffe7c
    a33c:	2f637273 	svccs	0x00637273
    a340:	61666564 	cmnvs	r6, r4, ror #10
    a344:	2d746c75 	ldclcs	12, cr6, [r4, #-468]!	; 0xfffffe2c
    a348:	646e6168 	strbtvs	r6, [lr], #-360	; 0xfffffe98
    a34c:	2d72656c 	cfldr64cs	mvdx6, [r2, #-432]!	; 0xfffffe50
    a350:	65646e75 	strbvs	r6, [r4, #-3701]!	; 0xfffff18b
    a354:	656e6966 	strbvs	r6, [lr, #-2406]!	; 0xfffff69a
    a358:	6e692d64 	cdpvs	13, 6, cr2, cr9, cr4, {3}
    a35c:	632e7473 			; <UNDEFINED> instruction: 0x632e7473
    a360:	00000000 	andeq	r0, r0, r0
    a364:	494e4150 	stmdbmi	lr, {r4, r6, r8, lr}^
    a368:	73253a43 			; <UNDEFINED> instruction: 0x73253a43
    a36c:	3a73253a 	bcc	1cd385c <__bss_end__+0x1cc8d04>
    a370:	453a6425 	ldrmi	r6, [sl, #-1061]!	; 0xfffffbdb
    a374:	524f5252 	subpl	r5, pc, #536870917	; 0x20000005
    a378:	6e75203a 	mrcvs	0, 3, r2, cr5, cr10, {1}
    a37c:	646e6168 	strbtvs	r6, [lr], #-360	; 0xfffffe98
    a380:	2064656c 	rsbcs	r6, r4, ip, ror #10
    a384:	65637865 	strbvs	r7, [r3, #-2149]!	; 0xfffff79b
    a388:	6f697470 	svcvs	0x00697470
    a38c:	253c206e 	ldrcs	r2, [ip, #-110]!	; 0xffffff92
    a390:	61203e73 			; <UNDEFINED> instruction: 0x61203e73
    a394:	43502074 	cmpmi	r0, #116	; 0x74
    a398:	0a78253d 	beq	1e13894 <__bss_end__+0x1e08d3c>
    a39c:	0000000a 	andeq	r0, r0, sl
    a3a0:	65646e75 	strbvs	r6, [r4, #-3701]!	; 0xfffff18b
    a3a4:	656e6966 	strbvs	r6, [lr, #-2406]!	; 0xfffff69a
    a3a8:	6e692064 	cdpvs	0, 6, cr2, cr9, cr4, {3}
    a3ac:	00007473 	andeq	r7, r0, r3, ror r4

0000a3b0 <__FUNCTION__.0>:
    a3b0:	65646e75 	strbvs	r6, [r4, #-3701]!	; 0xfffff18b
    a3b4:	656e6966 	strbvs	r6, [lr, #-2406]!	; 0xfffff69a
    a3b8:	6e695f64 	cdpvs	15, 6, cr5, cr9, cr4, {3}
    a3bc:	75727473 	ldrbvc	r7, [r2, #-1139]!	; 0xfffffb8d
    a3c0:	6f697463 	svcvs	0x00697463
    a3c4:	65765f6e 	ldrbvs	r5, [r6, #-3950]!	; 0xfffff092
    a3c8:	726f7463 	rsbvc	r7, pc, #1660944384	; 0x63000000
    a3cc:	00000000 	andeq	r0, r0, r0
    a3d0:	74732f2e 	ldrbtvc	r2, [r3], #-3886	; 0xfffff0d2
    a3d4:	2d666661 	stclcs	6, cr6, [r6, #-388]!	; 0xfffffe7c
    a3d8:	2f637273 	svccs	0x00637273
    a3dc:	2d6d7361 	stclcs	3, cr7, [sp, #-388]!	; 0xfffffe7c
    a3e0:	706c6568 	rsbvc	r6, ip, r8, ror #10
    a3e4:	2e737265 	cdpcs	2, 7, cr7, cr3, cr5, {3}
    a3e8:	00000063 	andeq	r0, r0, r3, rrx
    a3ec:	494e4150 	stmdbmi	lr, {r4, r6, r8, lr}^
    a3f0:	73253a43 			; <UNDEFINED> instruction: 0x73253a43
    a3f4:	3a73253a 	bcc	1cd38e4 <__bss_end__+0x1cc8d8c>
    a3f8:	693a6425 	ldmdbvs	sl!, {r0, r2, r5, sl, sp, lr}
    a3fc:	736f706d 	cmnvc	pc, #109	; 0x6d
    a400:	6c626973 			; <UNDEFINED> instruction: 0x6c626973
    a404:	72203a65 	eorvc	r3, r0, #413696	; 0x65000
    a408:	68636165 	stmdavs	r3!, {r0, r2, r5, r6, r8, sp, lr}^
    a40c:	70206465 	eorvc	r6, r0, r5, ror #8
    a410:	78253d63 	stmdavc	r5!, {r0, r1, r5, r6, r8, sl, fp, ip, sp}
    a414:	00000a0a 	andeq	r0, r0, sl, lsl #20
    a418:	494e4150 	stmdbmi	lr, {r4, r6, r8, lr}^
    a41c:	73253a43 			; <UNDEFINED> instruction: 0x73253a43
    a420:	3a73253a 	bcc	1cd3910 <__bss_end__+0x1cc8db8>
    a424:	753a6425 	ldrvc	r6, [sl, #-1061]!	; 0xfffffbdb
    a428:	706d696e 	rsbvc	r6, sp, lr, ror #18
    a42c:	656d656c 	strbvs	r6, [sp, #-1388]!	; 0xfffffa94
    a430:	6465746e 	strbtvs	r7, [r5], #-1134	; 0xfffffb92
    a434:	6370203a 	cmnvs	r0, #58	; 0x3a
    a438:	0a78253d 	beq	1e13934 <__bss_end__+0x1e08ddc>
    a43c:	0000000a 	andeq	r0, r0, sl

0000a440 <__FUNCTION__.1>:
    a440:	5f6d7361 	svcpl	0x006d7361
    a444:	5f746f6e 	svcpl	0x00746f6e
    a448:	63616572 	cmnvs	r1, #478150656	; 0x1c800000
    a44c:	5f646568 	svcpl	0x00646568
    a450:	706c6568 	rsbvc	r6, ip, r8, ror #10
    a454:	00007265 	andeq	r7, r0, r5, ror #4

0000a458 <__FUNCTION__.0>:
    a458:	5f6d7361 	svcpl	0x006d7361
    a45c:	5f746f6e 	svcpl	0x00746f6e
    a460:	6c706d69 	ldclvs	13, cr6, [r0], #-420	; 0xfffffe5c
    a464:	6e656d65 	cdpvs	13, 6, cr6, cr5, cr5, {3}
    a468:	5f646574 	svcpl	0x00646574
    a46c:	706c6568 	rsbvc	r6, ip, r8, ror #10
    a470:	00007265 	andeq	r7, r0, r5, ror #4
    a474:	74732f2e 	ldrbtvc	r2, [r3], #-3886	; 0xfffff0d2
    a478:	2d666661 	stclcs	6, cr6, [r6, #-388]!	; 0xfffffe7c
    a47c:	2f637273 	svccs	0x00637273
    a480:	61666564 	cmnvs	r6, r4, ror #10
    a484:	2d746c75 	ldclcs	12, cr6, [r4, #-468]!	; 0xfffffe2c
    a488:	646e6168 	strbtvs	r6, [lr], #-360	; 0xfffffe98
    a48c:	2d72656c 	cfldr64cs	mvdx6, [r2, #-432]!	; 0xfffffe50
    a490:	2e746e69 	cdpcs	14, 7, cr6, cr4, cr9, {3}
    a494:	00000063 	andeq	r0, r0, r3, rrx
    a498:	65746e69 	ldrbvs	r6, [r4, #-3689]!	; 0xfffff197
    a49c:	70757272 	rsbsvc	r7, r5, r2, ror r2
    a4a0:	00000074 	andeq	r0, r0, r4, ror r0

0000a4a4 <__FUNCTION__.0>:
    a4a4:	5f746e69 	svcpl	0x00746e69
    a4a8:	74636576 	strbtvc	r6, [r3], #-1398	; 0xfffffa8a
    a4ac:	0000726f 	andeq	r7, r0, pc, ror #4
    a4b0:	74732f2e 	ldrbtvc	r2, [r3], #-3886	; 0xfffff0d2
    a4b4:	2d666661 	stclcs	6, cr6, [r6, #-388]!	; 0xfffffe7c
    a4b8:	2f637273 	svccs	0x00637273
    a4bc:	61666564 	cmnvs	r6, r4, ror #10
    a4c0:	2d746c75 	ldclcs	12, cr6, [r4, #-468]!	; 0xfffffe2c
    a4c4:	646e6168 	strbtvs	r6, [lr], #-360	; 0xfffffe98
    a4c8:	2d72656c 	cfldr64cs	mvdx6, [r2, #-432]!	; 0xfffffe50
    a4cc:	65736572 	ldrbvs	r6, [r3, #-1394]!	; 0xfffffa8e
    a4d0:	00632e74 	rsbeq	r2, r3, r4, ror lr
    a4d4:	65736572 	ldrbvs	r6, [r3, #-1394]!	; 0xfffffa8e
    a4d8:	00000074 	andeq	r0, r0, r4, ror r0

0000a4dc <__FUNCTION__.0>:
    a4dc:	65736572 	ldrbvs	r6, [r3, #-1394]!	; 0xfffffa8e
    a4e0:	65765f74 	ldrbvs	r5, [r6, #-3956]!	; 0xfffff08c
    a4e4:	726f7463 	rsbvc	r7, pc, #1660944384	; 0x63000000
    a4e8:	00000000 	andeq	r0, r0, r0
    a4ec:	74732f2e 	ldrbtvc	r2, [r3], #-3886	; 0xfffff0d2
    a4f0:	2d666661 	stclcs	6, cr6, [r6, #-388]!	; 0xfffffe7c
    a4f4:	2f637273 	svccs	0x00637273
    a4f8:	61666564 	cmnvs	r6, r4, ror #10
    a4fc:	2d746c75 	ldclcs	12, cr6, [r4, #-468]!	; 0xfffffe2c
    a500:	646e6168 	strbtvs	r6, [lr], #-360	; 0xfffffe98
    a504:	2d72656c 	cfldr64cs	mvdx6, [r2, #-432]!	; 0xfffffe50
    a508:	61746164 	cmnvs	r4, r4, ror #2
    a50c:	6f62612d 	svcvs	0x0062612d
    a510:	632e7472 			; <UNDEFINED> instruction: 0x632e7472
    a514:	00000000 	andeq	r0, r0, r0
    a518:	61746164 	cmnvs	r4, r4, ror #2
    a51c:	6f626120 	svcvs	0x00626120
    a520:	00007472 	andeq	r7, r0, r2, ror r4

0000a524 <__FUNCTION__.0>:
    a524:	61746164 	cmnvs	r4, r4, ror #2
    a528:	6f62615f 	svcvs	0x0062615f
    a52c:	765f7472 			; <UNDEFINED> instruction: 0x765f7472
    a530:	6f746365 	svcvs	0x00746365
    a534:	00000072 	andeq	r0, r0, r2, ror r0
    a538:	454e4f44 	strbmi	r4, [lr, #-3908]	; 0xfffff0bc
    a53c:	0a212121 	beq	8529c8 <__bss_end__+0x847e70>
    a540:	00000000 	andeq	r0, r0, r0
    a544:	696c2f2e 	stmdbvs	ip!, {r1, r2, r3, r5, r8, r9, sl, fp, sp}^
    a548:	762f6362 	strtvc	r6, [pc], -r2, ror #6
    a54c:	72702d61 	rsbsvc	r2, r0, #6208	; 0x1840
    a550:	6b746e69 	blvs	1d25efc <__bss_end__+0x1d1b3a4>
    a554:	0000632e 	andeq	r6, r0, lr, lsr #6
    a558:	00000030 	andeq	r0, r0, r0, lsr r0
    a55c:	33323130 	teqcc	r2, #48, 2
    a560:	37363534 			; <UNDEFINED> instruction: 0x37363534
    a564:	00003938 	andeq	r3, r0, r8, lsr r9
    a568:	33323130 	teqcc	r2, #48, 2
    a56c:	37363534 			; <UNDEFINED> instruction: 0x37363534
    a570:	62613938 	rsbvs	r3, r1, #56, 18	; 0xe0000
    a574:	66656463 	strbtvs	r6, [r5], -r3, ror #8
    a578:	00000000 	andeq	r0, r0, r0
    a57c:	00003130 	andeq	r3, r0, r0, lsr r1
    a580:	63747570 	cmnvs	r4, #112, 10	; 0x1c000000
    a584:	0070665f 	rsbseq	r6, r0, pc, asr r6
    a588:	74646977 	strbtvc	r6, [r4], #-2423	; 0xfffff689
    a58c:	203c2068 	eorscs	r2, ip, r8, rrx
    a590:	00003233 	andeq	r3, r0, r3, lsr r2
    a594:	00786c6c 	rsbseq	r6, r8, ip, ror #24
    a598:	00646c6c 	rsbeq	r6, r4, ip, ror #24
    a59c:	6e727473 	mrcvs	4, 3, r7, cr2, cr3, {3}
    a5a0:	28706d63 	ldmdacs	r0!, {r0, r1, r5, r6, r8, sl, fp, sp, lr}^
    a5a4:	202c7974 	eorcs	r7, ip, r4, ror r9
    a5a8:	786c6c22 	stmdavc	ip!, {r1, r5, sl, fp, sp, lr}^
    a5ac:	33202c22 			; <UNDEFINED> instruction: 0x33202c22
    a5b0:	3d3d2029 	ldccc	0, cr2, [sp, #-164]!	; 0xffffff5c
    a5b4:	7c203020 	stcvc	0, cr3, [r0], #-128	; 0xffffff80
    a5b8:	7473207c 	ldrbtvc	r2, [r3], #-124	; 0xffffff84
    a5bc:	6d636e72 	stclvs	14, cr6, [r3, #-456]!	; 0xfffffe38
    a5c0:	79742870 	ldmdbvc	r4!, {r4, r5, r6, fp, sp}^
    a5c4:	6c22202c 	stcvs	0, cr2, [r2], #-176	; 0xffffff50
    a5c8:	2c22646c 	cfstrscs	mvf6, [r2], #-432	; 0xfffffe50
    a5cc:	20293320 	eorcs	r3, r9, r0, lsr #6
    a5d0:	30203d3d 	eorcc	r3, r0, sp, lsr sp
    a5d4:	00000000 	andeq	r0, r0, r0
    a5d8:	494e4150 	stmdbmi	lr, {r4, r6, r8, lr}^
    a5dc:	73253a43 			; <UNDEFINED> instruction: 0x73253a43
    a5e0:	3a73253a 	bcc	1cd3ad0 <__bss_end__+0x1cc8f78>
    a5e4:	693a6425 	ldmdbvs	sl!, {r0, r2, r5, sl, sp, lr}
    a5e8:	736f706d 	cmnvc	pc, #109	; 0x6d
    a5ec:	6c626973 			; <UNDEFINED> instruction: 0x6c626973
    a5f0:	66203a65 	strtvs	r3, [r0], -r5, ror #20
    a5f4:	3c3d746d 	cfldrscc	mvf7, [sp], #-436	; 0xfffffe4c
    a5f8:	0a3e7325 	beq	fa7294 <__bss_end__+0xf9c73c>
    a5fc:	0000000a 	andeq	r0, r0, sl
    a600:	494e4150 	stmdbmi	lr, {r4, r6, r8, lr}^
    a604:	73253a43 			; <UNDEFINED> instruction: 0x73253a43
    a608:	3a73253a 	bcc	1cd3af8 <__bss_end__+0x1cc8fa0>
    a60c:	663a6425 	ldrtvs	r6, [sl], -r5, lsr #8
    a610:	74616f6c 	strbtvc	r6, [r1], #-3948	; 0xfffff094
    a614:	746f6e20 	strbtvc	r6, [pc], #-3616	; a61c <__FUNCTION__.0+0xf8>
    a618:	616e6520 	cmnvs	lr, r0, lsr #10
    a61c:	64656c62 	strbtvs	r6, [r5], #-3170	; 0xfffff39e
    a620:	0a212121 	beq	852aac <__bss_end__+0x847f54>
    a624:	00000000 	andeq	r0, r0, r0
    a628:	6e697270 	mcrvs	2, 3, r7, cr9, cr0, {3}
    a62c:	203a6b74 	eorscs	r6, sl, r4, ror fp
    a630:	20746f6e 	rsbscs	r6, r4, lr, ror #30
    a634:	646e6168 	strbtvs	r6, [lr], #-360	; 0xfffffe98
    a638:	676e696c 	strbvs	r6, [lr, -ip, ror #18]!
    a63c:	65707320 	ldrbvs	r7, [r0, #-800]!	; 0xfffffce0
    a640:	69666963 	stmdbvs	r6!, {r0, r1, r5, r6, r8, fp, sp, lr}^
    a644:	27207265 	strcs	r7, [r0, -r5, ror #4]!
    a648:	20276325 	eorcs	r6, r7, r5, lsr #6
    a64c:	63736128 	cmnvs	r3, #40, 2
    a650:	253d6969 	ldrcs	r6, [sp, #-2409]!	; 0xfffff697
    a654:	000a2964 	andeq	r2, sl, r4, ror #18
    a658:	494e4150 	stmdbmi	lr, {r4, r6, r8, lr}^
    a65c:	73253a43 			; <UNDEFINED> instruction: 0x73253a43
    a660:	3a73253a 	bcc	1cd3b50 <__bss_end__+0x1cc8ff8>
    a664:	703a6425 	eorsvc	r6, sl, r5, lsr #8
    a668:	746e6972 	strbtvc	r6, [lr], #-2418	; 0xfffff68e
    a66c:	7265206b 	rsbvc	r2, r5, #107	; 0x6b
    a670:	0a726f72 	beq	1ca6440 <__bss_end__+0x1c9b8e8>
    a674:	0000000a 	andeq	r0, r0, sl

0000a678 <__FUNCTION__.0>:
    a678:	74696d65 	strbtvc	r6, [r9], #-3429	; 0xfffff29b
    a67c:	00000000 	andeq	r0, r0, r0

0000a680 <__FUNCTION__.2>:
    a680:	5f697072 	svcpl	0x00697072
    a684:	5f746573 	svcpl	0x00746573
    a688:	7074756f 	rsbsvc	r7, r4, pc, ror #10
    a68c:	00007475 	andeq	r7, r0, r5, ror r4

0000a690 <__FUNCTION__.1>:
    a690:	705f6176 	subsvc	r6, pc, r6, ror r1	; <UNPREDICTABLE>
    a694:	746e6972 	strbtvc	r6, [lr], #-2418	; 0xfffff68e
    a698:	Address 0x000000000000a698 is out of bounds.


Disassembly of section .data:

0000a69c <prog_name>:
    a69c:	00009e94 	muleq	r0, r4, lr

0000a6a0 <prog_name>:
    a6a0:	6e206f64 	cdpvs	15, 2, cr6, cr0, cr4, {3}
    a6a4:	6420746f 	strtvs	r7, [r0], #-1135	; 0xfffffb91
    a6a8:	74656c65 	strbtvc	r6, [r5], #-3173	; 0xfffff39b
    a6ac:	73612065 	cmnvc	r1, #101	; 0x65
    a6b0:	6e676973 			; <UNDEFINED> instruction: 0x6e676973
    a6b4:	0000000a 	andeq	r0, r0, sl
	...

0000a720 <code>:
    a720:	00000004 	andeq	r0, r0, r4

0000a724 <putk>:
    a724:	00008ee4 	andeq	r8, r0, r4, ror #29

0000a728 <rpi_putchar>:
    a728:	00008f18 	andeq	r8, r0, r8, lsl pc

Disassembly of section .bss:

0000a72c <sys_verbose_p>:
    a72c:	00000000 	andeq	r0, r0, r0

0000a730 <single_step_faults>:
    a730:	00000000 	andeq	r0, r0, r0

0000a734 <in_user>:
    a734:	00000000 	andeq	r0, r0, r0

0000a738 <cur_ctx>:
	...

0000a748 <watchpt_handler0>:
    a748:	00000000 	andeq	r0, r0, r0

0000a74c <nfaults.4198>:
    a74c:	00000000 	andeq	r0, r0, r0

0000a750 <brkpt_handler0>:
    a750:	00000000 	andeq	r0, r0, r0

0000a754 <brk_verbose_p>:
    a754:	00000000 	andeq	r0, r0, r0

0000a758 <buf.0>:
	...

Disassembly of section .ARM.attributes:

00000000 <.ARM.attributes>:
   0:	00002a41 	andeq	r2, r0, r1, asr #20
   4:	61656100 	cmnvs	r5, r0, lsl #2
   8:	01006962 	tsteq	r0, r2, ror #18
   c:	00000020 	andeq	r0, r0, r0, lsr #32
  10:	4b5a3605 	blmi	168d82c <__bss_end__+0x1682cd4>
  14:	08070600 	stmdaeq	r7, {r9, sl}
  18:	12010901 	andne	r0, r1, #16384	; 0x4000
  1c:	15011404 	strne	r1, [r1, #-1028]	; 0xfffffbfc
  20:	18031701 	stmdane	r3, {r0, r8, r9, sl, ip}
  24:	22011a01 	andcs	r1, r1, #4096	; 0x1000
  28:	Address 0x0000000000000028 is out of bounds.


Disassembly of section .comment:

00000000 <.comment>:
   0:	3a434347 	bcc	10d0d24 <__bss_end__+0x10c61cc>
   4:	4e472820 	cdpmi	8, 4, cr2, cr7, cr0, {1}
   8:	72412055 	subvc	r2, r1, #85	; 0x55
   c:	6d45206d 	stclvs	0, cr2, [r5, #-436]	; 0xfffffe4c
  10:	64646562 	strbtvs	r6, [r4], #-1378	; 0xfffffa9e
  14:	54206465 	strtpl	r6, [r0], #-1125	; 0xfffffb9b
  18:	636c6f6f 	cmnvs	ip, #444	; 0x1bc
  1c:	6e696168 	powvsez	f6, f1, #0.0
  20:	2e303120 	rsfcssp	f3, f0, f0
  24:	30322d33 	eorscc	r2, r2, r3, lsr sp
  28:	312e3132 			; <UNDEFINED> instruction: 0x312e3132
  2c:	31202930 			; <UNDEFINED> instruction: 0x31202930
  30:	2e332e30 	mrccs	14, 1, r2, cr3, cr0, {1}
  34:	30322031 	eorscc	r2, r2, r1, lsr r0
  38:	38303132 	ldmdacc	r0!, {r1, r4, r5, r8, ip, sp}
  3c:	28203432 	stmdacs	r0!, {r1, r4, r5, sl, ip, sp}
  40:	656c6572 	strbvs	r6, [ip, #-1394]!	; 0xfffffa8e
  44:	29657361 	stmdbcs	r5!, {r0, r5, r6, r8, r9, ip, sp, lr}^
  48:	43434700 	movtmi	r4, #14080	; 0x3700
  4c:	3128203a 			; <UNDEFINED> instruction: 0x3128203a
  50:	2d393a35 	vldmdbcs	r9!, {s6-s58}
  54:	39313032 	ldmdbcc	r1!, {r1, r4, r5, ip, sp}
  58:	2d34712d 	ldfcss	f7, [r4, #-180]!	; 0xffffff4c
  5c:	75627530 	strbvc	r7, [r2, #-1328]!	; 0xfffffad0
  60:	3175746e 	cmncc	r5, lr, ror #8
  64:	2e392029 	cdpcs	0, 3, cr2, cr9, cr9, {1}
  68:	20312e32 	eorscs	r2, r1, r2, lsr lr
  6c:	39313032 	ldmdbcc	r1!, {r1, r4, r5, ip, sp}
  70:	35323031 	ldrcc	r3, [r2, #-49]!	; 0xffffffcf
  74:	65722820 	ldrbvs	r2, [r2, #-2080]!	; 0xfffff7e0
  78:	7361656c 	cmnvc	r1, #108, 10	; 0x1b000000
  7c:	5b202965 	blpl	80a618 <__bss_end__+0x7ffac0>
  80:	2f4d5241 	svccs	0x004d5241
  84:	2d6d7261 	sfmcs	f7, 2, [sp, #-388]!	; 0xfffffe7c
  88:	72622d39 	rsbvc	r2, r2, #3648	; 0xe40
  8c:	68636e61 	stmdavs	r3!, {r0, r5, r6, r9, sl, fp, sp, lr}^
  90:	76657220 	strbtvc	r7, [r5], -r0, lsr #4
  94:	6f697369 	svcvs	0x00697369
  98:	3732206e 	ldrcc	r2, [r2, -lr, rrx]!
  9c:	39393537 	ldmdbcc	r9!, {r0, r1, r2, r4, r5, r8, sl, ip, sp}
  a0:	Address 0x00000000000000a0 is out of bounds.


Disassembly of section .debug_info:

00000000 <.debug_info>:
       0:	0000071f 	andeq	r0, r0, pc, lsl r7
       4:	00000004 	andeq	r0, r0, r4
       8:	01040000 	mrseq	r0, (UNDEF: 4)
       c:	00000122 	andeq	r0, r0, r2, lsr #2
      10:	0001cc0c 	andeq	ip, r1, ip, lsl #24
      14:	00027d00 	andeq	r7, r2, r0, lsl #26
      18:	00803400 	addeq	r3, r0, r0, lsl #8
      1c:	00024000 	andeq	r4, r2, r0
      20:	00000000 	andeq	r0, r0, r0
      24:	05040200 	streq	r0, [r4, #-512]	; 0xfffffe00
      28:	00746e69 	rsbseq	r6, r4, r9, ror #28
      2c:	bf070403 	svclt	0x00070403
      30:	03000001 	movweq	r0, #1
      34:	01160601 	tsteq	r6, r1, lsl #12
      38:	02030000 	andeq	r0, r3, #0
      3c:	00003d05 	andeq	r3, r0, r5, lsl #26
      40:	05040300 	streq	r0, [r4, #-768]	; 0xfffffd00
      44:	000000c8 	andeq	r0, r0, r8, asr #1
      48:	c3050803 	movwgt	r0, #22531	; 0x5803
      4c:	04000000 	streq	r0, [r0], #-0
      50:	0000008c 	andeq	r0, r0, ip, lsl #1
      54:	5b182e06 	blpl	60b874 <__bss_end__+0x600d1c>
      58:	03000000 	movweq	r0, #0
      5c:	01140801 	tsteq	r4, r1, lsl #16
      60:	02030000 	andeq	r0, r3, #0
      64:	0001f607 	andeq	pc, r1, r7, lsl #12
      68:	00940400 	addseq	r0, r4, r0, lsl #8
      6c:	34060000 	strcc	r0, [r6], #-0
      70:	00007519 	andeq	r7, r0, r9, lsl r5
      74:	07040300 	streq	r0, [r4, -r0, lsl #6]
      78:	000001ba 			; <UNDEFINED> instruction: 0x000001ba
      7c:	b5070803 	strlt	r0, [r7, #-2051]	; 0xfffff7fd
      80:	05000001 	streq	r0, [r0, #-1]
      84:	00009004 	andeq	r9, r0, r4
      88:	08010300 	stmdaeq	r1, {r8, r9}
      8c:	0000011d 	andeq	r0, r0, sp, lsl r1
      90:	00008906 	andeq	r8, r0, r6, lsl #18
      94:	01d90700 	bicseq	r0, r9, r0, lsl #14
      98:	07080000 	streq	r0, [r8, -r0]
      9c:	00bd0807 	adcseq	r0, sp, r7, lsl #16
      a0:	c2080000 	andgt	r0, r8, #0
      a4:	07000002 	streq	r0, [r0, -r2]
      a8:	00831108 	addeq	r1, r3, r8, lsl #2
      ac:	08000000 	stmdaeq	r0, {}	; <UNPREDICTABLE>
      b0:	00000033 	andeq	r0, r0, r3, lsr r0
      b4:	be0c0907 	vmlalt.f16	s0, s24, s14	; <UNPREDICTABLE>
      b8:	04000000 	streq	r0, [r0], #-0
      bc:	04050900 	streq	r0, [r5], #-2304	; 0xfffff700
      c0:	000000bd 	strheq	r0, [r0], -sp
      c4:	0001060a 	andeq	r0, r1, sl, lsl #12
      c8:	11120700 	tstne	r2, r0, lsl #14
      cc:	0000002c 	andeq	r0, r0, ip, lsr #32
      d0:	5b01070b 	blpl	41d04 <__bss_end__+0x371ac>
      d4:	04000000 	streq	r0, [r0], #-0
      d8:	00fd0615 	rscseq	r0, sp, r5, lsl r6
      dc:	000c0000 	andeq	r0, ip, r0
      e0:	00000000 	andeq	r0, r0, r0
      e4:	0002470c 	andeq	r4, r2, ip, lsl #14
      e8:	7b0c0100 	blvc	3004f0 <__bss_end__+0x2f5998>
      ec:	02000000 	andeq	r0, r0, #0
      f0:	0002140c 	andeq	r1, r2, ip, lsl #8
      f4:	470c0300 	strmi	r0, [ip, -r0, lsl #6]
      f8:	04000000 	streq	r0, [r0], #-0
      fc:	00d10d00 	sbcseq	r0, r1, r0, lsl #26
     100:	1c040000 	stcne	0, cr0, [r4], {-0}
     104:	0000250c 	andeq	r2, r0, ip, lsl #10
     108:	00c40e00 	sbceq	r0, r4, r0, lsl #28
     10c:	22040000 	andcs	r0, r4, #0
     110:	2c03050a 	cfstr32cs	mvfx0, [r3], {10}
     114:	0f0000a7 	svceq	0x000000a7
     118:	000002c2 	andeq	r0, r0, r2, asr #5
     11c:	83142404 	tsthi	r4, #4, 8	; 0x4000000
     120:	05000000 	streq	r0, [r0, #-0]
     124:	00a69c03 	adceq	r9, r6, r3, lsl #24
     128:	01ee1000 	mvneq	r1, r0
     12c:	41040000 	mrsmi	r0, (UNDEF: 4)
     130:	00820c06 	addeq	r0, r2, r6, lsl #24
     134:	00006800 	andeq	r6, r0, r0, lsl #16
     138:	3b9c0100 	blcc	fe700540 <__bss_end__+0xfe6f59e8>
     13c:	0a000002 	beq	14c <__code_start__-0x7eb4>
     140:	00000025 	andeq	r0, r0, r5, lsr #32
     144:	4f144204 	svcmi	0x00144204
     148:	0a000000 	beq	150 <__code_start__-0x7eb0>
     14c:	000000e3 	andeq	r0, r0, r3, ror #1
     150:	4f234204 	svcmi	0x00234204
     154:	0a000000 	beq	15c <__code_start__-0x7ea4>
     158:	00000256 	andeq	r0, r0, r6, asr r2
     15c:	4f3a4204 	svcmi	0x003a4204
     160:	0a000000 	beq	168 <__code_start__-0x7e98>
     164:	0000005b 	andeq	r0, r0, fp, asr r0
     168:	4f094304 	svcmi	0x00094304
     16c:	11000000 	mrsne	r0, (UNDEF: 0)
     170:	4b040070 	blmi	100338 <__bss_end__+0xf57e0>
     174:	00009511 	andeq	r9, r0, r1, lsl r5
     178:	70910200 	addsvc	r0, r1, r0, lsl #4
     17c:	00003812 	andeq	r3, r0, r2, lsl r8
     180:	0b4d0400 	bleq	1341188 <__bss_end__+0x1336630>
     184:	00000240 	andeq	r0, r0, r0, asr #4
     188:	00000002 	andeq	r0, r0, r2
     18c:	00000000 	andeq	r0, r0, r0
     190:	0000d613 	andeq	sp, r0, r3, lsl r6
     194:	00025600 	andeq	r5, r2, r0, lsl #12
     198:	b8030500 	stmdalt	r3, {r8, sl}
     19c:	1400009e 	strne	r0, [r0], #-158	; 0xffffff62
     1a0:	0000040e 	andeq	r0, r0, lr, lsl #8
     1a4:	00008214 	andeq	r8, r0, r4, lsl r2
     1a8:	00821402 	addeq	r1, r2, r2, lsl #8
     1ac:	00000400 	andeq	r0, r0, r0, lsl #8
     1b0:	05450400 	strbeq	r0, [r5, #-1024]	; 0xfffffc00
     1b4:	000001c6 	andeq	r0, r0, r6, asr #3
     1b8:	00041f15 	andeq	r1, r4, r5, lsl pc
     1bc:	00001700 	andeq	r1, r0, r0, lsl #14
     1c0:	00001500 	andeq	r1, r0, r0, lsl #10
     1c4:	20160000 	andscs	r0, r6, r0
     1c8:	fe000082 	cdp2	0, 0, cr0, cr0, cr2, {4}
     1cc:	dd000006 	stcle	0, cr0, [r0, #-24]	; 0xffffffe8
     1d0:	17000001 	strne	r0, [r0, -r1]
     1d4:	03055001 	movweq	r5, #20481	; 0x5001
     1d8:	00009e50 	andeq	r9, r0, r0, asr lr
     1dc:	82281600 	eorhi	r1, r8, #0, 12
     1e0:	070a0000 	streq	r0, [sl, -r0]
     1e4:	01f10000 	mvnseq	r0, r0
     1e8:	01170000 	tsteq	r7, r0
     1ec:	68910250 	ldmvs	r1, {r4, r6, r9}
     1f0:	82401800 	subhi	r1, r0, #0, 16
     1f4:	042b0000 	strteq	r0, [fp], #-0
     1f8:	44190000 	ldrmi	r0, [r9], #-0
     1fc:	02000082 	andeq	r0, r0, #130	; 0x82
     200:	58160074 	ldmdapl	r6, {r2, r4, r5, r6}
     204:	fe000082 	cdp2	0, 0, cr0, cr0, cr2, {4}
     208:	31000006 	tstcc	r0, r6
     20c:	17000002 	strne	r0, [r0, -r2]
     210:	03055001 	movweq	r5, #20481	; 0x5001
     214:	00009e74 	andeq	r9, r0, r4, ror lr
     218:	05510117 	ldrbeq	r0, [r1, #-279]	; 0xfffffee9
     21c:	009e1403 	addseq	r1, lr, r3, lsl #8
     220:	52011700 	andpl	r1, r1, #0, 14
     224:	9eb80305 	cdpls	3, 11, cr0, cr8, cr5, {0}
     228:	01170000 	tsteq	r7, r0
     22c:	57080253 	smlsdpl	r8, r3, r2, r0
     230:	825c1800 	subshi	r1, ip, #0, 16
     234:	07160000 	ldreq	r0, [r6, -r0]
     238:	1a000000 	bne	240 <__code_start__-0x7dc0>
     23c:	00000025 	andeq	r0, r0, r5, lsr #32
     240:	023b0405 	eorseq	r0, fp, #83886080	; 0x5000000
     244:	901b0000 	andsls	r0, fp, r0
     248:	56000000 	strpl	r0, [r0], -r0
     24c:	1c000002 	stcne	0, cr0, [r0], {2}
     250:	0000002c 	andeq	r0, r0, ip, lsr #32
     254:	46060007 	strmi	r0, [r6], -r7
     258:	1d000002 	stcne	0, cr0, [r0, #-8]
     25c:	00000209 	andeq	r0, r0, r9, lsl #4
     260:	690a2c04 	stmdbvs	sl, {r2, sl, fp, sp}
     264:	e0000000 	and	r0, r0, r0
     268:	2c000080 	stccs	0, cr0, [r0], {128}	; 0x80
     26c:	01000001 	tsteq	r0, r1
     270:	0003f99c 	muleq	r3, ip, r9
     274:	02361e00 	eorseq	r1, r6, #0, 28
     278:	2c040000 	stccs	0, cr0, [r4], {-0}
     27c:	0000691e 	andeq	r6, r0, lr, lsl r9
     280:	00003200 	andeq	r3, r0, r0, lsl #4
     284:	00002a00 	andeq	r2, r0, r0, lsl #20
     288:	30611f00 	rsbcc	r1, r1, r0, lsl #30
     28c:	2f2c0400 	svccs	0x002c0400
     290:	00000069 	andeq	r0, r0, r9, rrx
     294:	0000006a 	andeq	r0, r0, sl, rrx
     298:	00000066 	andeq	r0, r0, r6, rrx
     29c:	0031611f 	eorseq	r6, r1, pc, lsl r1
     2a0:	693c2c04 	ldmdbvs	ip!, {r2, sl, fp, sp}
     2a4:	92000000 	andls	r0, r0, #0
     2a8:	88000000 	stmdahi	r0, {}	; <UNPREDICTABLE>
     2ac:	1f000000 	svcne	0x00000000
     2b0:	04003261 	streq	r3, [r0], #-609	; 0xfffffd9f
     2b4:	0069492c 	rsbeq	r4, r9, ip, lsr #18
     2b8:	00e10000 	rsceq	r0, r1, r0
     2bc:	00d70000 	sbcseq	r0, r7, r0
     2c0:	d6130000 	ldrle	r0, [r3], -r0
     2c4:	09000000 	stmdbeq	r0, {}	; <UNPREDICTABLE>
     2c8:	05000004 	streq	r0, [r0, #-4]
     2cc:	009eac03 	addseq	sl, lr, r3, lsl #24
     2d0:	812c1600 			; <UNDEFINED> instruction: 0x812c1600
     2d4:	06fe0000 	ldrbteq	r0, [lr], r0
     2d8:	02ee0000 	rsceq	r0, lr, #0
     2dc:	01170000 	tsteq	r7, r0
     2e0:	c4030550 	strgt	r0, [r3], #-1360	; 0xfffffab0
     2e4:	1700009d 			; <UNDEFINED> instruction: 0x1700009d
     2e8:	75025101 	strvc	r5, [r2, #-257]	; 0xfffffeff
     2ec:	50160000 	andspl	r0, r6, r0
     2f0:	fe000081 	cdp2	0, 0, cr0, cr0, cr1, {4}
     2f4:	20000006 	andcs	r0, r0, r6
     2f8:	17000003 	strne	r0, [r0, -r3]
     2fc:	03055001 	movweq	r5, #20481	; 0x5001
     300:	00009da4 	andeq	r9, r0, r4, lsr #27
     304:	02510117 	subseq	r0, r1, #-1073741819	; 0xc0000005
     308:	01170074 	tsteq	r7, r4, ror r0
     30c:	00750252 	rsbseq	r0, r5, r2, asr r2
     310:	03530117 	cmpeq	r3, #-1073741819	; 0xc0000005
     314:	175201f3 	smmlsrne	r2, r3, r1, r0
     318:	03007d02 	movweq	r7, #3330	; 0xd02
     31c:	005301f3 	ldrsheq	r0, [r3], #-19	; 0xffffffed
     320:	00817416 	addeq	r7, r1, r6, lsl r4
     324:	0006fe00 	andeq	pc, r6, r0, lsl #28
     328:	00035600 	andeq	r5, r3, r0, lsl #12
     32c:	50011700 	andpl	r1, r1, r0, lsl #14
     330:	9e240305 	cdpls	3, 2, cr0, cr4, cr5, {0}
     334:	01170000 	tsteq	r7, r0
     338:	14030551 	strne	r0, [r3], #-1361	; 0xfffffaaf
     33c:	1700009e 			; <UNDEFINED> instruction: 0x1700009e
     340:	03055201 	movweq	r5, #20993	; 0x5201
     344:	00009eac 	andeq	r9, r0, ip, lsr #29
     348:	02530117 	subseq	r0, r3, #-1073741819	; 0xc0000005
     34c:	02173d08 	andseq	r3, r7, #8, 26	; 0x200
     350:	7402007d 	strvc	r0, [r2], #-125	; 0xffffff83
     354:	78180000 	ldmdavc	r8, {}	; <UNPREDICTABLE>
     358:	16000081 	strne	r0, [r0], -r1, lsl #1
     35c:	16000007 	strne	r0, [r0], -r7
     360:	00008184 	andeq	r8, r0, r4, lsl #3
     364:	000006fe 	strdeq	r0, [r0], -lr
     368:	0000037c 	andeq	r0, r0, ip, ror r3
     36c:	05500117 	ldrbeq	r0, [r0, #-279]	; 0xfffffee9
     370:	009dd003 	addseq	sp, sp, r3
     374:	51011700 	tstpl	r1, r0, lsl #14
     378:	00007502 	andeq	r7, r0, r2, lsl #10
     37c:	0081a416 	addeq	sl, r1, r6, lsl r4
     380:	0006fe00 	andeq	pc, r6, r0, lsl #28
     384:	00039900 	andeq	r9, r3, r0, lsl #18
     388:	50011700 	andpl	r1, r1, r0, lsl #14
     38c:	9dd40305 	ldclls	3, cr0, [r4, #20]
     390:	01170000 	tsteq	r7, r0
     394:	00750251 	rsbseq	r0, r5, r1, asr r2
     398:	81b41600 			; <UNDEFINED> instruction: 0x81b41600
     39c:	06fe0000 	ldrbteq	r0, [lr], r0
     3a0:	03b60000 			; <UNDEFINED> instruction: 0x03b60000
     3a4:	01170000 	tsteq	r7, r0
     3a8:	e0030550 	and	r0, r3, r0, asr r5
     3ac:	1700009d 			; <UNDEFINED> instruction: 0x1700009d
     3b0:	75025101 	strvc	r5, [r2, #-257]	; 0xfffffeff
     3b4:	cc160000 	ldcgt	0, cr0, [r6], {-0}
     3b8:	fe000081 	cdp2	0, 0, cr0, cr0, cr1, {4}
     3bc:	d3000006 	movwle	r0, #6
     3c0:	17000003 	strne	r0, [r0, -r3]
     3c4:	03055001 	movweq	r5, #20481	; 0x5001
     3c8:	00009de4 	andeq	r9, r0, r4, ror #27
     3cc:	02520117 	subseq	r0, r2, #-1073741819	; 0xc0000005
     3d0:	16000075 			; <UNDEFINED> instruction: 0x16000075
     3d4:	000081d8 	ldrdeq	r8, [r0], -r8	; <UNPREDICTABLE>
     3d8:	000006fe 	strdeq	r0, [r0], -lr
     3dc:	000003ef 	andeq	r0, r0, pc, ror #7
     3e0:	05500117 	ldrbeq	r0, [r0, #-279]	; 0xfffffee9
     3e4:	009e0803 	addseq	r0, lr, r3, lsl #16
     3e8:	51011700 	tstpl	r1, r0, lsl #14
     3ec:	18003001 	stmdane	r0, {r0, ip, sp}
     3f0:	000081dc 	ldrdeq	r8, [r0], -ip
     3f4:	00000716 	andeq	r0, r0, r6, lsl r7
     3f8:	00901b00 	addseq	r1, r0, r0, lsl #22
     3fc:	04090000 	streq	r0, [r9], #-0
     400:	2c1c0000 	ldccs	0, cr0, [ip], {-0}
     404:	0a000000 	beq	40c <__code_start__-0x7bf4>
     408:	03f90600 	mvnseq	r0, #0, 12
     40c:	0e200000 	cdpeq	0, 2, cr0, cr0, cr0, {0}
     410:	05000000 	streq	r0, [r0, #-0]
     414:	002c1804 	eoreq	r1, ip, r4, lsl #16
     418:	2b030000 	blcs	c0420 <__bss_end__+0xb58c8>
     41c:	21000004 	tstcs	r0, r4
     420:	05007073 	streq	r7, [r0, #-115]	; 0xffffff8d
     424:	002c0e05 	eoreq	r0, ip, r5, lsl #28
     428:	22000000 	andcs	r0, r0, #0
     42c:	0000006b 	andeq	r0, r0, fp, rrx
     430:	34141701 	ldrcc	r1, [r4], #-1793	; 0xfffff8ff
     434:	ac000080 	stcge	0, cr0, [r0], {128}	; 0x80
     438:	01000000 	mrseq	r0, (UNDEF: 0)
     43c:	0006009c 	muleq	r6, ip, r0
     440:	009d1e00 	addseq	r1, sp, r0, lsl #28
     444:	17010000 	strne	r0, [r1, -r0]
     448:	0006002a 	andeq	r0, r6, sl, lsr #32
     44c:	00013500 	andeq	r3, r1, r0, lsl #10
     450:	00012700 	andeq	r2, r1, r0, lsl #14
     454:	00d61300 	sbcseq	r1, r6, r0, lsl #6
     458:	06120000 	ldreq	r0, [r2], -r0
     45c:	03050000 	movweq	r0, #20480	; 0x5000
     460:	00009e9c 	muleq	r0, ip, lr
     464:	01007623 	tsteq	r0, r3, lsr #12
     468:	00690e1a 	rsbeq	r0, r9, sl, lsl lr
     46c:	01a00000 	moveq	r0, r0
     470:	01940000 	orrseq	r0, r4, r0
     474:	72140000 	andsvc	r0, r4, #0
     478:	44000006 	strmi	r0, [r0], #-6
     47c:	04000080 	streq	r0, [r0], #-128	; 0xffffff80
     480:	00008044 	andeq	r8, r0, r4, asr #32
     484:	00000000 	andeq	r0, r0, r0
     488:	b7081b01 	strlt	r1, [r8, -r1, lsl #22]
     48c:	24000004 	strcs	r0, [r0], #-4
     490:	00000698 	muleq	r0, r8, r6
     494:	000001f3 	strdeq	r0, [r0], -r3
     498:	000001f1 	strdeq	r0, [r0], -r1
     49c:	00068d24 	andeq	r8, r6, r4, lsr #26
     4a0:	00020900 	andeq	r0, r2, r0, lsl #18
     4a4:	00020700 	andeq	r0, r2, r0, lsl #14
     4a8:	06832400 	streq	r2, [r3], r0, lsl #8
     4ac:	021f0000 	andseq	r0, pc, #0
     4b0:	021d0000 	andseq	r0, sp, #0
     4b4:	14000000 	strne	r0, [r0], #-0
     4b8:	00000642 	andeq	r0, r0, r2, asr #12
     4bc:	0000804c 	andeq	r8, r0, ip, asr #32
     4c0:	00804c02 	addeq	r4, r0, r2, lsl #24
     4c4:	00000c00 	andeq	r0, r0, r0, lsl #24
     4c8:	051d0100 	ldreq	r0, [sp, #-256]	; 0xffffff00
     4cc:	00000501 	andeq	r0, r0, r1, lsl #10
     4d0:	00064f24 	andeq	r4, r6, r4, lsr #30
     4d4:	00023400 	andeq	r3, r2, r0, lsl #8
     4d8:	00023200 	andeq	r3, r2, r0, lsl #4
     4dc:	065a2500 	ldrbeq	r2, [sl], -r0, lsl #10
     4e0:	80500000 	subshi	r0, r0, r0
     4e4:	50010000 	andpl	r0, r1, r0
     4e8:	08000080 	stmdaeq	r0, {r7}
     4ec:	01000000 	mrseq	r0, (UNDEF: 0)
     4f0:	6715010f 	ldrvs	r0, [r5, -pc, lsl #2]
     4f4:	4b000006 	blmi	514 <__code_start__-0x7aec>
     4f8:	47000002 	strmi	r0, [r0, -r2]
     4fc:	00000002 	andeq	r0, r0, r2
     500:	06171400 	ldreq	r1, [r7], -r0, lsl #8
     504:	80580000 	subshi	r0, r8, r0
     508:	58030000 	stmdapl	r3, {}	; <UNPREDICTABLE>
     50c:	04000080 	streq	r0, [r0], #-128	; 0xffffff80
     510:	01000000 	mrseq	r0, (UNDEF: 0)
     514:	053e051e 	ldreq	r0, [lr, #-1310]!	; 0xfffffae2
     518:	24250000 	strtcs	r0, [r5], #-0
     51c:	58000006 	stmdapl	r0, {r1, r2}
     520:	05000080 	streq	r0, [r0, #-128]	; 0xffffff80
     524:	00008058 	andeq	r8, r0, r8, asr r0
     528:	00000004 	andeq	r0, r0, r4
     52c:	15131301 	ldrne	r1, [r3, #-769]	; 0xfffffcff
     530:	00000635 	andeq	r0, r0, r5, lsr r6
     534:	0000026f 	andeq	r0, r0, pc, ror #4
     538:	0000026b 	andeq	r0, r0, fp, ror #4
     53c:	88160000 	ldmdahi	r6, {}	; <UNPREDICTABLE>
     540:	fe000080 	cdp2	0, 0, cr0, cr0, cr0, {4}
     544:	76000006 	strvc	r0, [r0], -r6
     548:	17000005 	strne	r0, [r0, -r5]
     54c:	03055001 	movweq	r5, #20481	; 0x5001
     550:	00009d18 	andeq	r9, r0, r8, lsl sp
     554:	05510117 	ldrbeq	r0, [r1, #-279]	; 0xfffffee9
     558:	009d0803 	addseq	r0, sp, r3, lsl #16
     55c:	52011700 	andpl	r1, r1, #0, 14
     560:	9e9c0305 	cdpls	3, 9, cr0, cr12, cr5, {0}
     564:	01170000 	tsteq	r7, r0
     568:	17480153 	smlsldne	r0, r8, r3, r1
     56c:	05007d02 	streq	r7, [r0, #-3330]	; 0xfffff2fe
     570:	009d2c03 	addseq	r2, sp, r3, lsl #24
     574:	8c180000 	ldchi	0, cr0, [r8], {-0}
     578:	16000080 	strne	r0, [r0], -r0, lsl #1
     57c:	16000007 	strne	r0, [r0], -r7
     580:	000080a4 	andeq	r8, r0, r4, lsr #1
     584:	000006fe 	strdeq	r0, [r0], -lr
     588:	000005b5 			; <UNDEFINED> instruction: 0x000005b5
     58c:	05500117 	ldrbeq	r0, [r0, #-279]	; 0xfffffee9
     590:	009d3803 	addseq	r3, sp, r3, lsl #16
     594:	51011700 	tstpl	r1, r0, lsl #14
     598:	9d080305 	stcls	3, cr0, [r8, #-20]	; 0xffffffec
     59c:	01170000 	tsteq	r7, r0
     5a0:	9c030552 	cfstr32ls	mvfx0, [r3], {82}	; 0x52
     5a4:	1700009e 			; <UNDEFINED> instruction: 0x1700009e
     5a8:	4c015301 	stcmi	3, cr5, [r1], {1}
     5ac:	007d0217 	rsbseq	r0, sp, r7, lsl r2
     5b0:	5001f303 	andpl	pc, r1, r3, lsl #6
     5b4:	80a81800 	adchi	r1, r8, r0, lsl #16
     5b8:	07160000 	ldreq	r0, [r6, -r0]
     5bc:	c4160000 	ldrgt	r0, [r6], #-0
     5c0:	fe000080 	cdp2	0, 0, cr0, cr0, cr0, {4}
     5c4:	f6000006 			; <UNDEFINED> instruction: 0xf6000006
     5c8:	17000005 	strne	r0, [r0, -r5]
     5cc:	03055001 	movweq	r5, #20481	; 0x5001
     5d0:	00009d18 	andeq	r9, r0, r8, lsl sp
     5d4:	05510117 	ldrbeq	r0, [r1, #-279]	; 0xfffffee9
     5d8:	009d0803 	addseq	r0, sp, r3, lsl #16
     5dc:	52011700 	andpl	r1, r1, #0, 14
     5e0:	9e9c0305 	cdpls	3, 9, cr0, cr12, cr5, {0}
     5e4:	01170000 	tsteq	r7, r0
     5e8:	174e0153 	smlsldne	r0, lr, r3, r1
     5ec:	05007d02 	streq	r7, [r0, #-3330]	; 0xfffff2fe
     5f0:	009d8003 	addseq	r8, sp, r3
     5f4:	c8180000 	ldmdagt	r8, {}	; <UNPREDICTABLE>
     5f8:	16000080 	strne	r0, [r0], -r0, lsl #1
     5fc:	00000007 	andeq	r0, r0, r7
     600:	901b0426 	andsls	r0, fp, r6, lsr #8
     604:	12000000 	andne	r0, r0, #0
     608:	1c000006 	stcne	0, cr0, [r0], {6}
     60c:	0000002c 	andeq	r0, r0, ip, lsr #32
     610:	0206000f 	andeq	r0, r6, #15
     614:	27000006 	strcs	r0, [r0, -r6]
     618:	000001de 	ldrdeq	r0, [r0], -lr
     61c:	00151201 	andseq	r1, r5, r1, lsl #4
     620:	03000006 	movweq	r0, #6
     624:	0000af20 	andeq	sl, r0, r0, lsr #30
     628:	01100100 	tsteq	r0, r0, lsl #2
     62c:	00000069 	andeq	r0, r0, r9, rrx
     630:	00064203 	andeq	r4, r6, r3, lsl #4
     634:	65722100 	ldrbvs	r2, [r2, #-256]!	; 0xffffff00
     638:	10010074 	andne	r0, r1, r4, ror r0
     63c:	00006901 	andeq	r6, r0, r1, lsl #18
     640:	69280000 	stmdbvs	r8!, {}	; <UNPREDICTABLE>
     644:	01000002 	tsteq	r0, r2
     648:	5a03010f 	bpl	c0a8c <__bss_end__+0xb5f34>
     64c:	29000006 	stmdbcs	r0, {r1, r2}
     650:	0f010076 	svceq	0x00010076
     654:	00006901 	andeq	r6, r0, r1, lsl #18
     658:	27280000 	strcs	r0, [r8, -r0]!
     65c:	03000002 	movweq	r0, #2
     660:	72031405 	andvc	r1, r3, #83886080	; 0x5000000
     664:	21000006 	tstcs	r0, r6
     668:	06030072 			; <UNDEFINED> instruction: 0x06030072
     66c:	00002c0e 	andeq	r2, r0, lr, lsl #24
     670:	cc200000 	stcgt	0, cr0, [r0], #-0
     674:	02000002 	andeq	r0, r0, #2
     678:	00690139 	rsbeq	r0, r9, r9, lsr r1
     67c:	ad030000 	stcge	0, cr0, [r3, #-0]
     680:	29000006 	stmdbcs	r0, {r1, r2}
     684:	39020078 	stmdbcc	r2, {r3, r4, r5, r6}
     688:	00006913 	andeq	r6, r0, r3, lsl r9
     68c:	626c2900 	rsbvs	r2, ip, #0, 18
     690:	1f390200 	svcne	0x00390200
     694:	0000002c 	andeq	r0, r0, ip, lsr #32
     698:	00627529 	rsbeq	r7, r2, r9, lsr #10
     69c:	2c2c3902 			; <UNDEFINED> instruction: 0x2c2c3902
     6a0:	2a000000 	bcs	6a8 <__code_start__-0x7958>
     6a4:	000000d6 	ldrdeq	r0, [r0], -r6
     6a8:	000006bd 			; <UNDEFINED> instruction: 0x000006bd
     6ac:	00901b00 	addseq	r1, r0, r0, lsl #22
     6b0:	06bd0000 	ldrteq	r0, [sp], r0
     6b4:	2c1c0000 	ldccs	0, cr0, [ip], {-0}
     6b8:	08000000 	stmdaeq	r0, {}	; <UNPREDICTABLE>
     6bc:	06ad0600 	strteq	r0, [sp], r0, lsl #12
     6c0:	3d200000 	stccc	0, cr0, [r0, #-0]
     6c4:	02000002 	andeq	r0, r0, #2
     6c8:	0069182f 	rsbeq	r1, r9, pc, lsr #16
     6cc:	e9030000 	stmdb	r3, {}	; <UNPREDICTABLE>
     6d0:	2b000006 	blcs	6f0 <__code_start__-0x7910>
     6d4:	000000a9 	andeq	r0, r0, r9, lsr #1
     6d8:	2c2b2f02 	stccs	15, cr2, [fp], #-8
     6dc:	2a000000 	bcs	6e4 <__code_start__-0x791c>
     6e0:	000000d6 	ldrdeq	r0, [r0], -r6
     6e4:	000006f9 	strdeq	r0, [r0], -r9
     6e8:	00901b00 	addseq	r1, r0, r0, lsl #22
     6ec:	06f90000 	ldrbteq	r0, [r9], r0
     6f0:	2c1c0000 	ldccs	0, cr0, [ip], {-0}
     6f4:	09000000 	stmdbeq	r0, {}	; <UNPREDICTABLE>
     6f8:	06e90600 	strbteq	r0, [r9], r0, lsl #12
     6fc:	252c0000 	strcs	r0, [ip, #-0]!
     700:	25000008 	strcs	r0, [r0, #-8]
     704:	08000008 	stmdaeq	r0, {r3}
     708:	192c0628 	stmdbne	ip!, {r3, r5, r9, sl}
     70c:	19000000 	stmdbne	r0, {}	; <UNPREDICTABLE>
     710:	07000000 	streq	r0, [r0, -r0]
     714:	f92c0d0b 			; <UNDEFINED> instruction: 0xf92c0d0b
     718:	f9000000 			; <UNDEFINED> instruction: 0xf9000000
     71c:	08000000 	stmdaeq	r0, {}	; <UNPREDICTABLE>
     720:	7000066e 	andvc	r0, r0, lr, ror #12
     724:	04000003 	streq	r0, [r0], #-3
     728:	0002b000 	andeq	fp, r2, r0
     72c:	22010400 	andcs	r0, r1, #0, 8
     730:	0c000001 	stceq	0, cr0, [r0], {1}
     734:	00000301 	andeq	r0, r0, r1, lsl #6
     738:	0000027d 	andeq	r0, r0, sp, ror r2
     73c:	00008408 	andeq	r8, r0, r8, lsl #8
     740:	0000016c 	andeq	r0, r0, ip, ror #2
     744:	0000030e 	andeq	r0, r0, lr, lsl #6
     748:	69050402 	stmdbvs	r5, {r1, sl}
     74c:	0300746e 	movweq	r7, #1134	; 0x46e
     750:	01bf0704 			; <UNDEFINED> instruction: 0x01bf0704
     754:	01030000 	mrseq	r0, (UNDEF: 3)
     758:	00011606 	andeq	r1, r1, r6, lsl #12
     75c:	05020300 	streq	r0, [r2, #-768]	; 0xfffffd00
     760:	0000003d 	andeq	r0, r0, sp, lsr r0
     764:	c8050403 	stmdagt	r5, {r0, r1, sl}
     768:	03000000 	movweq	r0, #0
     76c:	00c30508 	sbceq	r0, r3, r8, lsl #10
     770:	01030000 	mrseq	r0, (UNDEF: 3)
     774:	00011408 	andeq	r1, r1, r8, lsl #8
     778:	07020300 	streq	r0, [r2, -r0, lsl #6]
     77c:	000001f6 	strdeq	r0, [r0], -r6
     780:	00009404 	andeq	r9, r0, r4, lsl #8
     784:	19340400 	ldmdbne	r4!, {sl}
     788:	00000069 	andeq	r0, r0, r9, rrx
     78c:	ba070403 	blt	1c17a0 <__bss_end__+0x1b6c48>
     790:	03000001 	movweq	r0, #1
     794:	01b50708 			; <UNDEFINED> instruction: 0x01b50708
     798:	04050000 	streq	r0, [r5], #-0
     79c:	00000084 	andeq	r0, r0, r4, lsl #1
     7a0:	1d080103 	stfnes	f0, [r8, #-12]
     7a4:	06000001 	streq	r0, [r0], -r1
     7a8:	0000007d 	andeq	r0, r0, sp, ror r0
     7ac:	0001d907 	andeq	sp, r1, r7, lsl #18
     7b0:	07020800 	streq	r0, [r2, -r0, lsl #16]
     7b4:	0000b108 	andeq	fp, r0, r8, lsl #2
     7b8:	02c20800 	sbceq	r0, r2, #0, 16
     7bc:	08020000 	stmdaeq	r2, {}	; <UNPREDICTABLE>
     7c0:	00007711 	andeq	r7, r0, r1, lsl r7
     7c4:	33080000 	movwcc	r0, #32768	; 0x8000
     7c8:	02000000 	andeq	r0, r0, #0
     7cc:	00b20c09 	adcseq	r0, r2, r9, lsl #24
     7d0:	00040000 	andeq	r0, r4, r0
     7d4:	b1040509 	tstlt	r4, r9, lsl #10
     7d8:	0a000000 	beq	7e0 <__code_start__-0x7820>
     7dc:	0000007d 	andeq	r0, r0, sp, ror r0
     7e0:	000000c8 	andeq	r0, r0, r8, asr #1
     7e4:	00002c0b 	andeq	r2, r0, fp, lsl #24
     7e8:	0c007f00 	stceq	15, cr7, [r0], {-0}
     7ec:	000002c2 	andeq	r0, r0, r2, asr #5
     7f0:	b80d0801 	stmdalt	sp, {r0, fp}
     7f4:	05000000 	streq	r0, [r0, #-0]
     7f8:	00a6a003 	adceq	sl, r6, r3
     7fc:	00380c00 	eorseq	r0, r8, r0, lsl #24
     800:	09010000 	stmdbeq	r1, {}	; <UNPREDICTABLE>
     804:	0000b20f 	andeq	fp, r0, pc, lsl #4
     808:	20030500 	andcs	r0, r3, r0, lsl #10
     80c:	0d0000a7 	stceq	0, cr0, [r0, #-668]	; 0xfffffd64
     810:	00000019 	andeq	r0, r0, r9, lsl r0
     814:	890d3501 	stmdbhi	sp, {r0, r8, sl, ip, sp}
     818:	c4000000 	strgt	r0, [r0], #-0
     81c:	b0000084 	andlt	r0, r0, r4, lsl #1
     820:	01000000 	mrseq	r0, (UNDEF: 0)
     824:	0001b79c 	muleq	r1, ip, r7
     828:	00d60e00 	sbcseq	r0, r6, r0, lsl #28
     82c:	01c70000 	biceq	r0, r7, r0
     830:	03050000 	movweq	r0, #20480	; 0x5000
     834:	00009f48 	andeq	r9, r0, r8, asr #30
     838:	0085000f 	addeq	r0, r5, pc
     83c:	00033700 	andeq	r3, r3, r0, lsl #14
     840:	00013200 	andeq	r3, r1, r0, lsl #4
     844:	50011000 	andpl	r1, r1, r0
     848:	9f180305 	svcls	0x00180305
     84c:	01100000 	tsteq	r0, r0
     850:	00750252 	rsbseq	r0, r5, r2, asr r2
     854:	85340f00 	ldrhi	r0, [r4, #-3840]!	; 0xfffff100
     858:	03370000 	teqeq	r7, #0
     85c:	016b0000 	cmneq	fp, r0
     860:	01100000 	tsteq	r0, r0
     864:	18030550 	stmdane	r3, {r4, r6, r8, sl}
     868:	1000009d 	mulne	r0, sp, r0
     86c:	03055101 	movweq	r5, #20737	; 0x5101
     870:	00009ec0 	andeq	r9, r0, r0, asr #29
     874:	05520110 	ldrbeq	r0, [r2, #-272]	; 0xfffffef0
     878:	009f4803 	addseq	r4, pc, r3, lsl #16
     87c:	53011000 	movwpl	r1, #4096	; 0x1000
     880:	10370802 	eorsne	r0, r7, r2, lsl #16
     884:	05007d02 	streq	r7, [r0, #-3330]	; 0xfffff2fe
     888:	009f0003 	addseq	r0, pc, r3
     88c:	38110000 	ldmdacc	r1, {}	; <UNPREDICTABLE>
     890:	43000085 	movwmi	r0, #133	; 0x85
     894:	0f000003 	svceq	0x00000003
     898:	00008554 	andeq	r8, r0, r4, asr r5
     89c:	00000337 	andeq	r0, r0, r7, lsr r3
     8a0:	000001ad 	andeq	r0, r0, sp, lsr #3
     8a4:	05500110 	ldrbeq	r0, [r0, #-272]	; 0xfffffef0
     8a8:	009d1803 	addseq	r1, sp, r3, lsl #16
     8ac:	51011000 	mrspl	r1, (UNDEF: 1)
     8b0:	9ec00305 	cdpls	3, 12, cr0, cr0, cr5, {0}
     8b4:	01100000 	tsteq	r0, r0
     8b8:	48030552 	stmdami	r3, {r1, r4, r6, r8, sl}
     8bc:	1000009f 	mulne	r0, pc, r0	; <UNPREDICTABLE>
     8c0:	08025301 	stmdaeq	r2, {r0, r8, r9, ip, lr}
     8c4:	7d021038 	stcvc	0, cr1, [r2, #-224]	; 0xffffff20
     8c8:	10030500 	andne	r0, r3, r0, lsl #10
     8cc:	0000009f 	muleq	r0, pc, r0	; <UNPREDICTABLE>
     8d0:	00855811 	addeq	r5, r5, r1, lsl r8
     8d4:	00034300 	andeq	r4, r3, r0, lsl #6
     8d8:	840a0000 	strhi	r0, [sl], #-0
     8dc:	c7000000 	strgt	r0, [r0, -r0]
     8e0:	0b000001 	bleq	8ec <__code_start__-0x7714>
     8e4:	0000002c 	andeq	r0, r0, ip, lsr #32
     8e8:	b706000b 	strlt	r0, [r6, -fp]
     8ec:	12000001 	andne	r0, r0, #1
     8f0:	000002f3 	strdeq	r0, [r0], -r3
     8f4:	08061201 	stmdaeq	r6, {r0, r9, ip}
     8f8:	bc000084 	stclt	0, cr0, [r0], {132}	; 0x84
     8fc:	01000000 	mrseq	r0, (UNDEF: 0)
     900:	0003169c 	muleq	r3, ip, r6
     904:	03241300 			; <UNDEFINED> instruction: 0x03241300
     908:	13010000 	movwne	r0, #4096	; 0x1000
     90c:	00007d11 	andeq	r7, r0, r1, lsl sp
     910:	03101300 	tsteq	r0, #0, 6
     914:	14010000 	strne	r0, [r1], #-0
     918:	00007d11 	andeq	r7, r0, r1, lsl sp
     91c:	69621400 	stmdbvs	r2!, {sl, ip}^
     920:	1501006e 	strne	r0, [r1, #-110]	; 0xffffff92
     924:	0003160f 	andeq	r1, r3, pc, lsl #12
     928:	02d51500 	sbcseq	r1, r5, #0, 10
     92c:	19010000 	stmdbne	r1, {}	; <UNPREDICTABLE>
     930:	00002c0e 	andeq	r2, r0, lr, lsl #24
     934:	00029200 	andeq	r9, r2, r0, lsl #4
     938:	00028e00 	andeq	r8, r2, r0, lsl #28
     93c:	02de1500 	sbcseq	r1, lr, #0, 10
     940:	1d010000 	stcne	0, cr0, [r1, #-0]
     944:	00002c0e 	andeq	r2, r0, lr, lsl #24
     948:	0002b600 	andeq	fp, r2, r0, lsl #12
     94c:	0002b000 	andeq	fp, r2, r0
     950:	00d60e00 	sbcseq	r0, r6, r0, lsl #28
     954:	032c0000 			; <UNDEFINED> instruction: 0x032c0000
     958:	03050000 	movweq	r0, #20480	; 0x5000
     95c:	00009f38 	andeq	r9, r0, r8, lsr pc
     960:	01007016 	tsteq	r0, r6, lsl r0
     964:	03310b23 	teqeq	r1, #35840	; 0x8c00
     968:	02e50000 	rsceq	r0, r5, #0
     96c:	02e10000 	rsceq	r0, r1, #0
     970:	340f0000 	strcc	r0, [pc], #-0	; 978 <__code_start__-0x7688>
     974:	4f000084 	svcmi	0x00000084
     978:	63000003 	movwvs	r0, #3
     97c:	10000002 	andne	r0, r0, r2
     980:	74025001 	strvc	r5, [r2], #-1
     984:	3c0f0000 	stccc	0, cr0, [pc], {-0}
     988:	5b000084 	blpl	ba0 <__code_start__-0x7460>
     98c:	77000003 	strvc	r0, [r0, -r3]
     990:	10000002 	andne	r0, r0, r2
     994:	76025001 	strvc	r5, [r2], -r1
     998:	540f0000 	strpl	r0, [pc], #-0	; 9a0 <__code_start__-0x7660>
     99c:	67000084 	strvs	r0, [r0, -r4, lsl #1]
     9a0:	91000003 	tstls	r0, r3
     9a4:	10000002 	andne	r0, r0, r2
     9a8:	75025001 	strvc	r5, [r2, #-1]
     9ac:	51011000 	mrspl	r1, (UNDEF: 1)
     9b0:	00007602 	andeq	r7, r0, r2, lsl #12
     9b4:	0084800f 	addeq	r8, r4, pc
     9b8:	00033700 	andeq	r3, r3, r0, lsl #14
     9bc:	0002ca00 	andeq	ip, r2, r0, lsl #20
     9c0:	50011000 	andpl	r1, r1, r0
     9c4:	9d180305 	ldcls	3, cr0, [r8, #-20]	; 0xffffffec
     9c8:	01100000 	tsteq	r0, r0
     9cc:	c0030551 	andgt	r0, r3, r1, asr r5
     9d0:	1000009e 	mulne	r0, lr, r0
     9d4:	03055201 	movweq	r5, #20993	; 0x5201
     9d8:	00009f38 	andeq	r9, r0, r8, lsr pc
     9dc:	02530110 	subseq	r0, r3, #16, 2
     9e0:	02102108 	andseq	r2, r0, #8, 2
     9e4:	0305007d 	movweq	r0, #20605	; 0x507d
     9e8:	00009ed0 	ldrdeq	r9, [r0], -r0
     9ec:	84841100 	strhi	r1, [r4], #256	; 0x100
     9f0:	03430000 	movteq	r0, #12288	; 0x3000
     9f4:	a00f0000 	andge	r0, pc, r0
     9f8:	37000084 	strcc	r0, [r0, -r4, lsl #1]
     9fc:	0c000003 	stceq	0, cr0, [r0], {3}
     a00:	10000003 	andne	r0, r0, r3
     a04:	03055001 	movweq	r5, #20481	; 0x5001
     a08:	00009d18 	andeq	r9, r0, r8, lsl sp
     a0c:	05510110 	ldrbeq	r0, [r1, #-272]	; 0xfffffef0
     a10:	009ec003 	addseq	ip, lr, r3
     a14:	52011000 	andpl	r1, r1, #0
     a18:	9f380305 	svcls	0x00380305
     a1c:	01100000 	tsteq	r0, r0
     a20:	2b080253 	blcs	201374 <__bss_end__+0x1f681c>
     a24:	007d0210 	rsbseq	r0, sp, r0, lsl r2
     a28:	9ee40305 	cdpls	3, 14, cr0, cr4, cr5, {0}
     a2c:	11000000 	mrsne	r0, (UNDEF: 0)
     a30:	000084a4 	andeq	r8, r0, r4, lsr #9
     a34:	00000343 	andeq	r0, r0, r3, asr #6
     a38:	5d040500 	cfstr32pl	mvfx0, [r4, #-0]
     a3c:	0a000000 	beq	a44 <__code_start__-0x75bc>
     a40:	00000084 	andeq	r0, r0, r4, lsl #1
     a44:	0000032c 	andeq	r0, r0, ip, lsr #6
     a48:	00002c0b 	andeq	r2, r0, fp, lsl #24
     a4c:	06000d00 	streq	r0, [r0], -r0, lsl #26
     a50:	0000031c 	andeq	r0, r0, ip, lsl r3
     a54:	007d0405 	rsbseq	r0, sp, r5, lsl #8
     a58:	25170000 	ldrcs	r0, [r7, #-0]
     a5c:	25000008 	strcs	r0, [r0, #-8]
     a60:	03000008 	movweq	r0, #8
     a64:	f9170628 			; <UNDEFINED> instruction: 0xf9170628
     a68:	f9000000 			; <UNDEFINED> instruction: 0xf9000000
     a6c:	03000000 	movweq	r0, #0
     a70:	1d17066e 	ldcne	6, cr0, [r7, #-440]	; 0xfffffe48
     a74:	1d000003 	stcne	0, cr0, [r0, #-12]
     a78:	03000003 	movweq	r0, #3
     a7c:	e51707ef 	ldr	r0, [r7, #-2031]	; 0xfffff811
     a80:	e5000002 	str	r0, [r0, #-2]
     a84:	03000002 	movweq	r0, #2
     a88:	ec1708ec 	ldc	8, cr0, [r7], {236}	; 0xec
     a8c:	ec000002 	stc	0, cr0, [r0], {2}
     a90:	03000002 	movweq	r0, #2
     a94:	c10007ed 	smlattgt	r0, sp, r7, r0
     a98:	04000001 	streq	r0, [r0], #-1
     a9c:	00040d00 	andeq	r0, r4, r0, lsl #26
     aa0:	22010400 	andcs	r0, r1, #0, 8
     aa4:	0c000001 	stceq	0, cr0, [r0], {1}
     aa8:	000003ba 			; <UNDEFINED> instruction: 0x000003ba
     aac:	0000027d 	andeq	r0, r0, sp, ror r2
     ab0:	00008574 	andeq	r8, r0, r4, ror r5
     ab4:	00000074 	andeq	r0, r0, r4, ror r0
     ab8:	0000056c 	andeq	r0, r0, ip, ror #10
     abc:	69050402 	stmdbvs	r5, {r1, sl}
     ac0:	0300746e 	movweq	r7, #1134	; 0x46e
     ac4:	01bf0704 			; <UNDEFINED> instruction: 0x01bf0704
     ac8:	01030000 	mrseq	r0, (UNDEF: 3)
     acc:	00011606 	andeq	r1, r1, r6, lsl #12
     ad0:	05020300 	streq	r0, [r2, #-768]	; 0xfffffd00
     ad4:	0000003d 	andeq	r0, r0, sp, lsr r0
     ad8:	c8050403 	stmdagt	r5, {r0, r1, sl}
     adc:	03000000 	movweq	r0, #0
     ae0:	00c30508 	sbceq	r0, r3, r8, lsl #10
     ae4:	01030000 	mrseq	r0, (UNDEF: 3)
     ae8:	00011408 	andeq	r1, r1, r8, lsl #8
     aec:	07020300 	streq	r0, [r2, -r0, lsl #6]
     af0:	000001f6 	strdeq	r0, [r0], -r6
     af4:	00009404 	andeq	r9, r0, r4, lsl #8
     af8:	19340500 	ldmdbne	r4!, {r8, sl}
     afc:	00000069 	andeq	r0, r0, r9, rrx
     b00:	ba070403 	blt	1c1b14 <__bss_end__+0x1b6fbc>
     b04:	03000001 	movweq	r0, #1
     b08:	01b50708 			; <UNDEFINED> instruction: 0x01b50708
     b0c:	01030000 	mrseq	r0, (UNDEF: 3)
     b10:	00011d08 	andeq	r1, r1, r8, lsl #26
     b14:	03810500 	orreq	r0, r1, #0, 10
     b18:	05010000 	streq	r0, [r1, #-0]
     b1c:	00002c11 	andeq	r2, r0, r1, lsl ip
     b20:	30030500 	andcc	r0, r3, r0, lsl #10
     b24:	060000a7 	streq	r0, [r0], -r7, lsr #1
     b28:	00000356 	andeq	r0, r0, r6, asr r3
     b2c:	2c0a1901 			; <UNDEFINED> instruction: 0x2c0a1901
     b30:	d8000000 	stmdale	r0, {}	; <UNPREDICTABLE>
     b34:	10000085 	andne	r0, r0, r5, lsl #1
     b38:	01000000 	mrseq	r0, (UNDEF: 0)
     b3c:	03a7079c 			; <UNDEFINED> instruction: 0x03a7079c
     b40:	12010000 	andne	r0, r1, #0
     b44:	00002505 	andeq	r2, r0, r5, lsl #10
     b48:	0085ac00 	addeq	sl, r5, r0, lsl #24
     b4c:	00002c00 	andeq	r2, r0, r0, lsl #24
     b50:	269c0100 	ldrcs	r0, [ip], r0, lsl #2
     b54:	08000001 	stmdaeq	r0, {r0}
     b58:	000003c8 	andeq	r0, r0, r8, asr #7
     b5c:	2b1e1201 	blcs	785368 <__bss_end__+0x77a810>
     b60:	09000001 	stmdbeq	r0, {r0}
     b64:	03000003 	movweq	r0, #3
     b68:	09000003 	stmdbeq	r0, {r0, r1}
     b6c:	01007073 	tsteq	r0, r3, ror r0
     b70:	005d3712 	subseq	r3, sp, r2, lsl r7
     b74:	03390000 	teqeq	r9, #0
     b78:	03350000 	teqeq	r5, #0
     b7c:	780a0000 	stmdavc	sl, {}	; <UNPREDICTABLE>
     b80:	09140100 	ldmdbeq	r4, {r8}
     b84:	00000025 	andeq	r0, r0, r5, lsr #32
     b88:	0000035b 	andeq	r0, r0, fp, asr r3
     b8c:	00000357 	andeq	r0, r0, r7, asr r3
     b90:	0085bc0b 	addeq	fp, r5, fp, lsl #24
     b94:	00018800 	andeq	r8, r1, r0, lsl #16
     b98:	85c80c00 	strbhi	r0, [r8, #3072]	; 0xc00
     b9c:	01940000 	orrseq	r0, r4, r0
     ba0:	011c0000 	tsteq	ip, r0
     ba4:	010d0000 	mrseq	r0, (UNDEF: 13)
     ba8:	00740250 	rsbseq	r0, r4, r0, asr r2
     bac:	0251010d 	subseq	r0, r1, #1073741827	; 0x40000003
     bb0:	0b000075 	bleq	d8c <__code_start__-0x7274>
     bb4:	000085d0 	ldrdeq	r8, [r0], -r0
     bb8:	000001a0 	andeq	r0, r0, r0, lsr #3
     bbc:	00250e00 	eoreq	r0, r5, r0, lsl #28
     bc0:	040f0000 	streq	r0, [pc], #-0	; bc8 <__code_start__-0x7438>
     bc4:	00000126 	andeq	r0, r0, r6, lsr #2
     bc8:	00036610 	andeq	r6, r3, r0, lsl r6
     bcc:	06080100 	streq	r0, [r8], -r0, lsl #2
     bd0:	00008574 	andeq	r8, r0, r4, ror r5
     bd4:	00000038 	andeq	r0, r0, r8, lsr r0
     bd8:	01889c01 	orreq	r9, r8, r1, lsl #24
     bdc:	70090000 	andvc	r0, r9, r0
     be0:	08010063 	stmdaeq	r1, {r0, r1, r5, r6}
     be4:	00002c2a 	andeq	r2, r0, sl, lsr #24
     be8:	00037f00 	andeq	r7, r3, r0, lsl #30
     bec:	00037900 	andeq	r7, r3, r0, lsl #18
     bf0:	85880c00 	strhi	r0, [r8, #3072]	; 0xc00
     bf4:	01ac0000 			; <UNDEFINED> instruction: 0x01ac0000
     bf8:	01770000 	cmneq	r7, r0
     bfc:	010d0000 	mrseq	r0, (UNDEF: 13)
     c00:	54030550 	strpl	r0, [r3], #-1360	; 0xfffffab0
     c04:	0d00009f 	stceq	0, cr0, [r0, #-636]	; 0xfffffd84
     c08:	74025101 	strvc	r5, [r2], #-257	; 0xfffffeff
     c0c:	90110000 	andsls	r0, r1, r0
     c10:	b8000085 	stmdalt	r0, {r0, r2, r7}
     c14:	0d000001 	stceq	0, cr0, [r0, #-4]
     c18:	74025001 	strvc	r5, [r2], #-1
     c1c:	12000000 	andne	r0, r0, #0
     c20:	000003d0 	ldrdeq	r0, [r0], -r0	; <UNPREDICTABLE>
     c24:	000003d0 	ldrdeq	r0, [r0], -r0	; <UNPREDICTABLE>
     c28:	12060202 	andne	r0, r6, #536870912	; 0x20000000
     c2c:	00000331 	andeq	r0, r0, r1, lsr r3
     c30:	00000331 	andeq	r0, r0, r1, lsr r3
     c34:	12052303 	andne	r2, r5, #201326592	; 0xc000000
     c38:	00000342 	andeq	r0, r0, r2, asr #6
     c3c:	00000342 	andeq	r0, r0, r2, asr #6
     c40:	12060502 	andne	r0, r6, #8388608	; 0x800000
     c44:	00000825 	andeq	r0, r0, r5, lsr #16
     c48:	00000825 	andeq	r0, r0, r5, lsr #16
     c4c:	12062804 	andne	r2, r6, #4, 16	; 0x40000
     c50:	00000394 	muleq	r0, r4, r3
     c54:	00000394 	muleq	r0, r4, r3
     c58:	00060d02 	andeq	r0, r6, r2, lsl #26
     c5c:	00000717 	andeq	r0, r0, r7, lsl r7
     c60:	053d0004 	ldreq	r0, [sp, #-4]!
     c64:	01040000 	mrseq	r0, (UNDEF: 4)
     c68:	00000122 	andeq	r0, r0, r2, lsr #2
     c6c:	0004b20c 	andeq	fp, r4, ip, lsl #4
     c70:	00027d00 	andeq	r7, r2, r0, lsl #26
     c74:	0085e800 	addeq	lr, r5, r0, lsl #16
     c78:	0001ec00 	andeq	lr, r1, r0, lsl #24
     c7c:	00069500 	andeq	r9, r6, r0, lsl #10
     c80:	05040200 	streq	r0, [r4, #-512]	; 0xfffffe00
     c84:	00746e69 	rsbseq	r6, r4, r9, ror #28
     c88:	bf070403 	svclt	0x00070403
     c8c:	03000001 	movweq	r0, #1
     c90:	01160601 	tsteq	r6, r1, lsl #12
     c94:	02030000 	andeq	r0, r3, #0
     c98:	00003d05 	andeq	r3, r0, r5, lsl #26
     c9c:	05040300 	streq	r0, [r4, #-768]	; 0xfffffd00
     ca0:	000000c8 	andeq	r0, r0, r8, asr #1
     ca4:	c3050803 	movwgt	r0, #22531	; 0x5803
     ca8:	03000000 	movweq	r0, #0
     cac:	01140801 	tsteq	r4, r1, lsl #16
     cb0:	02030000 	andeq	r0, r3, #0
     cb4:	0001f607 	andeq	pc, r1, r7, lsl #12
     cb8:	00940400 	addseq	r0, r4, r0, lsl #8
     cbc:	34050000 	strcc	r0, [r5], #-0
     cc0:	00006919 	andeq	r6, r0, r9, lsl r9
     cc4:	07040300 	streq	r0, [r4, -r0, lsl #6]
     cc8:	000001ba 			; <UNDEFINED> instruction: 0x000001ba
     ccc:	b5070803 	strlt	r0, [r7, #-2051]	; 0xfffff7fd
     cd0:	05000001 	streq	r0, [r0, #-1]
     cd4:	00008404 	andeq	r8, r0, r4, lsl #8
     cd8:	08010300 	stmdaeq	r1, {r8, r9}
     cdc:	0000011d 	andeq	r0, r0, sp, lsl r1
     ce0:	00007d06 	andeq	r7, r0, r6, lsl #26
     ce4:	01100700 	tsteq	r0, r0, lsl #14
     ce8:	00c70909 	sbceq	r0, r7, r9, lsl #18
     cec:	e5080000 	str	r0, [r8, #-0]
     cf0:	01000003 	tsteq	r0, r3
     cf4:	005d0e0a 	subseq	r0, sp, sl, lsl #28
     cf8:	08000000 	stmdaeq	r0, {}	; <UNPREDICTABLE>
     cfc:	000003ec 	andeq	r0, r0, ip, ror #7
     d00:	5d0e0b01 	vstrpl	d0, [lr, #-4]
     d04:	04000000 	streq	r0, [r0], #-0
     d08:	00047508 	andeq	r7, r4, r8, lsl #10
     d0c:	0e0c0100 	adfeqe	f0, f4, f0
     d10:	0000005d 	andeq	r0, r0, sp, asr r0
     d14:	04a40808 	strteq	r0, [r4], #2056	; 0x808
     d18:	0d010000 	stceq	0, cr0, [r1, #-0]
     d1c:	00005d0e 	andeq	r5, r0, lr, lsl #26
     d20:	04000c00 	streq	r0, [r0], #-3072	; 0xfffff400
     d24:	00000405 	andeq	r0, r0, r5, lsl #8
     d28:	89030e01 	stmdbhi	r3, {r0, r9, sl, fp}
     d2c:	09000000 	stmdbeq	r0, {}	; <UNPREDICTABLE>
     d30:	00000453 	andeq	r0, r0, r3, asr r4
     d34:	c7141001 	ldrgt	r1, [r4, -r1]
     d38:	05000000 	streq	r0, [r0, #-0]
     d3c:	00a73803 	adceq	r3, r7, r3, lsl #16
     d40:	044b0900 	strbeq	r0, [fp], #-2304	; 0xfffff700
     d44:	13010000 	movwne	r0, #4096	; 0x1000
     d48:	0000250c 	andeq	r2, r0, ip, lsl #10
     d4c:	34030500 	strcc	r0, [r3], #-1280	; 0xfffffb00
     d50:	0a0000a7 	beq	ff4 <__code_start__-0x700c>
     d54:	000004ba 			; <UNDEFINED> instruction: 0x000004ba
     d58:	24063901 	strcs	r3, [r6], #-2305	; 0xfffff6ff
     d5c:	b0000087 	andlt	r0, r0, r7, lsl #1
     d60:	01000000 	mrseq	r0, (UNDEF: 0)
     d64:	0001e59c 	muleq	r1, ip, r5
     d68:	736d0b00 	cmnvc	sp, #0, 22
     d6c:	39010067 	stmdbcc	r1, {r0, r1, r2, r5, r6}
     d70:	0000771e 	andeq	r7, r0, lr, lsl r7
     d74:	0003b200 	andeq	fp, r3, r0, lsl #4
     d78:	0003a800 	andeq	sl, r3, r0, lsl #16
     d7c:	00630c00 	rsbeq	r0, r3, r0, lsl #24
     d80:	c7113a01 	ldrgt	r3, [r1, -r1, lsl #20]
     d84:	02000000 	andeq	r0, r0, #0
     d88:	600d6891 	mulvs	sp, r1, r8
     d8c:	de000087 	cdple	0, 0, cr0, cr0, cr7, {4}
     d90:	4c000006 	stcmi	0, cr0, [r0], {6}
     d94:	0e000001 	cdpeq	0, 0, cr0, cr0, cr1, {0}
     d98:	03055001 	movweq	r5, #20481	; 0x5001
     d9c:	00009fec 	andeq	r9, r0, ip, ror #31
     da0:	0351010e 	cmpeq	r1, #-2147483645	; 0x80000003
     da4:	005001f3 	ldrsheq	r0, [r0], #-19	; 0xffffffed
     da8:	0087680d 	addeq	r6, r7, sp, lsl #16
     dac:	0006de00 	andeq	sp, r6, r0, lsl #28
     db0:	00016300 	andeq	r6, r1, r0, lsl #6
     db4:	50010e00 	andpl	r0, r1, r0, lsl #28
     db8:	9ff00305 	svcls	0x00f00305
     dbc:	0d000000 	stceq	0, cr0, [r0, #-0]
     dc0:	00008774 	andeq	r8, r0, r4, ror r7
     dc4:	000006de 	ldrdeq	r0, [r0], -lr
     dc8:	00000180 	andeq	r0, r0, r0, lsl #3
     dcc:	0550010e 	ldrbeq	r0, [r0, #-270]	; 0xfffffef2
     dd0:	009ff803 	addseq	pc, pc, r3, lsl #16
     dd4:	51010e00 	tstpl	r1, r0, lsl #28
     dd8:	00007402 	andeq	r7, r0, r2, lsl #8
     ddc:	0087940d 	addeq	r9, r7, sp, lsl #8
     de0:	0006de00 	andeq	sp, r6, r0, lsl #28
     de4:	00019700 	andeq	r9, r1, r0, lsl #14
     de8:	50010e00 	andpl	r0, r1, r0, lsl #28
     dec:	9ff00305 	svcls	0x00f00305
     df0:	0d000000 	stceq	0, cr0, [r0, #-0]
     df4:	000087a0 	andeq	r8, r0, r0, lsr #15
     df8:	000006de 	ldrdeq	r0, [r0], -lr
     dfc:	000001b4 			; <UNDEFINED> instruction: 0x000001b4
     e00:	0550010e 	ldrbeq	r0, [r0, #-270]	; 0xfffffef2
     e04:	00a03403 	adceq	r3, r0, r3, lsl #8
     e08:	51010e00 	tstpl	r1, r0, lsl #28
     e0c:	00007402 	andeq	r7, r0, r2, lsl #8
     e10:	0087ac0d 	addeq	sl, r7, sp, lsl #24
     e14:	0006de00 	andeq	sp, r6, r0, lsl #28
     e18:	0001cb00 	andeq	ip, r1, r0, lsl #22
     e1c:	50010e00 	andpl	r0, r1, r0, lsl #28
     e20:	9ff00305 	svcls	0x00f00305
     e24:	0f000000 	svceq	0x00000000
     e28:	000087b8 			; <UNDEFINED> instruction: 0x000087b8
     e2c:	000006de 	ldrdeq	r0, [r0], -lr
     e30:	0550010e 	ldrbeq	r0, [r0, #-270]	; 0xfffffef2
     e34:	00a01c03 	adceq	r1, r0, r3, lsl #24
     e38:	51010e00 	tstpl	r1, r0, lsl #28
     e3c:	00007402 	andeq	r7, r0, r2, lsl #8
     e40:	04681000 	strbteq	r1, [r8], #-0
     e44:	2c010000 	stccs	0, cr0, [r1], {-0}
     e48:	00002505 	andeq	r2, r0, r5, lsl #10
     e4c:	00863800 	addeq	r3, r6, r0, lsl #16
     e50:	0000ec00 	andeq	lr, r0, r0, lsl #24
     e54:	3b9c0100 	blcc	fe70125c <__bss_end__+0xfe6f6704>
     e58:	11000004 	tstne	r0, r4
     e5c:	000003c8 	andeq	r0, r0, r8, asr #7
     e60:	40182c01 	andsmi	r2, r8, r1, lsl #24
     e64:	fb000004 	blx	e7e <__code_start__-0x7182>
     e68:	f7000003 			; <UNDEFINED> instruction: 0xf7000003
     e6c:	0b000003 	bleq	e80 <__code_start__-0x7180>
     e70:	01007073 	tsteq	r0, r3, ror r0
     e74:	005d312c 	subseq	r3, sp, ip, lsr #2
     e78:	041d0000 	ldreq	r0, [sp], #-0
     e7c:	04190000 	ldreq	r0, [r9], #-0
     e80:	fd110000 	ldc2	0, cr0, [r1, #-0]
     e84:	01000003 	tsteq	r0, r3
     e88:	002c3e2c 	eoreq	r3, ip, ip, lsr #28
     e8c:	043f0000 	ldrteq	r0, [pc], #-0	; e94 <__code_start__-0x716c>
     e90:	043b0000 	ldrteq	r0, [fp], #-0
     e94:	d6120000 	ldrle	r0, [r2], -r0
     e98:	56000000 	strpl	r0, [r0], -r0
     e9c:	05000004 	streq	r0, [r0, #-4]
     ea0:	00a08803 	adceq	r8, r0, r3, lsl #16
     ea4:	00781300 	rsbseq	r1, r8, r0, lsl #6
     ea8:	25093401 	strcs	r3, [r9, #-1025]	; 0xfffffbff
     eac:	14000000 	strne	r0, [r0], #-0
     eb0:	00000594 	muleq	r0, r4, r5
     eb4:	00008668 	andeq	r8, r0, r8, ror #12
     eb8:	00000002 	andeq	r0, r0, r2
     ebc:	05300100 	ldreq	r0, [r0, #-256]!	; 0xffffff00
     ec0:	0000037f 	andeq	r0, r0, pc, ror r3
     ec4:	0005a115 	andeq	sl, r5, r5, lsl r1
     ec8:	00866800 	addeq	r6, r6, r0, lsl #16
     ecc:	00080400 	andeq	r0, r8, r0, lsl #8
     ed0:	29020000 	stmdbcs	r2, {}	; <UNPREDICTABLE>
     ed4:	05b21630 	ldreq	r1, [r2, #1584]!	; 0x630
     ed8:	04610000 	strbteq	r0, [r1], #-0
     edc:	045d0000 	ldrbeq	r0, [sp], #-0
     ee0:	c0170000 	andsgt	r0, r7, r0
     ee4:	68000006 	stmdavs	r0, {r1, r2}
     ee8:	06000086 	streq	r0, [r0], -r6, lsl #1
     eec:	00008668 	andeq	r8, r0, r8, ror #12
     ef0:	00000004 	andeq	r0, r0, r4
     ef4:	ad332802 	ldcge	8, cr2, [r3, #-8]!
     ef8:	18000002 	stmdane	r0, {r1}
     efc:	000006d1 	ldrdeq	r0, [r0], -r1
     f00:	00000483 	andeq	r0, r0, r3, lsl #9
     f04:	00000481 	andeq	r0, r0, r1, lsl #9
     f08:	05bf1500 	ldreq	r1, [pc, #1280]!	; 1410 <__code_start__-0x6bf0>
     f0c:	866c0000 	strbthi	r0, [ip], -r0
     f10:	30020000 	andcc	r0, r2, r0
     f14:	02000000 	andeq	r0, r0, #0
     f18:	d0163328 	andsle	r3, r6, r8, lsr #6
     f1c:	98000005 	stmdals	r0, {r0, r2}
     f20:	96000004 	strls	r0, [r0], -r4
     f24:	19000004 	stmdbne	r0, {r2}
     f28:	00000030 	andeq	r0, r0, r0, lsr r0
     f2c:	0005dc18 	andeq	sp, r5, r8, lsl ip
     f30:	0004b100 	andeq	fp, r4, r0, lsl #2
     f34:	0004ab00 	andeq	sl, r4, r0, lsl #22
     f38:	06491400 	strbeq	r1, [r9], -r0, lsl #8
     f3c:	866c0000 	strbthi	r0, [ip], -r0
     f40:	50040000 	andpl	r0, r4, r0
     f44:	02000000 	andeq	r0, r0, #0
     f48:	031f1513 	tsteq	pc, #79691776	; 0x4c00000
     f4c:	6f160000 	svcvs	0x00160000
     f50:	dd000006 	stcle	0, cr0, [r0, #-24]	; 0xffffffe8
     f54:	db000004 	blle	f6c <__code_start__-0x7094>
     f58:	16000004 	strne	r0, [r0], -r4
     f5c:	00000664 	andeq	r0, r0, r4, ror #12
     f60:	000004f3 	strdeq	r0, [r0], -r3
     f64:	000004f1 	strdeq	r0, [r0], -r1
     f68:	00065a16 	andeq	r5, r6, r6, lsl sl
     f6c:	00050900 	andeq	r0, r5, r0, lsl #18
     f70:	00050700 	andeq	r0, r5, r0, lsl #14
     f74:	00501a00 	subseq	r1, r0, r0, lsl #20
     f78:	15000000 	strne	r0, [r0, #-0]
     f7c:	00000607 	andeq	r0, r0, r7, lsl #12
     f80:	00008670 	andeq	r8, r0, r0, ror r6
     f84:	00006803 	andeq	r6, r0, r3, lsl #16
     f88:	05140200 	ldreq	r0, [r4, #-512]	; 0xfffffe00
     f8c:	00061816 	andeq	r1, r6, r6, lsl r8
     f90:	00052200 	andeq	r2, r5, r0, lsl #4
     f94:	00051c00 	andeq	r1, r5, r0, lsl #24
     f98:	00681900 	rsbeq	r1, r8, r0, lsl #18
     f9c:	d40d0000 	strle	r0, [sp], #-0
     fa0:	de000086 	cdple	0, 0, cr0, cr0, cr6, {4}
     fa4:	70000006 	andvc	r0, r0, r6
     fa8:	0e000003 	cdpeq	0, 0, cr0, cr0, cr3, {0}
     fac:	03055001 	movweq	r5, #20481	; 0x5001
     fb0:	00009fb8 			; <UNDEFINED> instruction: 0x00009fb8
     fb4:	0551010e 	ldrbeq	r0, [r1, #-270]	; 0xfffffef2
     fb8:	009fac03 	addseq	sl, pc, r3, lsl #24
     fbc:	52010e00 	andpl	r0, r1, #0, 28
     fc0:	a07c0305 	rsbsge	r0, ip, r5, lsl #6
     fc4:	010e0000 	mrseq	r0, (UNDEF: 14)
     fc8:	00400153 	subeq	r0, r0, r3, asr r1
     fcc:	0086d81b 	addeq	sp, r6, fp, lsl r8
     fd0:	0006ea00 	andeq	lr, r6, r0, lsl #20
     fd4:	00000000 	andeq	r0, r0, r0
     fd8:	0d000000 	stceq	0, cr0, [r0, #-0]
     fdc:	00008664 	andeq	r8, r0, r4, ror #12
     fe0:	000006f6 	strdeq	r0, [r0], -r6
     fe4:	0000039d 	muleq	r0, sp, r3
     fe8:	0250010e 	subseq	r0, r0, #-2147483645	; 0x80000003
     fec:	010e0477 	tsteq	lr, r7, ror r4
     ff0:	0e300151 	mrceq	1, 1, r0, cr0, cr1, {2}
     ff4:	40015201 	andmi	r5, r1, r1, lsl #4
     ff8:	86b80d00 	ldrthi	r0, [r8], r0, lsl #26
     ffc:	06de0000 	ldrbeq	r0, [lr], r0
    1000:	03d60000 	bicseq	r0, r6, #0
    1004:	010e0000 	mrseq	r0, (UNDEF: 14)
    1008:	18030550 	stmdane	r3, {r4, r6, r8, sl}
    100c:	0e00009d 	mcreq	0, 0, r0, cr0, cr13, {4}
    1010:	03055101 	movweq	r5, #20737	; 0x5101
    1014:	00009f78 	andeq	r9, r0, r8, ror pc
    1018:	0552010e 	ldrbeq	r0, [r2, #-270]	; 0xfffffef2
    101c:	00a08803 	adceq	r8, r0, r3, lsl #16
    1020:	53010e00 	movwpl	r0, #7680	; 0x1e00
    1024:	0e300802 	cdpeq	8, 3, cr0, cr0, cr2, {0}
    1028:	05007d02 	streq	r7, [r0, #-3330]	; 0xfffff2fe
    102c:	009fdc03 	addseq	sp, pc, r3, lsl #24
    1030:	bc1b0000 	ldclt	0, cr0, [fp], {-0}
    1034:	ea000086 	b	1254 <__code_start__-0x6dac>
    1038:	1b000006 	blne	1058 <__code_start__-0x6fa8>
    103c:	000086dc 	ldrdeq	r8, [r0], -ip
    1040:	00000702 	andeq	r0, r0, r2, lsl #14
    1044:	0086e80d 	addeq	lr, r6, sp, lsl #16
    1048:	00070e00 	andeq	r0, r7, r0, lsl #28
    104c:	00040200 	andeq	r0, r4, r0, lsl #4
    1050:	50010e00 	andpl	r0, r1, r0, lsl #28
    1054:	0e007502 	cfsh32eq	mvfx7, mvfx0, #2
    1058:	76025101 	strvc	r5, [r2], -r1, lsl #2
    105c:	fc0d0000 	stc2	0, cr0, [sp], {-0}
    1060:	de000086 	cdple	0, 0, cr0, cr0, cr6, {4}
    1064:	31000006 	tstcc	r0, r6
    1068:	0e000004 	cdpeq	0, 0, cr0, cr0, cr4, {0}
    106c:	03055001 	movweq	r5, #20481	; 0x5001
    1070:	00009e74 	andeq	r9, r0, r4, ror lr
    1074:	0551010e 	ldrbeq	r0, [r1, #-270]	; 0xfffffef2
    1078:	009f7803 	addseq	r7, pc, r3, lsl #16
    107c:	52010e00 	andpl	r0, r1, #0, 28
    1080:	a0880305 	addge	r0, r8, r5, lsl #6
    1084:	010e0000 	mrseq	r0, (UNDEF: 14)
    1088:	35080253 	strcc	r0, [r8, #-595]	; 0xfffffdad
    108c:	87001b00 	strhi	r1, [r0, -r0, lsl #22]
    1090:	06ea0000 	strbteq	r0, [sl], r0
    1094:	1c000000 	stcne	0, cr0, [r0], {-0}
    1098:	00000025 	andeq	r0, r0, r5, lsr #32
    109c:	043b0405 	ldrteq	r0, [fp], #-1029	; 0xfffffbfb
    10a0:	841d0000 	ldrhi	r0, [sp], #-0
    10a4:	56000000 	strpl	r0, [r0], -r0
    10a8:	1e000004 	cdpne	0, 0, cr0, cr0, cr4, {0}
    10ac:	0000002c 	andeq	r0, r0, ip, lsr #32
    10b0:	4606000c 	strmi	r0, [r6], -ip
    10b4:	0a000004 	beq	10cc <__code_start__-0x6f34>
    10b8:	00000424 	andeq	r0, r0, r4, lsr #8
    10bc:	10062601 	andne	r2, r6, r1, lsl #12
    10c0:	28000086 	stmdacs	r0, {r1, r2, r7}
    10c4:	01000000 	mrseq	r0, (UNDEF: 0)
    10c8:	0004f49c 	muleq	r4, ip, r4
    10cc:	04c61100 	strbeq	r1, [r6], #256	; 0x100
    10d0:	26010000 	strcs	r0, [r1], -r0
    10d4:	0004f425 	andeq	pc, r4, r5, lsr #8
    10d8:	00055000 	andeq	r5, r5, r0
    10dc:	00054c00 	andeq	r4, r5, r0, lsl #24
    10e0:	04111100 	ldreq	r1, [r1], #-256	; 0xffffff00
    10e4:	26010000 	strcs	r0, [r1], -r0
    10e8:	00005d34 	andeq	r5, r0, r4, lsr sp
    10ec:	00057500 	andeq	r7, r5, r0, lsl #10
    10f0:	00057100 	andeq	r7, r5, r0, lsl #2
    10f4:	63700b00 	cmnvs	r0, #0, 22
    10f8:	43260100 			; <UNDEFINED> instruction: 0x43260100
    10fc:	0000005d 	andeq	r0, r0, sp, asr r0
    1100:	0000059a 	muleq	r0, sl, r5
    1104:	00000596 	muleq	r0, r6, r5
    1108:	0000d612 	andeq	sp, r0, r2, lsl r6
    110c:	00050a00 	andeq	r0, r5, r0, lsl #20
    1110:	64030500 	strvs	r0, [r3], #-1280	; 0xfffffb00
    1114:	0d0000a0 	stceq	0, cr0, [r0, #-640]	; 0xfffffd80
    1118:	00008628 	andeq	r8, r0, r8, lsr #12
    111c:	000006de 	ldrdeq	r0, [r0], -lr
    1120:	000004ea 	andeq	r0, r0, sl, ror #9
    1124:	0550010e 	ldrbeq	r0, [r0, #-270]	; 0xfffffef2
    1128:	009f8003 	addseq	r8, pc, r3
    112c:	51010e00 	tstpl	r1, r0, lsl #28
    1130:	9f780305 	svcls	0x00780305
    1134:	010e0000 	mrseq	r0, (UNDEF: 14)
    1138:	64030552 	strvs	r0, [r3], #-1362	; 0xfffffaae
    113c:	0e0000a0 	cdpeq	0, 0, cr0, cr0, cr0, {5}
    1140:	08025301 	stmdaeq	r2, {r0, r8, r9, ip, lr}
    1144:	2c1b0027 	ldccs	0, cr0, [fp], {39}	; 0x27
    1148:	ea000086 	b	1368 <__code_start__-0x6c98>
    114c:	00000006 	andeq	r0, r0, r6
    1150:	005d0405 	subseq	r0, sp, r5, lsl #8
    1154:	841d0000 	ldrhi	r0, [sp], #-0
    1158:	0a000000 	beq	1160 <__code_start__-0x6ea0>
    115c:	1e000005 	cdpne	0, 0, cr0, cr0, cr5, {0}
    1160:	0000002c 	andeq	r0, r0, ip, lsr #32
    1164:	fa060014 	blx	1811bc <__bss_end__+0x176664>
    1168:	0a000004 	beq	1180 <__code_start__-0x6e80>
    116c:	0000047e 	andeq	r0, r0, lr, ror r4
    1170:	e8061c01 	stmda	r6, {r0, sl, fp, ip}
    1174:	28000085 	stmdacs	r0, {r0, r2, r7}
    1178:	01000000 	mrseq	r0, (UNDEF: 0)
    117c:	00057f9c 	muleq	r5, ip, pc	; <UNPREDICTABLE>
    1180:	63700b00 	cmnvs	r0, #0, 22
    1184:	271c0100 	ldrcs	r0, [ip, -r0, lsl #2]
    1188:	0000002c 	andeq	r0, r0, ip, lsr #32
    118c:	000005bf 			; <UNDEFINED> instruction: 0x000005bf
    1190:	000005bb 			; <UNDEFINED> instruction: 0x000005bb
    1194:	0000d612 	andeq	sp, r0, r2, lsl r6
    1198:	00058f00 	andeq	r8, r5, r0, lsl #30
    119c:	4c030500 	cfstr32mi	mvfx0, [r3], {-0}
    11a0:	0d0000a0 	stceq	0, cr0, [r0, #-640]	; 0xfffffd80
    11a4:	00008600 	andeq	r8, r0, r0, lsl #12
    11a8:	000006de 	ldrdeq	r0, [r0], -lr
    11ac:	00000575 	andeq	r0, r0, r5, ror r5
    11b0:	0550010e 	ldrbeq	r0, [r0, #-270]	; 0xfffffef2
    11b4:	009f8003 	addseq	r8, pc, r3
    11b8:	51010e00 	tstpl	r1, r0, lsl #28
    11bc:	9f780305 	svcls	0x00780305
    11c0:	010e0000 	mrseq	r0, (UNDEF: 14)
    11c4:	4c030552 	cfstr32mi	mvfx0, [r3], {82}	; 0x52
    11c8:	0e0000a0 	cdpeq	0, 0, cr0, cr0, cr0, {5}
    11cc:	4d015301 	stcmi	3, cr5, [r1, #-4]
    11d0:	86041b00 	strhi	r1, [r4], -r0, lsl #22
    11d4:	06ea0000 	strbteq	r0, [sl], r0
    11d8:	1d000000 	stcne	0, cr0, [r0, #-0]
    11dc:	00000084 	andeq	r0, r0, r4, lsl #1
    11e0:	0000058f 	andeq	r0, r0, pc, lsl #11
    11e4:	00002c1e 	andeq	r2, r0, lr, lsl ip
    11e8:	06001700 	streq	r1, [r0], -r0, lsl #14
    11ec:	0000057f 	andeq	r0, r0, pc, ror r5
    11f0:	0004161f 	andeq	r1, r4, pc, lsl r6
    11f4:	13290200 			; <UNDEFINED> instruction: 0x13290200
    11f8:	00000025 	andeq	r0, r0, r5, lsr #32
    11fc:	04602003 	strbteq	r2, [r0], #-3
    1200:	28020000 	stmdacs	r2, {}	; <UNPREDICTABLE>
    1204:	00002513 	andeq	r2, r0, r3, lsl r5
    1208:	05bf0300 	ldreq	r0, [pc, #768]!	; 1510 <__code_start__-0x6af0>
    120c:	96210000 	strtls	r0, [r1], -r0
    1210:	02000004 	andeq	r0, r0, #4
    1214:	005d2428 	subseq	r2, sp, r8, lsr #8
    1218:	20000000 	andcs	r0, r0, r0
    121c:	0000049b 	muleq	r0, fp, r4
    1220:	5d181202 	lfmpl	f1, 4, [r8, #-8]
    1224:	03000000 	movweq	r0, #0
    1228:	000005f2 	strdeq	r0, [r0], -r2
    122c:	00045b21 	andeq	r5, r4, r1, lsr #22
    1230:	2a120200 	bcs	481a38 <__bss_end__+0x476ee0>
    1234:	0000005d 	andeq	r0, r0, sp, asr r0
    1238:	00049622 	andeq	r9, r4, r2, lsr #12
    123c:	0e130200 	cdpeq	2, 1, cr0, cr3, cr0, {0}
    1240:	0000002c 	andeq	r0, r0, ip, lsr #32
    1244:	0000d623 	andeq	sp, r0, r3, lsr #12
    1248:	00060200 	andeq	r0, r6, r0, lsl #4
    124c:	841d0000 	ldrhi	r0, [sp], #-0
    1250:	02000000 	andeq	r0, r0, #0
    1254:	1e000006 	cdpne	0, 0, cr0, cr0, cr6, {0}
    1258:	0000002c 	andeq	r0, r0, ip, lsr #32
    125c:	f2060008 	vhadd.s8	d0, d6, d8
    1260:	20000005 	andcs	r0, r0, r5
    1264:	00000440 	andeq	r0, r0, r0, asr #8
    1268:	25130802 	ldrcs	r0, [r3, #-2050]	; 0xfffff7fe
    126c:	03000000 	movweq	r0, #0
    1270:	00000634 	andeq	r0, r0, r4, lsr r6
    1274:	00049621 	andeq	r9, r4, r1, lsr #12
    1278:	27080200 	strcs	r0, [r8, -r0, lsl #4]
    127c:	0000002c 	andeq	r0, r0, ip, lsr #32
    1280:	0000d612 	andeq	sp, r0, r2, lsl r6
    1284:	00064400 	andeq	r4, r6, r0, lsl #8
    1288:	7c030500 	cfstr32vc	mvfx0, [r3], {-0}
    128c:	000000a0 	andeq	r0, r0, r0, lsr #1
    1290:	0000841d 	andeq	r8, r0, sp, lsl r4
    1294:	00064400 	andeq	r4, r6, r0, lsl #8
    1298:	002c1e00 	eoreq	r1, ip, r0, lsl #28
    129c:	000a0000 	andeq	r0, sl, r0
    12a0:	00063406 	andeq	r3, r6, r6, lsl #8
    12a4:	02cc2000 	sbceq	r2, ip, #0
    12a8:	39040000 	stmdbcc	r4, {}	; <UNPREDICTABLE>
    12ac:	00005d01 	andeq	r5, r0, r1, lsl #26
    12b0:	06840300 	streq	r0, [r4], r0, lsl #6
    12b4:	78240000 	stmdavc	r4!, {}	; <UNPREDICTABLE>
    12b8:	13390400 	teqne	r9, #0, 8
    12bc:	0000005d 	andeq	r0, r0, sp, asr r0
    12c0:	00626c24 	rsbeq	r6, r2, r4, lsr #24
    12c4:	2c1f3904 			; <UNDEFINED> instruction: 0x2c1f3904
    12c8:	24000000 	strcs	r0, [r0], #-0
    12cc:	04006275 	streq	r6, [r0], #-629	; 0xfffffd8b
    12d0:	002c2c39 	eoreq	r2, ip, r9, lsr ip
    12d4:	d6230000 	strtle	r0, [r3], -r0
    12d8:	02000000 	andeq	r0, r0, #0
    12dc:	00000006 	andeq	r0, r0, r6
    12e0:	00023d20 	andeq	r3, r2, r0, lsr #26
    12e4:	182f0400 	stmdane	pc!, {sl}	; <UNPREDICTABLE>
    12e8:	0000005d 	andeq	r0, r0, sp, asr r0
    12ec:	0006ab03 	andeq	sl, r6, r3, lsl #22
    12f0:	00a92100 	adceq	r2, r9, r0, lsl #2
    12f4:	2f040000 	svccs	0x00040000
    12f8:	00002c2b 	andeq	r2, r0, fp, lsr #24
    12fc:	00d62300 	sbcseq	r2, r6, r0, lsl #6
    1300:	06bb0000 	ldrteq	r0, [fp], r0
    1304:	1d000000 	stcne	0, cr0, [r0, #-0]
    1308:	00000084 	andeq	r0, r0, r4, lsl #1
    130c:	000006bb 			; <UNDEFINED> instruction: 0x000006bb
    1310:	00002c1e 	andeq	r2, r0, lr, lsl ip
    1314:	06000900 	streq	r0, [r0], -r0, lsl #18
    1318:	000006ab 	andeq	r0, r0, fp, lsr #13
    131c:	0003f420 	andeq	pc, r3, r0, lsr #8
    1320:	18290300 	stmdane	r9!, {r8, r9}
    1324:	0000005d 	andeq	r0, r0, sp, asr r0
    1328:	0006de03 	andeq	sp, r6, r3, lsl #28
    132c:	045b2200 	ldrbeq	r2, [fp], #-512	; 0xfffffe00
    1330:	2a030000 	bcs	c1338 <__bss_end__+0xb67e0>
    1334:	00005d0e 	andeq	r5, r0, lr, lsl #26
    1338:	25250000 	strcs	r0, [r5, #-0]!
    133c:	25000008 	strcs	r0, [r0, #-8]
    1340:	06000008 	streq	r0, [r0], -r8
    1344:	f9250628 			; <UNDEFINED> instruction: 0xf9250628
    1348:	f9000000 			; <UNDEFINED> instruction: 0xf9000000
    134c:	06000000 	streq	r0, [r0], -r0
    1350:	3925066e 	stmdbcc	r5!, {r1, r2, r3, r5, r6, r9, sl}
    1354:	39000004 	stmdbcc	r0, {r2}
    1358:	06000004 	streq	r0, [r0], -r4
    135c:	d02507f2 	strdle	r0, [r5], -r2	; <UNPREDICTABLE>
    1360:	d0000003 	andle	r0, r0, r3
    1364:	07000003 	streq	r0, [r0, -r3]
    1368:	31250602 			; <UNDEFINED> instruction: 0x31250602
    136c:	31000003 	tstcc	r0, r3
    1370:	08000003 	stmdaeq	r0, {r0, r1}
    1374:	97000523 	strls	r0, [r0, -r3, lsr #10]
    1378:	04000017 	streq	r0, [r0], #-23	; 0xffffffe9
    137c:	00076b00 	andeq	r6, r7, r0, lsl #22
    1380:	d9010400 	stmdble	r1, {sl}
    1384:	0c000006 	stceq	0, cr0, [r0], {6}
    1388:	00000590 	muleq	r0, r0, r5
    138c:	00000509 	andeq	r0, r0, r9, lsl #10
    1390:	000087d4 	ldrdeq	r8, [r0], -r4
    1394:	00000618 	andeq	r0, r0, r8, lsl r6
    1398:	00000931 	andeq	r0, r0, r1, lsr r9
    139c:	69050402 	stmdbvs	r5, {r1, sl}
    13a0:	0300746e 	movweq	r7, #1134	; 0x46e
    13a4:	01bf0704 			; <UNDEFINED> instruction: 0x01bf0704
    13a8:	01030000 	mrseq	r0, (UNDEF: 3)
    13ac:	00011606 	andeq	r1, r1, r6, lsl #12
    13b0:	05020300 	streq	r0, [r2, #-768]	; 0xfffffd00
    13b4:	0000003d 	andeq	r0, r0, sp, lsr r0
    13b8:	c8050403 	stmdagt	r5, {r0, r1, sl}
    13bc:	03000000 	movweq	r0, #0
    13c0:	00c30508 	sbceq	r0, r3, r8, lsl #10
    13c4:	01030000 	mrseq	r0, (UNDEF: 3)
    13c8:	00011408 	andeq	r1, r1, r8, lsl #8
    13cc:	07020300 	streq	r0, [r2, -r0, lsl #6]
    13d0:	000001f6 	strdeq	r0, [r0], -r6
    13d4:	00009404 	andeq	r9, r0, r4, lsl #8
    13d8:	19340600 	ldmdbne	r4!, {r9, sl}
    13dc:	00000069 	andeq	r0, r0, r9, rrx
    13e0:	ba070403 	blt	1c23f4 <__bss_end__+0x1b789c>
    13e4:	03000001 	movweq	r0, #1
    13e8:	01b50708 			; <UNDEFINED> instruction: 0x01b50708
    13ec:	25050000 	strcs	r0, [r5, #-0]
    13f0:	86000000 	strhi	r0, [r0], -r0
    13f4:	06000000 	streq	r0, [r0], -r0
    13f8:	00000025 	andeq	r0, r0, r5, lsr #32
    13fc:	04fd0700 	ldrbteq	r0, [sp], #1792	; 0x700
    1400:	1c050000 	stcne	0, cr0, [r5], {-0}
    1404:	0000920e 	andeq	r9, r0, lr, lsl #4
    1408:	77040800 	strvc	r0, [r4, -r0, lsl #16]
    140c:	05000000 	streq	r0, [r0, #-0]
    1410:	00000025 	andeq	r0, r0, r5, lsr #32
    1414:	000000a7 	andeq	r0, r0, r7, lsr #1
    1418:	0000a706 	andeq	sl, r0, r6, lsl #14
    141c:	04080000 	streq	r0, [r8], #-0
    1420:	000000b4 	strheq	r0, [r0], -r4
    1424:	1d080103 	stfnes	f0, [r8, #-12]
    1428:	09000001 	stmdbeq	r0, {r0}
    142c:	000000ad 	andeq	r0, r0, sp, lsr #1
    1430:	0008c007 	andeq	ip, r8, r7
    1434:	0e210500 	cfsh64eq	mvdx0, mvdx1, #0
    1438:	000000c5 	andeq	r0, r0, r5, asr #1
    143c:	00980408 	addseq	r0, r8, r8, lsl #8
    1440:	cd040000 	stcgt	0, cr0, [r4, #-0]
    1444:	04000007 	streq	r0, [r0], #-7
    1448:	00d71099 	smullseq	r1, r7, r9, r0
    144c:	04080000 	streq	r0, [r8], #-0
    1450:	000000dd 	ldrdeq	r0, [r0], -sp
    1454:	0000f20a 	andeq	pc, r0, sl, lsl #4
    1458:	00f20600 	rscseq	r0, r2, r0, lsl #12
    145c:	5d060000 	stcpl	0, cr0, [r6, #-0]
    1460:	06000000 	streq	r0, [r0], -r0
    1464:	0000005d 	andeq	r0, r0, sp, asr r0
    1468:	5d040800 	stcpl	8, cr0, [r4, #-0]
    146c:	07000000 	streq	r0, [r0, -r0]
    1470:	0000080f 	andeq	r0, r0, pc, lsl #16
    1474:	250cd204 	strcs	sp, [ip, #-516]	; 0xfffffdfc
    1478:	0b000000 	bleq	1480 <__code_start__-0x6b80>
    147c:	000007f0 	strdeq	r0, [r0], -r0	; <UNPREDICTABLE>
    1480:	cb120b01 	blgt	48408c <__bss_end__+0x479534>
    1484:	05000000 	streq	r0, [r0, #-0]
    1488:	00a74803 	adceq	r4, r7, r3, lsl #16
    148c:	06970b00 	ldreq	r0, [r7], r0, lsl #22
    1490:	77010000 	strvc	r0, [r1, -r0]
    1494:	0000cb12 	andeq	ip, r0, r2, lsl fp
    1498:	50030500 	andpl	r0, r3, r0, lsl #10
    149c:	0c0000a7 	stceq	0, cr0, [r0], {167}	; 0xa7
    14a0:	000000f8 	strdeq	r0, [r0], -r8
    14a4:	0505cb01 	streq	ip, [r5, #-2817]	; 0xfffff4ff
    14a8:	00a75403 	adceq	r5, r7, r3, lsl #8
    14ac:	03420d00 	movteq	r0, #11520	; 0x2d00
    14b0:	f3010000 	vhadd.u8	d0, d1, d0
    14b4:	008ddc06 	addeq	sp, sp, r6, lsl #24
    14b8:	00001000 	andeq	r1, r0, r0
    14bc:	5c9c0100 	ldfpls	f0, [ip], {0}
    14c0:	0e000001 	cdpeq	0, 0, cr0, cr0, cr1, {0}
    14c4:	00008de8 	andeq	r8, r0, r8, ror #27
    14c8:	000001d4 	ldrdeq	r0, [r0], -r4
    14cc:	0150010f 	cmpeq	r0, pc, lsl #2
    14d0:	0d000030 	stceq	0, cr0, [r0, #-192]	; 0xffffff40
    14d4:	00000394 	muleq	r0, r4, r3
    14d8:	d006ee01 	andle	lr, r6, r1, lsl #28
    14dc:	0c00008d 	stceq	0, cr0, [r0], {141}	; 0x8d
    14e0:	01000000 	mrseq	r0, (UNDEF: 0)
    14e4:	0001989c 	muleq	r1, ip, r8
    14e8:	02e01000 	rsceq	r1, r0, #0
    14ec:	ee010000 	cdp	0, 0, cr0, cr1, cr0, {0}
    14f0:	00005d22 	andeq	r5, r0, r2, lsr #26
    14f4:	0005e400 	andeq	lr, r5, r0, lsl #8
    14f8:	0005e000 	andeq	lr, r5, r0
    14fc:	8dd80e00 	ldclhi	14, cr0, [r8]
    1500:	025d0000 	subseq	r0, sp, #0
    1504:	010f0000 	mrseq	r0, CPSR
    1508:	01f30350 	mvnseq	r0, r0, asr r3
    150c:	0d000050 	stceq	0, cr0, [r0, #-320]	; 0xfffffec0
    1510:	000003d0 	ldrdeq	r0, [r0], -r0	; <UNPREDICTABLE>
    1514:	bc06e801 	stclt	8, cr14, [r6], {1}
    1518:	1400008d 	strne	r0, [r0], #-141	; 0xffffff73
    151c:	01000000 	mrseq	r0, (UNDEF: 0)
    1520:	0001d49c 	muleq	r1, ip, r4
    1524:	05891100 	streq	r1, [r9, #256]	; 0x100
    1528:	e9010000 	stmdb	r1, {}	; <UNPREDICTABLE>
    152c:	00002510 	andeq	r2, r0, r0, lsl r5
    1530:	c4120000 	ldrgt	r0, [r2], #-0
    1534:	cf00008d 	svcgt	0x0000008d
    1538:	0e000009 	cdpeq	0, 0, cr0, cr0, cr9, {0}
    153c:	00008dcc 	andeq	r8, r0, ip, asr #27
    1540:	0000025d 	andeq	r0, r0, sp, asr r2
    1544:	0150010f 	cmpeq	r0, pc, lsl #2
    1548:	0d000030 	stceq	0, cr0, [r0, #-192]	; 0xffffff40
    154c:	00000628 	andeq	r0, r0, r8, lsr #12
    1550:	b006dc01 	andlt	sp, r6, r1, lsl #24
    1554:	0c00008d 	stceq	0, cr0, [r0], {141}	; 0x8d
    1558:	01000000 	mrseq	r0, (UNDEF: 0)
    155c:	0002089c 	muleq	r2, ip, r8
    1560:	02e01000 	rsceq	r1, r0, #0
    1564:	dc010000 	stcle	0, cr0, [r1], {-0}
    1568:	00005d27 	andeq	r5, r0, r7, lsr #26
    156c:	00060900 	andeq	r0, r6, r0, lsl #18
    1570:	00060500 	andeq	r0, r6, r0, lsl #10
    1574:	8db81200 	lfmhi	f1, 4, [r8]
    1578:	07a50000 	streq	r0, [r5, r0]!
    157c:	0d000000 	stceq	0, cr0, [r0, #-0]
    1580:	00000575 	andeq	r0, r0, r5, ror r5
    1584:	9006d601 	andls	sp, r6, r1, lsl #12
    1588:	2000008d 	andcs	r0, r0, sp, lsl #1
    158c:	01000000 	mrseq	r0, (UNDEF: 0)
    1590:	00025d9c 	muleq	r2, ip, sp
    1594:	02e01000 	rsceq	r1, r0, #0
    1598:	d6010000 	strle	r0, [r1], -r0
    159c:	00005d23 	andeq	r5, r0, r3, lsr #26
    15a0:	00062e00 	andeq	r2, r6, r0, lsl #28
    15a4:	00062a00 	andeq	r2, r6, r0, lsl #20
    15a8:	05461000 	strbeq	r1, [r6, #-0]
    15ac:	d6010000 	strle	r0, [r1], -r0
    15b0:	0000cb33 	andeq	ip, r0, r3, lsr fp
    15b4:	00065300 	andeq	r5, r6, r0, lsl #6
    15b8:	00064f00 	andeq	r4, r6, r0, lsl #30
    15bc:	8da00e00 	stchi	14, cr0, [r0]
    15c0:	059b0000 	ldreq	r0, [fp]
    15c4:	010f0000 	mrseq	r0, CPSR
    15c8:	01f30350 	mvnseq	r0, r0, asr r3
    15cc:	51010f50 	tstpl	r1, r0, asr pc
    15d0:	00003001 	andeq	r3, r0, r1
    15d4:	00064b0d 	andeq	r4, r6, sp, lsl #22
    15d8:	06d20100 	ldrbeq	r0, [r2], r0, lsl #2
    15dc:	00008d80 	andeq	r8, r0, r0, lsl #27
    15e0:	00000010 	andeq	r0, r0, r0, lsl r0
    15e4:	029e9c01 	addseq	r9, lr, #256	; 0x100
    15e8:	e0100000 	ands	r0, r0, r0
    15ec:	01000002 	tsteq	r0, r2
    15f0:	005d27d2 	ldrsbeq	r2, [sp], #-114	; 0xffffff8e
    15f4:	06750000 	ldrbteq	r0, [r5], -r0
    15f8:	06710000 	ldrbteq	r0, [r1], -r0
    15fc:	8c0e0000 	stchi	0, cr0, [lr], {-0}
    1600:	9b00008d 	blls	183c <__code_start__-0x67c4>
    1604:	0f000005 	svceq	0x00000005
    1608:	f3035001 	vhadd.u8	d5, d3, d1
    160c:	010f5001 	tsteq	pc, r1
    1610:	00300151 	eorseq	r0, r0, r1, asr r1
    1614:	05e90d00 	strbeq	r0, [r9, #3328]!	; 0xd00
    1618:	ce010000 	cdpgt	0, 0, cr0, cr1, cr0, {0}
    161c:	008d5806 	addeq	r5, sp, r6, lsl #16
    1620:	00002800 	andeq	r2, r0, r0, lsl #16
    1624:	fc9c0100 	ldc2	1, cr0, [ip], {0}
    1628:	13000002 	movwne	r0, #2
    162c:	000000d6 	ldrdeq	r0, [r0], -r6
    1630:	0000030c 	andeq	r0, r0, ip, lsl #6
    1634:	a3200305 			; <UNDEFINED> instruction: 0xa3200305
    1638:	70140000 	andsvc	r0, r4, r0
    163c:	8200008d 	andhi	r0, r0, #141	; 0x8d
    1640:	f2000017 	vqadd.s8	d0, d0, d7
    1644:	0f000002 	svceq	0x00000002
    1648:	03055001 	movweq	r5, #20481	; 0x5001
    164c:	0000a280 	andeq	sl, r0, r0, lsl #5
    1650:	0551010f 	ldrbeq	r0, [r1, #-271]	; 0xfffffef1
    1654:	00a09803 	adceq	r9, r0, r3, lsl #16
    1658:	52010f00 	andpl	r0, r1, #0, 30
    165c:	a3200305 			; <UNDEFINED> instruction: 0xa3200305
    1660:	010f0000 	mrseq	r0, CPSR
    1664:	cf080253 	svcgt	0x00080253
    1668:	8d741200 	lfmhi	f1, 2, [r4, #-0]
    166c:	178e0000 	strne	r0, [lr, r0]
    1670:	15000000 	strne	r0, [r0, #-0]
    1674:	000000b4 	strheq	r0, [r0], -r4
    1678:	0000030c 	andeq	r0, r0, ip, lsl #6
    167c:	00002c16 	andeq	r2, r0, r6, lsl ip
    1680:	09001000 	stmdbeq	r0, {ip}
    1684:	000002fc 	strdeq	r0, [r0], -ip
    1688:	0004d90d 	andeq	sp, r4, sp, lsl #18
    168c:	06b80100 	ldrteq	r0, [r8], r0, lsl #2
    1690:	00008c80 	andeq	r8, r0, r0, lsl #25
    1694:	000000d8 	ldrdeq	r0, [r0], -r8
    1698:	05319c01 	ldreq	r9, [r1, #-3073]!	; 0xfffff3ff
    169c:	70170000 	andsvc	r0, r7, r0
    16a0:	b8010063 	stmdalt	r1, {r0, r1, r5, r6}
    16a4:	00002c25 	andeq	r2, r0, r5, lsr #24
    16a8:	0006a400 	andeq	sl, r6, r0, lsl #8
    16ac:	00069600 	andeq	r9, r6, r0, lsl #12
    16b0:	00d61300 	sbcseq	r1, r6, r0, lsl #6
    16b4:	05410000 	strbeq	r0, [r1, #-0]
    16b8:	03050000 	movweq	r0, #20480	; 0x5000
    16bc:	0000a308 	andeq	sl, r0, r8, lsl #6
    16c0:	00152418 	andseq	r2, r5, r8, lsl r4
    16c4:	008c8c00 	addeq	r8, ip, r0, lsl #24
    16c8:	01280100 			; <UNDEFINED> instruction: 0x01280100
    16cc:	ba010000 	blt	416d4 <__bss_end__+0x36b7c>
    16d0:	00048009 	andeq	r8, r4, r9
    16d4:	15311900 	ldrne	r1, [r1, #-2304]!	; 0xfffff700
    16d8:	8c8c0000 	stchi	0, cr0, [ip], {0}
    16dc:	8c030000 	stchi	0, cr0, [r3], {-0}
    16e0:	0400008c 	streq	r0, [r0], #-140	; 0xffffff74
    16e4:	04000000 	streq	r0, [r0], #-0
    16e8:	038509b7 	orreq	r0, r5, #2998272	; 0x2dc000
    16ec:	421a0000 	andsmi	r0, sl, #0
    16f0:	04000015 	streq	r0, [r0], #-21	; 0xffffffeb
    16f4:	02000007 	andeq	r0, r0, #7
    16f8:	00000007 	andeq	r0, r0, r7
    16fc:	0015a718 	andseq	sl, r5, r8, lsl r7
    1700:	008c9000 	addeq	r9, ip, r0
    1704:	01500200 	cmpeq	r0, r0, lsl #4
    1708:	b7040000 	strlt	r0, [r4, -r0]
    170c:	00041a09 	andeq	r1, r4, r9, lsl #20
    1710:	15b81b00 	ldrne	r1, [r8, #2816]!	; 0xb00
    1714:	071b0000 	ldreq	r0, [fp, -r0]
    1718:	07170000 	ldreq	r0, [r7, -r0]
    171c:	b6190000 	ldrlt	r0, [r9], -r0
    1720:	90000016 	andls	r0, r0, r6, lsl r0
    1724:	0400008c 	streq	r0, [r0], #-140	; 0xffffff74
    1728:	00008c90 	muleq	r0, r0, ip
    172c:	00000000 	andeq	r0, r0, r0
    1730:	db0c7f04 	blle	321348 <__bss_end__+0x3167f0>
    1734:	1b000003 	blne	1748 <__code_start__-0x68b8>
    1738:	000016d1 	ldrdeq	r1, [r0], -r1	; <UNPREDICTABLE>
    173c:	0000073b 	andeq	r0, r0, fp, lsr r7
    1740:	00000739 	andeq	r0, r0, r9, lsr r7
    1744:	0016c71b 	andseq	ip, r6, fp, lsl r7
    1748:	00075100 	andeq	r5, r7, r0, lsl #2
    174c:	00074f00 	andeq	r4, r7, r0, lsl #30
    1750:	2a1c0000 	bcs	701758 <__bss_end__+0x6f6c00>
    1754:	d4000016 	strle	r0, [r0], #-22	; 0xffffffea
    1758:	0000008c 	andeq	r0, r0, ip, lsl #1
    175c:	00000170 	andeq	r0, r0, r0, ror r1
    1760:	1b257f04 	blne	961378 <__bss_end__+0x956820>
    1764:	00001650 	andeq	r1, r0, r0, asr r6
    1768:	00000766 	andeq	r0, r0, r6, ror #14
    176c:	00000764 	andeq	r0, r0, r4, ror #14
    1770:	0016451b 	andseq	r4, r6, fp, lsl r5
    1774:	00077c00 	andeq	r7, r7, r0, lsl #24
    1778:	00077a00 	andeq	r7, r7, r0, lsl #20
    177c:	163b1b00 	ldrtne	r1, [fp], -r0, lsl #22
    1780:	07920000 	ldreq	r0, [r2, r0]
    1784:	07900000 	ldreq	r0, [r0, r0]
    1788:	701d0000 	andsvc	r0, sp, r0
    178c:	00000001 	andeq	r0, r0, r1
    1790:	15ee1900 	strbne	r1, [lr, #2304]!	; 0x900
    1794:	8cec0000 	stclhi	0, cr0, [ip]
    1798:	ec020000 	stc	0, cr0, [r2], {-0}
    179c:	0400008c 	streq	r0, [r0], #-140	; 0xffffff74
    17a0:	04000000 	streq	r0, [r0], #-0
    17a4:	04410cba 	strbeq	r0, [r1], #-3258	; 0xfffff346
    17a8:	ff1a0000 			; <UNDEFINED> instruction: 0xff1a0000
    17ac:	a9000015 	stmdbge	r0, {r0, r2, r4}
    17b0:	a5000007 	strge	r0, [r0, #-7]
    17b4:	00000007 	andeq	r0, r0, r7
    17b8:	00162a1c 	andseq	r2, r6, ip, lsl sl
    17bc:	008cf000 	addeq	pc, ip, r0
    17c0:	01880200 	orreq	r0, r8, r0, lsl #4
    17c4:	ba040000 	blt	1017cc <__bss_end__+0xf6c74>
    17c8:	16501b0c 	ldrbne	r1, [r0], -ip, lsl #22
    17cc:	07ca0000 	strbeq	r0, [sl, r0]
    17d0:	07c80000 	strbeq	r0, [r8, r0]
    17d4:	451b0000 	ldrmi	r0, [fp, #-0]
    17d8:	e0000016 	and	r0, r0, r6, lsl r0
    17dc:	de000007 	cdple	0, 0, cr0, cr0, cr7, {0}
    17e0:	1b000007 	blne	1804 <__code_start__-0x67fc>
    17e4:	0000163b 	andeq	r1, r0, fp, lsr r6
    17e8:	000007f6 	strdeq	r0, [r0], -r6
    17ec:	000007f4 	strdeq	r0, [r0], -r4
    17f0:	0001881d 	andeq	r8, r1, sp, lsl r8
    17f4:	19000000 	stmdbne	r0, {}	; <UNPREDICTABLE>
    17f8:	0000154f 	andeq	r1, r0, pc, asr #10
    17fc:	00008cc0 	andeq	r8, r0, r0, asr #25
    1800:	008cc003 	addeq	ip, ip, r3
    1804:	00000400 	andeq	r0, r0, r0, lsl #8
    1808:	05c30100 	strbeq	r0, [r3, #256]	; 0x100
    180c:	000004a7 	andeq	r0, r0, r7, lsr #9
    1810:	0015601a 	andseq	r6, r5, sl, lsl r0
    1814:	00080b00 	andeq	r0, r8, r0, lsl #22
    1818:	00080900 	andeq	r0, r8, r0, lsl #18
    181c:	cc1e0000 	ldcgt	0, cr0, [lr], {-0}
    1820:	b600008c 	strlt	r0, [r0], -ip, lsl #1
    1824:	0f000004 	svceq	0x00000004
    1828:	30015001 	andcc	r5, r1, r1
    182c:	8d1c1400 	cfldrshi	mvf1, [ip, #-0]
    1830:	17820000 	strne	r0, [r2, r0]
    1834:	04e50000 	strbteq	r0, [r5], #0
    1838:	010f0000 	mrseq	r0, CPSR
    183c:	74030550 	strvc	r0, [r3], #-1360	; 0xfffffab0
    1840:	0f0000a1 	svceq	0x000000a1
    1844:	03055101 	movweq	r5, #20737	; 0x5101
    1848:	0000a098 	muleq	r0, r8, r0
    184c:	0552010f 	ldrbeq	r0, [r2, #-271]	; 0xfffffef1
    1850:	00a30803 	adceq	r0, r3, r3, lsl #16
    1854:	53010f00 	movwpl	r0, #7936	; 0x1f00
    1858:	00bb0802 	adcseq	r0, fp, r2, lsl #16
    185c:	008d2012 	addeq	r2, sp, r2, lsl r0
    1860:	00178e00 	andseq	r8, r7, r0, lsl #28
    1864:	8d3c1400 	cfldrshi	mvf1, [ip, #-0]
    1868:	17820000 	strne	r0, [r2, r0]
    186c:	05270000 	streq	r0, [r7, #-0]!
    1870:	010f0000 	mrseq	r0, CPSR
    1874:	18030550 	stmdane	r3, {r4, r6, r8, sl}
    1878:	0f00009d 	svceq	0x0000009d
    187c:	03055101 	movweq	r5, #20737	; 0x5101
    1880:	0000a098 	muleq	r0, r8, r0
    1884:	0552010f 	ldrbeq	r0, [r2, #-271]	; 0xfffffef1
    1888:	00a30803 	adceq	r0, r3, r3, lsl #16
    188c:	53010f00 	movwpl	r0, #7936	; 0x1f00
    1890:	0fc20802 	svceq	0x00c20802
    1894:	05007d02 	streq	r7, [r0, #-3330]	; 0xfffff2fe
    1898:	00a27003 	adceq	r7, r2, r3
    189c:	40120000 	andsmi	r0, r2, r0
    18a0:	8e00008d 	cdphi	0, 0, cr0, cr0, cr13, {4}
    18a4:	00000017 	andeq	r0, r0, r7, lsl r0
    18a8:	0000b415 	andeq	fp, r0, r5, lsl r4
    18ac:	00054100 	andeq	r4, r5, r0, lsl #2
    18b0:	002c1600 	eoreq	r1, ip, r0, lsl #12
    18b4:	00150000 	andseq	r0, r5, r0
    18b8:	00053109 	andeq	r3, r5, r9, lsl #2
    18bc:	06400d00 	strbeq	r0, [r0], -r0, lsl #26
    18c0:	b1010000 	mrslt	r0, (UNDEF: 1)
    18c4:	008c6006 	addeq	r6, ip, r6
    18c8:	00002000 	andeq	r2, r0, r0
    18cc:	9b9c0100 	blls	fe701cd4 <__bss_end__+0xfe6f717c>
    18d0:	10000005 	andne	r0, r0, r5
    18d4:	000002e0 	andeq	r0, r0, r0, ror #5
    18d8:	5d1ab101 	ldfpld	f3, [sl, #-4]
    18dc:	22000000 	andcs	r0, r0, #0
    18e0:	1e000008 	cdpne	0, 0, cr0, cr0, cr8, {0}
    18e4:	10000008 	andne	r0, r0, r8
    18e8:	00000546 	andeq	r0, r0, r6, asr #10
    18ec:	cb2ab101 	blgt	aadcf8 <__bss_end__+0xaa31a0>
    18f0:	47000000 	strmi	r0, [r0, -r0]
    18f4:	43000008 	movwmi	r0, #8
    18f8:	0e000008 	cdpeq	0, 0, cr0, cr0, cr8, {0}
    18fc:	00008c70 	andeq	r8, r0, r0, ror ip
    1900:	0000059b 	muleq	r0, fp, r5
    1904:	0350010f 	cmpeq	r0, #-1073741821	; 0xc0000003
    1908:	0f5001f3 	svceq	0x005001f3
    190c:	31015101 	tstcc	r1, r1, lsl #2
    1910:	b21f0000 	andslt	r0, pc, #0
    1914:	01000007 	tsteq	r0, r7
    1918:	87d40d9d 	bfihi	r0, sp, (invalid: 27:20)
    191c:	00b00000 	adcseq	r0, r0, r0
    1920:	9c010000 	stcls	0, cr0, [r1], {-0}
    1924:	00000790 	muleq	r0, r0, r7
    1928:	0002e010 	andeq	lr, r2, r0, lsl r0
    192c:	289d0100 	ldmcs	sp, {r8}
    1930:	0000005d 	andeq	r0, r0, sp, asr r0
    1934:	0000086d 	andeq	r0, r0, sp, ror #16
    1938:	00000865 	andeq	r0, r0, r5, ror #16
    193c:	00066310 	andeq	r6, r6, r0, lsl r3
    1940:	379d0100 	ldrcc	r0, [sp, r0, lsl #2]
    1944:	0000002c 	andeq	r0, r0, ip, lsr #32
    1948:	000008af 	andeq	r0, r0, pc, lsr #17
    194c:	000008a7 	andeq	r0, r0, r7, lsr #17
    1950:	0000d613 	andeq	sp, r0, r3, lsl r6
    1954:	0007a000 	andeq	sl, r7, r0
    1958:	b0030500 	andlt	r0, r3, r0, lsl #10
    195c:	200000a2 	andcs	r0, r0, r2, lsr #1
    1960:	a8010078 	stmdage	r1, {r3, r4, r5, r6}
    1964:	00005d0e 	andeq	r5, r0, lr, lsl #26
    1968:	0008ed00 	andeq	lr, r8, r0, lsl #26
    196c:	0008e900 	andeq	lr, r8, r0, lsl #18
    1970:	09b71900 	ldmibeq	r7!, {r8, fp, ip}
    1974:	87dc0000 	ldrbhi	r0, [ip, r0]
    1978:	dc010000 	stcle	0, cr0, [r1], {-0}
    197c:	0c000087 	stceq	0, cr0, [r0], {135}	; 0x87
    1980:	01000000 	mrseq	r0, (UNDEF: 0)
    1984:	063d05a4 	ldrteq	r0, [sp], -r4, lsr #11
    1988:	c41b0000 	ldrgt	r0, [fp], #-0
    198c:	0d000009 	stceq	0, cr0, [r0, #-36]	; 0xffffffdc
    1990:	0b000009 	bleq	19bc <__code_start__-0x6644>
    1994:	21000009 	tstcs	r0, r9
    1998:	0000176a 	andeq	r1, r0, sl, ror #14
    199c:	000087e0 	andeq	r8, r0, r0, ror #15
    19a0:	0087e001 	addeq	lr, r7, r1
    19a4:	00000800 	andeq	r0, r0, r0, lsl #16
    19a8:	017a0100 	cmneq	sl, r0, lsl #2
    19ac:	00177722 	andseq	r7, r7, r2, lsr #14
    19b0:	00000000 	andeq	r0, r0, r0
    19b4:	00099919 	andeq	r9, r9, r9, lsl r9
    19b8:	0087e800 	addeq	lr, r7, r0, lsl #16
    19bc:	87e80300 	strbhi	r0, [r8, r0, lsl #6]!
    19c0:	00040000 	andeq	r0, r4, r0
    19c4:	a5010000 	strge	r0, [r1, #-0]
    19c8:	00066405 	andeq	r6, r6, r5, lsl #8
    19cc:	09aa1a00 	stmibeq	sl!, {r9, fp, ip}
    19d0:	09240000 	stmdbeq	r4!, {}	; <UNPREDICTABLE>
    19d4:	09200000 	stmdbeq	r0!, {}	; <UNPREDICTABLE>
    19d8:	18000000 	stmdane	r0, {}	; <UNPREDICTABLE>
    19dc:	0000093b 	andeq	r0, r0, fp, lsr r9
    19e0:	000087f4 	strdeq	r8, [r0], -r4
    19e4:	00008003 	andeq	r8, r0, r3
    19e8:	12a80100 	adcne	r0, r8, #0, 2
    19ec:	0000069a 	muleq	r0, sl, r6
    19f0:	00094c1b 	andeq	r4, r9, fp, lsl ip
    19f4:	00094700 	andeq	r4, r9, r0, lsl #14
    19f8:	00094300 	andeq	r4, r9, r0, lsl #6
    19fc:	00802300 	addeq	r2, r0, r0, lsl #6
    1a00:	581a0000 	ldmdapl	sl, {}	; <UNPREDICTABLE>
    1a04:	6f000009 	svcvs	0x00000009
    1a08:	65000009 	strvs	r0, [r0, #-9]
    1a0c:	00000009 	andeq	r0, r0, r9
    1a10:	09811900 	stmibeq	r1, {r8, fp, ip}
    1a14:	88000000 	stmdahi	r0, {}	; <UNPREDICTABLE>
    1a18:	00030000 	andeq	r0, r3, r0
    1a1c:	0c000088 	stceq	0, cr0, [r0], {136}	; 0x88
    1a20:	01000000 	mrseq	r0, (UNDEF: 0)
    1a24:	06e405a9 	strbteq	r0, [r4], r9, lsr #11
    1a28:	8e1b0000 	cdphi	0, 1, cr0, cr11, cr0, {0}
    1a2c:	b8000009 	stmdalt	r0, {r0, r3}
    1a30:	b6000009 	strlt	r0, [r0], -r9
    1a34:	21000009 	tstcs	r0, r9
    1a38:	0000176a 	andeq	r1, r0, sl, ror #14
    1a3c:	00008804 	andeq	r8, r0, r4, lsl #16
    1a40:	00880401 	addeq	r0, r8, r1, lsl #8
    1a44:	00000800 	andeq	r0, r0, r0, lsl #16
    1a48:	017b0100 	cmneq	fp, r0, lsl #2
    1a4c:	0017771a 	andseq	r7, r7, sl, lsl r7
    1a50:	0009cf00 	andeq	ip, r9, r0, lsl #30
    1a54:	0009cb00 	andeq	ip, r9, r0, lsl #22
    1a58:	19000000 	stmdbne	r0, {}	; <UNPREDICTABLE>
    1a5c:	00000963 	andeq	r0, r0, r3, ror #18
    1a60:	0000880c 	andeq	r8, r0, ip, lsl #16
    1a64:	00880c03 	addeq	r0, r8, r3, lsl #24
    1a68:	00000400 	andeq	r0, r0, r0, lsl #8
    1a6c:	05aa0100 	streq	r0, [sl, #256]!	; 0x100
    1a70:	0000070b 	andeq	r0, r0, fp, lsl #14
    1a74:	0009741a 	andeq	r7, r9, sl, lsl r4
    1a78:	0009f300 	andeq	pc, r9, r0, lsl #6
    1a7c:	0009ef00 	andeq	lr, r9, r0, lsl #30
    1a80:	3c140000 	ldccc	0, cr0, [r4], {-0}
    1a84:	82000088 	andhi	r0, r0, #136	; 0x88
    1a88:	44000017 	strmi	r0, [r0], #-23	; 0xffffffe9
    1a8c:	0f000007 	svceq	0x00000007
    1a90:	03055001 	movweq	r5, #20481	; 0x5001
    1a94:	00009d18 	andeq	r9, r0, r8, lsl sp
    1a98:	0551010f 	ldrbeq	r0, [r1, #-271]	; 0xfffffef1
    1a9c:	00a09803 	adceq	r9, r0, r3, lsl #16
    1aa0:	52010f00 	andpl	r0, r1, #0, 30
    1aa4:	a2b00305 	adcsge	r0, r0, #335544320	; 0x14000000
    1aa8:	010f0000 	mrseq	r0, CPSR
    1aac:	a5080253 	strge	r0, [r8, #-595]	; 0xfffffdad
    1ab0:	007d020f 	rsbseq	r0, sp, pc, lsl #4
    1ab4:	a0ac0305 	adcge	r0, ip, r5, lsl #6
    1ab8:	12000000 	andne	r0, r0, #0
    1abc:	00008840 	andeq	r8, r0, r0, asr #16
    1ac0:	0000178e 	andeq	r1, r0, lr, lsl #15
    1ac4:	00886414 	addeq	r6, r8, r4, lsl r4
    1ac8:	00178200 	andseq	r8, r7, r0, lsl #4
    1acc:	00078600 	andeq	r8, r7, r0, lsl #12
    1ad0:	50010f00 	andpl	r0, r1, r0, lsl #30
    1ad4:	9d180305 	ldcls	3, cr0, [r8, #-20]	; 0xffffffec
    1ad8:	010f0000 	mrseq	r0, CPSR
    1adc:	98030551 	stmdals	r3, {r0, r4, r6, r8, sl}
    1ae0:	0f0000a0 	svceq	0x000000a0
    1ae4:	03055201 	movweq	r5, #20993	; 0x5201
    1ae8:	0000a2b0 			; <UNDEFINED> instruction: 0x0000a2b0
    1aec:	0253010f 	subseq	r0, r3, #-1073741821	; 0xc0000003
    1af0:	020faa08 	andeq	sl, pc, #8, 20	; 0x8000
    1af4:	0305007d 	movweq	r0, #20605	; 0x507d
    1af8:	0000a0c4 	andeq	sl, r0, r4, asr #1
    1afc:	88681200 	stmdahi	r8!, {r9, ip}^
    1b00:	178e0000 	strne	r0, [lr, r0]
    1b04:	15000000 	strne	r0, [r0, #-0]
    1b08:	000000b4 	strheq	r0, [r0], -r4
    1b0c:	000007a0 	andeq	r0, r0, r0, lsr #15
    1b10:	00002c16 	andeq	r2, r0, r6, lsl ip
    1b14:	09001100 	stmdbeq	r0, {r8, ip}
    1b18:	00000790 	muleq	r0, r0, r7
    1b1c:	0006a61f 	andeq	sl, r6, pc, lsl r6
    1b20:	0d950100 	ldfeqs	f0, [r5]
    1b24:	00008884 	andeq	r8, r0, r4, lsl #17
    1b28:	0000005c 	andeq	r0, r0, ip, asr r0
    1b2c:	09269c01 	stmdbeq	r6!, {r0, sl, fp, ip, pc}
    1b30:	d6130000 	ldrle	r0, [r3], -r0
    1b34:	36000000 	strcc	r0, [r0], -r0
    1b38:	05000009 	streq	r0, [r0, #-9]
    1b3c:	00a2c403 	adceq	ip, r2, r3, lsl #8
    1b40:	09631900 	stmdbeq	r3!, {r8, fp, ip}^
    1b44:	88840000 	stmhi	r4, {}	; <UNPREDICTABLE>
    1b48:	84020000 	strhi	r0, [r2], #-0
    1b4c:	04000088 	streq	r0, [r0], #-136	; 0xffffff78
    1b50:	01000000 	mrseq	r0, (UNDEF: 0)
    1b54:	07f10596 			; <UNDEFINED> instruction: 0x07f10596
    1b58:	741a0000 	ldrvc	r0, [sl], #-0
    1b5c:	16000009 	strne	r0, [r0], -r9
    1b60:	1200000a 	andne	r0, r0, #10
    1b64:	0000000a 	andeq	r0, r0, sl
    1b68:	00173519 	andseq	r3, r7, r9, lsl r5
    1b6c:	00888800 	addeq	r8, r8, r0, lsl #16
    1b70:	88880200 	stmhi	r8, {r9}
    1b74:	00040000 	andeq	r0, r4, r0
    1b78:	96010000 	strls	r0, [r1], -r0
    1b7c:	00082505 	andeq	r2, r8, r5, lsl #10
    1b80:	17501b00 	ldrbne	r1, [r0, -r0, lsl #22]
    1b84:	0a370000 	beq	dc1b8c <__bss_end__+0xdb7034>
    1b88:	0a350000 	beq	d41b90 <__bss_end__+0xd37038>
    1b8c:	461b0000 	ldrmi	r0, [fp], -r0
    1b90:	4d000017 	stcmi	0, cr0, [r0, #-92]	; 0xffffffa4
    1b94:	4b00000a 	blmi	1bc4 <__code_start__-0x643c>
    1b98:	0000000a 	andeq	r0, r0, sl
    1b9c:	00098119 	andeq	r8, r9, r9, lsl r1
    1ba0:	00888c00 	addeq	r8, r8, r0, lsl #24
    1ba4:	888c0100 	stmhi	ip, {r8}
    1ba8:	000c0000 	andeq	r0, ip, r0
    1bac:	96010000 	strls	r0, [r1], -r0
    1bb0:	00086805 	andeq	r6, r8, r5, lsl #16
    1bb4:	098e1b00 	stmibeq	lr, {r8, r9, fp, ip}
    1bb8:	0a620000 	beq	1881bc0 <__bss_end__+0x1877068>
    1bbc:	0a600000 	beq	1801bc4 <__bss_end__+0x17f706c>
    1bc0:	6a210000 	bvs	841bc8 <__bss_end__+0x837070>
    1bc4:	90000017 	andls	r0, r0, r7, lsl r0
    1bc8:	01000088 	smlabbeq	r0, r8, r0, r0
    1bcc:	00008890 	muleq	r0, r0, r8
    1bd0:	00000008 	andeq	r0, r0, r8
    1bd4:	22017b01 	andcs	r7, r1, #1024	; 0x400
    1bd8:	00001777 	andeq	r1, r0, r7, ror r7
    1bdc:	19000000 	stmdbne	r0, {}	; <UNPREDICTABLE>
    1be0:	0000176a 	andeq	r1, r0, sl, ror #14
    1be4:	00008898 	muleq	r0, r8, r8
    1be8:	00889802 	addeq	r9, r8, r2, lsl #16
    1bec:	00000400 	andeq	r0, r0, r0, lsl #8
    1bf0:	05970100 	ldreq	r0, [r7, #256]	; 0x100
    1bf4:	00000888 	andeq	r0, r0, r8, lsl #17
    1bf8:	00177722 	andseq	r7, r7, r2, lsr #14
    1bfc:	19000000 	stmdbne	r0, {}	; <UNPREDICTABLE>
    1c00:	00000963 	andeq	r0, r0, r3, ror #18
    1c04:	0000889c 	muleq	r0, ip, r8
    1c08:	00889c02 	addeq	r9, r8, r2, lsl #24
    1c0c:	00000400 	andeq	r0, r0, r0, lsl #8
    1c10:	05980100 	ldreq	r0, [r8, #256]	; 0x100
    1c14:	000008af 	andeq	r0, r0, pc, lsr #17
    1c18:	0009741a 	andeq	r7, r9, sl, lsl r4
    1c1c:	000a7900 	andeq	r7, sl, r0, lsl #18
    1c20:	000a7500 	andeq	r7, sl, r0, lsl #10
    1c24:	b6190000 	ldrlt	r0, [r9], -r0
    1c28:	a0000016 	andge	r0, r0, r6, lsl r0
    1c2c:	02000088 	andeq	r0, r0, #136	; 0x88
    1c30:	000088a0 	andeq	r8, r0, r0, lsr #17
    1c34:	00000000 	andeq	r0, r0, r0
    1c38:	e3059801 	movw	r9, #22529	; 0x5801
    1c3c:	1b000008 	blne	1c64 <__code_start__-0x639c>
    1c40:	000016d1 	ldrdeq	r1, [r0], -r1	; <UNPREDICTABLE>
    1c44:	00000a9a 	muleq	r0, sl, sl
    1c48:	00000a98 	muleq	r0, r8, sl
    1c4c:	0016c71b 	andseq	ip, r6, fp, lsl r7
    1c50:	000ab000 	andeq	fp, sl, r0
    1c54:	000aae00 	andeq	sl, sl, r0, lsl #28
    1c58:	cc140000 	ldcgt	0, cr0, [r4], {-0}
    1c5c:	82000088 	andhi	r0, r0, #136	; 0x88
    1c60:	1c000017 	stcne	0, cr0, [r0], {23}
    1c64:	0f000009 	svceq	0x00000009
    1c68:	03055001 	movweq	r5, #20481	; 0x5001
    1c6c:	00009d18 	andeq	r9, r0, r8, lsl sp
    1c70:	0551010f 	ldrbeq	r0, [r1, #-271]	; 0xfffffef1
    1c74:	00a09803 	adceq	r9, r0, r3, lsl #16
    1c78:	52010f00 	andpl	r0, r1, #0, 30
    1c7c:	a2c40305 	sbcge	r0, r4, #335544320	; 0x14000000
    1c80:	010f0000 	mrseq	r0, CPSR
    1c84:	98080253 	stmdals	r8, {r0, r1, r4, r6, r9}
    1c88:	007d020f 	rsbseq	r0, sp, pc, lsl #4
    1c8c:	a0dc0305 	sbcsge	r0, ip, r5, lsl #6
    1c90:	12000000 	andne	r0, r0, #0
    1c94:	000088d0 	ldrdeq	r8, [r0], -r0
    1c98:	0000178e 	andeq	r1, r0, lr, lsl #15
    1c9c:	00b41500 	adcseq	r1, r4, r0, lsl #10
    1ca0:	09360000 	ldmdbeq	r6!, {}	; <UNPREDICTABLE>
    1ca4:	2c160000 	ldccs	0, cr0, [r6], {-0}
    1ca8:	0e000000 	cdpeq	0, 0, cr0, cr0, cr0, {0}
    1cac:	09260900 	stmdbeq	r6!, {r8, fp}
    1cb0:	c4240000 	strtgt	r0, [r4], #-0
    1cb4:	01000007 	tsteq	r0, r7
    1cb8:	005d1886 	subseq	r1, sp, r6, lsl #17
    1cbc:	63030000 	movwvs	r0, #12288	; 0x3000
    1cc0:	25000009 	strcs	r0, [r0, #-9]
    1cc4:	00000663 	andeq	r0, r0, r3, ror #12
    1cc8:	2c2a8601 	stccs	6, cr8, [sl], #-4
    1ccc:	26000000 	strcs	r0, [r0], -r0
    1cd0:	88010078 	stmdahi	r1, {r3, r4, r5, r6}
    1cd4:	00005d0e 	andeq	r5, r0, lr, lsl #26
    1cd8:	cb240000 	blgt	901ce0 <__bss_end__+0x8f7188>
    1cdc:	01000004 	tsteq	r0, r4
    1ce0:	005d017b 	subseq	r0, sp, fp, ror r1
    1ce4:	81030000 	mrshi	r0, (UNDEF: 3)
    1ce8:	26000009 	strcs	r0, [r0], -r9
    1cec:	00746572 	rsbseq	r6, r4, r2, ror r5
    1cf0:	5d017b01 	vstrpl	d7, [r1, #-4]
    1cf4:	00000000 	andeq	r0, r0, r0
    1cf8:	00067d27 	andeq	r7, r6, r7, lsr #26
    1cfc:	017b0100 	cmneq	fp, r0, lsl #2
    1d00:	00099903 	andeq	r9, r9, r3, lsl #18
    1d04:	00762800 	rsbseq	r2, r6, r0, lsl #16
    1d08:	5d017b01 	vstrpl	d7, [r1, #-4]
    1d0c:	00000000 	andeq	r0, r0, r0
    1d10:	00078e24 	andeq	r8, r7, r4, lsr #28
    1d14:	017a0100 	cmneq	sl, r0, lsl #2
    1d18:	0000005d 	andeq	r0, r0, sp, asr r0
    1d1c:	0009b703 	andeq	fp, r9, r3, lsl #14
    1d20:	65722600 	ldrbvs	r2, [r2, #-1536]!	; 0xfffffa00
    1d24:	7a010074 	bvc	41efc <__bss_end__+0x373a4>
    1d28:	00005d01 	andeq	r5, r0, r1, lsl #26
    1d2c:	01270000 			; <UNDEFINED> instruction: 0x01270000
    1d30:	01000008 	tsteq	r0, r8
    1d34:	cf03017a 	svcgt	0x0003017a
    1d38:	28000009 	stmdacs	r0, {r0, r3}
    1d3c:	7a010076 	bvc	41f1c <__bss_end__+0x373c4>
    1d40:	00005d01 	andeq	r5, r0, r1, lsl #26
    1d44:	8b0d0000 	blhi	341d4c <__bss_end__+0x3371f4>
    1d48:	01000006 	tsteq	r0, r6
    1d4c:	8b280657 	blhi	a036b0 <__bss_end__+0x9f8b58>
    1d50:	01380000 	teqeq	r8, r0
    1d54:	9c010000 	stcls	0, cr0, [r1], {-0}
    1d58:	00000dc2 	andeq	r0, r0, r2, asr #27
    1d5c:	00058911 	andeq	r8, r5, r1, lsl r9
    1d60:	10580100 	subsne	r0, r8, r0, lsl #2
    1d64:	00000025 	andeq	r0, r0, r5, lsr #32
    1d68:	00732000 	rsbseq	r2, r3, r0
    1d6c:	5d0e6301 	stcpl	3, cr6, [lr, #-4]
    1d70:	d3000000 	movwle	r0, #0
    1d74:	c300000a 	movwgt	r0, #10
    1d78:	1300000a 	movwne	r0, #10
    1d7c:	000000d6 	ldrdeq	r0, [r0], -r6
    1d80:	00000dd2 	ldrdeq	r0, [r0], -r2
    1d84:	a2fc0305 	rscsge	r0, ip, #335544320	; 0x14000000
    1d88:	9a190000 	bls	641d90 <__bss_end__+0x637238>
    1d8c:	30000014 	andcc	r0, r0, r4, lsl r0
    1d90:	0200008b 	andeq	r0, r0, #139	; 0x8b
    1d94:	00008b30 	andeq	r8, r0, r0, lsr fp
    1d98:	00000004 	andeq	r0, r0, r4
    1d9c:	3a126301 	bcc	49a9a8 <__bss_end__+0x48fe50>
    1da0:	1a00000a 	bne	1dd0 <__code_start__-0x6230>
    1da4:	000014ab 	andeq	r1, r0, fp, lsr #9
    1da8:	00000b35 	andeq	r0, r0, r5, lsr fp
    1dac:	00000b33 	andeq	r0, r0, r3, lsr fp
    1db0:	16b61900 	ldrtne	r1, [r6], r0, lsl #18
    1db4:	8b340000 	blhi	d01dbc <__bss_end__+0xcf7264>
    1db8:	34040000 	strcc	r0, [r4], #-0
    1dbc:	0000008b 	andeq	r0, r0, fp, lsl #1
    1dc0:	01000000 	mrseq	r0, (UNDEF: 0)
    1dc4:	0a6e0564 	beq	1b8335c <__bss_end__+0x1b78804>
    1dc8:	d11b0000 	tstle	fp, r0
    1dcc:	4a000016 	bmi	1e2c <__code_start__-0x61d4>
    1dd0:	4800000b 	stmdami	r0, {r0, r1, r3}
    1dd4:	1b00000b 	blne	1e08 <__code_start__-0x61f8>
    1dd8:	000016c7 	andeq	r1, r0, r7, asr #13
    1ddc:	00000b60 	andeq	r0, r0, r0, ror #22
    1de0:	00000b5e 	andeq	r0, r0, lr, asr fp
    1de4:	16b61900 	ldrtne	r1, [r6], r0, lsl #18
    1de8:	8b3c0000 	blhi	f01df0 <__bss_end__+0xef7298>
    1dec:	3c040000 	stccc	0, cr0, [r4], {-0}
    1df0:	0000008b 	andeq	r0, r0, fp, lsl #1
    1df4:	01000000 	mrseq	r0, (UNDEF: 0)
    1df8:	0aa20565 	beq	fe883394 <__bss_end__+0xfe87883c>
    1dfc:	d11b0000 	tstle	fp, r0
    1e00:	75000016 	strvc	r0, [r0, #-22]	; 0xffffffea
    1e04:	7300000b 	movwvc	r0, #11
    1e08:	1b00000b 	blne	1e3c <__code_start__-0x61c4>
    1e0c:	000016c7 	andeq	r1, r0, r7, asr #13
    1e10:	00000b8b 	andeq	r0, r0, fp, lsl #23
    1e14:	00000b89 	andeq	r0, r0, r9, lsl #23
    1e18:	162a1900 	strtne	r1, [sl], -r0, lsl #18
    1e1c:	8b440000 	blhi	1101e24 <__bss_end__+0x10f72cc>
    1e20:	44040000 	strmi	r0, [r4], #-0
    1e24:	0000008b 	andeq	r0, r0, fp, lsl #1
    1e28:	01000000 	mrseq	r0, (UNDEF: 0)
    1e2c:	0ae30566 	beq	ff8c33cc <__bss_end__+0xff8b8874>
    1e30:	501b0000 	andspl	r0, fp, r0
    1e34:	a0000016 	andge	r0, r0, r6, lsl r0
    1e38:	9e00000b 	cdpls	0, 0, cr0, cr0, cr11, {0}
    1e3c:	1b00000b 	blne	1e70 <__code_start__-0x6190>
    1e40:	00001645 	andeq	r1, r0, r5, asr #12
    1e44:	00000ba0 	andeq	r0, r0, r0, lsr #23
    1e48:	00000b9e 	muleq	r0, lr, fp
    1e4c:	00163b1b 	andseq	r3, r6, fp, lsl fp
    1e50:	000bb600 	andeq	fp, fp, r0, lsl #12
    1e54:	000bb400 	andeq	fp, fp, r0, lsl #8
    1e58:	2a190000 	bcs	641e60 <__bss_end__+0x637308>
    1e5c:	4c000016 	stcmi	0, cr0, [r0], {22}
    1e60:	0400008b 	streq	r0, [r0], #-139	; 0xffffff75
    1e64:	00008b4c 	andeq	r8, r0, ip, asr #22
    1e68:	00000000 	andeq	r0, r0, r0
    1e6c:	24056701 	strcs	r6, [r5], #-1793	; 0xfffff8ff
    1e70:	1b00000b 	blne	1ea4 <__code_start__-0x615c>
    1e74:	00001650 	andeq	r1, r0, r0, asr r6
    1e78:	00000bcb 	andeq	r0, r0, fp, asr #23
    1e7c:	00000bc9 	andeq	r0, r0, r9, asr #23
    1e80:	0016451b 	andseq	r4, r6, fp, lsl r5
    1e84:	000bcb00 	andeq	ip, fp, r0, lsl #22
    1e88:	000bc900 	andeq	ip, fp, r0, lsl #18
    1e8c:	163b1b00 	ldrtne	r1, [fp], -r0, lsl #22
    1e90:	0be10000 	bleq	ff841e98 <__bss_end__+0xff837340>
    1e94:	0bdf0000 	bleq	ff7c1e9c <__bss_end__+0xff7b7344>
    1e98:	19000000 	stmdbne	r0, {}	; <UNPREDICTABLE>
    1e9c:	000016eb 	andeq	r1, r0, fp, ror #13
    1ea0:	00008b54 	andeq	r8, r0, r4, asr fp
    1ea4:	008b5403 	addeq	r5, fp, r3, lsl #8
    1ea8:	00000400 	andeq	r0, r0, r0, lsl #8
    1eac:	05690100 	strbeq	r0, [r9, #-256]!	; 0xffffff00
    1eb0:	00000b58 	andeq	r0, r0, r8, asr fp
    1eb4:	0017061b 	andseq	r0, r7, fp, lsl r6
    1eb8:	000bf600 	andeq	pc, fp, r0, lsl #12
    1ebc:	000bf400 	andeq	pc, fp, r0, lsl #8
    1ec0:	16fc1b00 	ldrbtne	r1, [ip], r0, lsl #22
    1ec4:	0c0c0000 	stceq	0, cr0, [ip], {-0}
    1ec8:	0c0a0000 	stceq	0, cr0, [sl], {-0}
    1ecc:	19000000 	stmdbne	r0, {}	; <UNPREDICTABLE>
    1ed0:	00001482 	andeq	r1, r0, r2, lsl #9
    1ed4:	00008b58 	andeq	r8, r0, r8, asr fp
    1ed8:	008b5801 	addeq	r5, fp, r1, lsl #16
    1edc:	00000400 	andeq	r0, r0, r0, lsl #8
    1ee0:	05690100 	strbeq	r0, [r9, #-256]!	; 0xffffff00
    1ee4:	00000b7f 	andeq	r0, r0, pc, ror fp
    1ee8:	00148f1b 	andseq	r8, r4, fp, lsl pc
    1eec:	000c2100 	andeq	r2, ip, r0, lsl #2
    1ef0:	000c1f00 	andeq	r1, ip, r0, lsl #30
    1ef4:	9a190000 	bls	641efc <__bss_end__+0x6373a4>
    1ef8:	5c000014 	stcpl	0, cr0, [r0], {20}
    1efc:	0200008b 	andeq	r0, r0, #139	; 0x8b
    1f00:	00008b5c 	andeq	r8, r0, ip, asr fp
    1f04:	00000004 	andeq	r0, r0, r4
    1f08:	a6096a01 	strge	r6, [r9], -r1, lsl #20
    1f0c:	1a00000b 	bne	1f40 <__code_start__-0x60c0>
    1f10:	000014ab 	andeq	r1, r0, fp, lsr #9
    1f14:	00000c36 	andeq	r0, r0, r6, lsr ip
    1f18:	00000c34 	andeq	r0, r0, r4, lsr ip
    1f1c:	16b61900 	ldrtne	r1, [r6], r0, lsl #18
    1f20:	8b600000 	blhi	1801f28 <__bss_end__+0x17f73d0>
    1f24:	60040000 	andvs	r0, r4, r0
    1f28:	0000008b 	andeq	r0, r0, fp, lsl #1
    1f2c:	01000000 	mrseq	r0, (UNDEF: 0)
    1f30:	0bda056b 	bleq	ff6834e4 <__bss_end__+0xff67898c>
    1f34:	d11b0000 	tstle	fp, r0
    1f38:	4b000016 	blmi	1f98 <__code_start__-0x6068>
    1f3c:	4900000c 	stmdbmi	r0, {r2, r3}
    1f40:	1b00000c 	blne	1f78 <__code_start__-0x6088>
    1f44:	000016c7 	andeq	r1, r0, r7, asr #13
    1f48:	00000c61 	andeq	r0, r0, r1, ror #24
    1f4c:	00000c5f 	andeq	r0, r0, pc, asr ip
    1f50:	16b61900 	ldrtne	r1, [r6], r0, lsl #18
    1f54:	8b680000 	blhi	1a01f5c <__bss_end__+0x19f7404>
    1f58:	68040000 	stmdavs	r4, {}	; <UNPREDICTABLE>
    1f5c:	0000008b 	andeq	r0, r0, fp, lsl #1
    1f60:	01000000 	mrseq	r0, (UNDEF: 0)
    1f64:	0c0e056c 	cfstr32eq	mvfx0, [lr], {108}	; 0x6c
    1f68:	d11b0000 	tstle	fp, r0
    1f6c:	76000016 			; <UNDEFINED> instruction: 0x76000016
    1f70:	7400000c 	strvc	r0, [r0], #-12
    1f74:	1b00000c 	blne	1fac <__code_start__-0x6054>
    1f78:	000016c7 	andeq	r1, r0, r7, asr #13
    1f7c:	00000c8c 	andeq	r0, r0, ip, lsl #25
    1f80:	00000c8a 	andeq	r0, r0, sl, lsl #25
    1f84:	176a1900 	strbne	r1, [sl, -r0, lsl #18]!
    1f88:	8b700000 	blhi	1c01f90 <__bss_end__+0x1bf7438>
    1f8c:	70030000 	andvc	r0, r3, r0
    1f90:	0800008b 	stmdaeq	r0, {r0, r1, r3, r7}
    1f94:	01000000 	mrseq	r0, (UNDEF: 0)
    1f98:	0c35056e 	cfldr32eq	mvfx0, [r5], #-440	; 0xfffffe48
    1f9c:	771a0000 	ldrvc	r0, [sl, -r0]
    1fa0:	a1000017 	tstge	r0, r7, lsl r0
    1fa4:	9f00000c 	svcls	0x0000000c
    1fa8:	0000000c 	andeq	r0, r0, ip
    1fac:	008b9c14 	addeq	r9, fp, r4, lsl ip
    1fb0:	00178200 	andseq	r8, r7, r0, lsl #4
    1fb4:	000c6e00 	andeq	r6, ip, r0, lsl #28
    1fb8:	50010f00 	andpl	r0, r1, r0, lsl #30
    1fbc:	9d180305 	ldcls	3, cr0, [r8, #-20]	; 0xffffffec
    1fc0:	010f0000 	mrseq	r0, CPSR
    1fc4:	98030551 	stmdals	r3, {r0, r4, r6, r8, sl}
    1fc8:	0f0000a0 	svceq	0x000000a0
    1fcc:	03055201 	movweq	r5, #20993	; 0x5201
    1fd0:	0000a2fc 	strdeq	sl, [r0], -ip
    1fd4:	0253010f 	subseq	r0, r3, #-1073741821	; 0xc0000003
    1fd8:	020f6408 	andeq	r6, pc, #8, 8	; 0x8000000
    1fdc:	0305007d 	movweq	r0, #20605	; 0x507d
    1fe0:	0000a204 	andeq	sl, r0, r4, lsl #4
    1fe4:	8ba01200 	blhi	fe8067ec <__bss_end__+0xfe7fbc94>
    1fe8:	178e0000 	strne	r0, [lr, r0]
    1fec:	bc140000 	ldclt	0, cr0, [r4], {-0}
    1ff0:	8200008b 	andhi	r0, r0, #139	; 0x8b
    1ff4:	b0000017 	andlt	r0, r0, r7, lsl r0
    1ff8:	0f00000c 	svceq	0x0000000c
    1ffc:	03055001 	movweq	r5, #20481	; 0x5001
    2000:	00009d18 	andeq	r9, r0, r8, lsl sp
    2004:	0551010f 	ldrbeq	r0, [r1, #-271]	; 0xfffffef1
    2008:	00a09803 	adceq	r9, r0, r3, lsl #16
    200c:	52010f00 	andpl	r0, r1, #0, 30
    2010:	a2fc0305 	rscsge	r0, ip, #335544320	; 0x14000000
    2014:	010f0000 	mrseq	r0, CPSR
    2018:	65080253 	strvs	r0, [r8, #-595]	; 0xfffffdad
    201c:	007d020f 	rsbseq	r0, sp, pc, lsl #4
    2020:	a2180305 	andsge	r0, r8, #335544320	; 0x14000000
    2024:	12000000 	andne	r0, r0, #0
    2028:	00008bc0 	andeq	r8, r0, r0, asr #23
    202c:	0000178e 	andeq	r1, r0, lr, lsl #15
    2030:	008bdc14 	addeq	sp, fp, r4, lsl ip
    2034:	00178200 	andseq	r8, r7, r0, lsl #4
    2038:	000cf200 	andeq	pc, ip, r0, lsl #4
    203c:	50010f00 	andpl	r0, r1, r0, lsl #30
    2040:	9d180305 	ldcls	3, cr0, [r8, #-20]	; 0xffffffec
    2044:	010f0000 	mrseq	r0, CPSR
    2048:	98030551 	stmdals	r3, {r0, r4, r6, r8, sl}
    204c:	0f0000a0 	svceq	0x000000a0
    2050:	03055201 	movweq	r5, #20993	; 0x5201
    2054:	0000a2fc 	strdeq	sl, [r0], -ip
    2058:	0253010f 	subseq	r0, r3, #-1073741821	; 0xc0000003
    205c:	020f6608 	andeq	r6, pc, #8, 12	; 0x800000
    2060:	0305007d 	movweq	r0, #20605	; 0x507d
    2064:	0000a22c 	andeq	sl, r0, ip, lsr #4
    2068:	8be01200 	blhi	ff806870 <__bss_end__+0xff7fbd18>
    206c:	178e0000 	strne	r0, [lr, r0]
    2070:	fc140000 	ldc2	0, cr0, [r4], {-0}
    2074:	8200008b 	andhi	r0, r0, #139	; 0x8b
    2078:	34000017 	strcc	r0, [r0], #-23	; 0xffffffe9
    207c:	0f00000d 	svceq	0x0000000d
    2080:	03055001 	movweq	r5, #20481	; 0x5001
    2084:	00009d18 	andeq	r9, r0, r8, lsl sp
    2088:	0551010f 	ldrbeq	r0, [r1, #-271]	; 0xfffffef1
    208c:	00a09803 	adceq	r9, r0, r3, lsl #16
    2090:	52010f00 	andpl	r0, r1, #0, 30
    2094:	a2fc0305 	rscsge	r0, ip, #335544320	; 0x14000000
    2098:	010f0000 	mrseq	r0, CPSR
    209c:	67080253 	smlsdvs	r8, r3, r2, r0
    20a0:	007d020f 	rsbseq	r0, sp, pc, lsl #4
    20a4:	a2440305 	subge	r0, r4, #335544320	; 0x14000000
    20a8:	12000000 	andne	r0, r0, #0
    20ac:	00008c00 	andeq	r8, r0, r0, lsl #24
    20b0:	0000178e 	andeq	r1, r0, lr, lsl #15
    20b4:	008c1c14 	addeq	r1, ip, r4, lsl ip
    20b8:	00178200 	andseq	r8, r7, r0, lsl #4
    20bc:	000d7600 	andeq	r7, sp, r0, lsl #12
    20c0:	50010f00 	andpl	r0, r1, r0, lsl #30
    20c4:	9d180305 	ldcls	3, cr0, [r8, #-20]	; 0xffffffec
    20c8:	010f0000 	mrseq	r0, CPSR
    20cc:	98030551 	stmdals	r3, {r0, r4, r6, r8, sl}
    20d0:	0f0000a0 	svceq	0x000000a0
    20d4:	03055201 	movweq	r5, #20993	; 0x5201
    20d8:	0000a2fc 	strdeq	sl, [r0], -ip
    20dc:	0253010f 	subseq	r0, r3, #-1073741821	; 0xc0000003
    20e0:	020f6b08 	andeq	r6, pc, #8, 22	; 0x2000
    20e4:	0305007d 	movweq	r0, #20605	; 0x507d
    20e8:	0000a25c 	andeq	sl, r0, ip, asr r2
    20ec:	8c201200 	sfmhi	f1, 4, [r0], #-0
    20f0:	178e0000 	strne	r0, [lr, r0]
    20f4:	3c140000 	ldccc	0, cr0, [r4], {-0}
    20f8:	8200008c 	andhi	r0, r0, #140	; 0x8c
    20fc:	b8000017 	stmdalt	r0, {r0, r1, r2, r4}
    2100:	0f00000d 	svceq	0x0000000d
    2104:	03055001 	movweq	r5, #20481	; 0x5001
    2108:	00009d18 	andeq	r9, r0, r8, lsl sp
    210c:	0551010f 	ldrbeq	r0, [r1, #-271]	; 0xfffffef1
    2110:	00a09803 	adceq	r9, r0, r3, lsl #16
    2114:	52010f00 	andpl	r0, r1, #0, 30
    2118:	a2fc0305 	rscsge	r0, ip, #335544320	; 0x14000000
    211c:	010f0000 	mrseq	r0, CPSR
    2120:	6c080253 	sfmvs	f0, 4, [r8], {83}	; 0x53
    2124:	007d020f 	rsbseq	r0, sp, pc, lsl #4
    2128:	a2040305 	andge	r0, r4, #335544320	; 0x14000000
    212c:	12000000 	andne	r0, r0, #0
    2130:	00008c40 	andeq	r8, r0, r0, asr #24
    2134:	0000178e 	andeq	r1, r0, lr, lsl #15
    2138:	00b41500 	adcseq	r1, r4, r0, lsl #10
    213c:	0dd20000 	ldcleq	0, cr0, [r2]
    2140:	2c160000 	ldccs	0, cr0, [r6], {-0}
    2144:	0b000000 	bleq	214c <__code_start__-0x5eb4>
    2148:	0dc20900 	vstreq.16	s1, [r2]	; <UNPREDICTABLE>
    214c:	fa0d0000 	blx	342154 <__bss_end__+0x3375fc>
    2150:	01000005 	tsteq	r0, r5
    2154:	899c063f 	ldmibhi	ip, {r0, r1, r2, r3, r4, r5, r9, sl}
    2158:	018c0000 	orreq	r0, ip, r0
    215c:	9c010000 	stcls	0, cr0, [r1], {-0}
    2160:	000011be 			; <UNDEFINED> instruction: 0x000011be
    2164:	00637017 	rsbeq	r7, r3, r7, lsl r0
    2168:	2c273f01 	stccs	15, cr3, [r7], #-4
    216c:	bb000000 	bllt	2174 <__code_start__-0x5e8c>
    2170:	b500000c 	strlt	r0, [r0, #-12]
    2174:	0b00000c 	bleq	21ac <__code_start__-0x5e54>
    2178:	000007aa 	andeq	r0, r0, sl, lsr #15
    217c:	25104001 	ldrcs	r4, [r0, #-1]
    2180:	05000000 	streq	r0, [r0, #-0]
    2184:	00a74c03 	adceq	r4, r7, r3, lsl #24
    2188:	00d61300 	sbcseq	r1, r6, r0, lsl #6
    218c:	11ce0000 	bicne	r0, lr, r0
    2190:	03050000 	movweq	r0, #20480	; 0x5000
    2194:	0000a2e4 	andeq	sl, r0, r4, ror #5
    2198:	0002e029 	andeq	lr, r2, r9, lsr #32
    219c:	0e500100 	rdfeqs	f0, f0, f0
    21a0:	0000005d 	andeq	r0, r0, sp, asr r0
    21a4:	00000ce6 	andeq	r0, r0, r6, ror #25
    21a8:	00000ce4 	andeq	r0, r0, r4, ror #25
    21ac:	0015c318 	andseq	ip, r5, r8, lsl r3
    21b0:	0089c400 	addeq	ip, r9, r0, lsl #8
    21b4:	00980100 	addseq	r0, r8, r0, lsl #2
    21b8:	42010000 	andmi	r0, r1, #0
    21bc:	000ea208 	andeq	sl, lr, r8, lsl #4
    21c0:	15d01900 	ldrbne	r1, [r0, #2304]	; 0x900
    21c4:	89c40000 	stmibhi	r4, {}^	; <UNPREDICTABLE>
    21c8:	c4030000 	strgt	r0, [r3], #-0
    21cc:	04000089 	streq	r0, [r0], #-137	; 0xffffff77
    21d0:	04000000 	streq	r0, [r0], #-0
    21d4:	0e710c75 	mrceq	12, 3, r0, cr1, cr5, {3}
    21d8:	e11a0000 	tst	sl, r0
    21dc:	fb000015 	blx	223a <__code_start__-0x5dc6>
    21e0:	f900000c 			; <UNDEFINED> instruction: 0xf900000c
    21e4:	0000000c 	andeq	r0, r0, ip
    21e8:	0016b621 	andseq	fp, r6, r1, lsr #12
    21ec:	0089c800 	addeq	ip, r9, r0, lsl #16
    21f0:	89c80200 	stmibhi	r8, {r9}^
    21f4:	00000000 	andeq	r0, r0, r0
    21f8:	75040000 	strvc	r0, [r4, #-0]
    21fc:	16d11b0c 	ldrbne	r1, [r1], ip, lsl #22
    2200:	0d100000 	ldceq	0, cr0, [r0, #-0]
    2204:	0d0e0000 	stceq	0, cr0, [lr, #-0]
    2208:	c71b0000 	ldrgt	r0, [fp, -r0]
    220c:	26000016 			; <UNDEFINED> instruction: 0x26000016
    2210:	2400000d 	strcs	r0, [r0], #-13
    2214:	0000000d 	andeq	r0, r0, sp
    2218:	156d1800 	strbne	r1, [sp, #-2048]!	; 0xfffff800
    221c:	89d80000 	ldmibhi	r8, {}^	; <UNPREDICTABLE>
    2220:	b0010000 	andlt	r0, r1, r0
    2224:	01000000 	mrseq	r0, (UNDEF: 0)
    2228:	0fec0947 	svceq	0x00ec0947
    222c:	b0230000 	eorlt	r0, r3, r0
    2230:	1a000000 	bne	2238 <__code_start__-0x5dc8>
    2234:	0000157e 	andeq	r1, r0, lr, ror r5
    2238:	00000d3d 	andeq	r0, r0, sp, lsr sp
    223c:	00000d39 	andeq	r0, r0, r9, lsr sp
    2240:	0015d019 	andseq	sp, r5, r9, lsl r0
    2244:	0089d800 	addeq	sp, r9, r0, lsl #16
    2248:	89d80300 	ldmibhi	r8, {r8, r9}^
    224c:	00040000 	andeq	r0, r4, r0
    2250:	84040000 	strhi	r0, [r4], #-0
    2254:	000ef012 	andeq	pc, lr, r2, lsl r0	; <UNPREDICTABLE>
    2258:	15e11a00 	strbne	r1, [r1, #2560]!	; 0xa00
    225c:	0d5d0000 	ldcleq	0, cr0, [sp, #-0]
    2260:	0d5b0000 	ldcleq	0, cr0, [fp, #-0]
    2264:	18000000 	stmdane	r0, {}	; <UNPREDICTABLE>
    2268:	000015a7 	andeq	r1, r0, r7, lsr #11
    226c:	000089dc 	ldrdeq	r8, [r0], -ip
    2270:	0000d803 	andeq	sp, r0, r3, lsl #16
    2274:	09850400 	stmibeq	r5, {sl}
    2278:	00000f85 	andeq	r0, r0, r5, lsl #31
    227c:	0015b81b 	andseq	fp, r5, fp, lsl r8
    2280:	000d7400 	andeq	r7, sp, r0, lsl #8
    2284:	000d7000 	andeq	r7, sp, r0
    2288:	16b61900 	ldrtne	r1, [r6], r0, lsl #18
    228c:	89dc0000 	ldmibhi	ip, {}^	; <UNPREDICTABLE>
    2290:	dc050000 	stcle	0, cr0, [r5], {-0}
    2294:	00000089 	andeq	r0, r0, r9, lsl #1
    2298:	04000000 	streq	r0, [r0], #-0
    229c:	0f460c7f 	svceq	0x00460c7f
    22a0:	d11b0000 	tstle	fp, r0
    22a4:	94000016 	strls	r0, [r0], #-22	; 0xffffffea
    22a8:	9200000d 	andls	r0, r0, #13
    22ac:	1b00000d 	blne	22e8 <__code_start__-0x5d18>
    22b0:	000016c7 	andeq	r1, r0, r7, asr #13
    22b4:	00000daa 	andeq	r0, r0, sl, lsr #27
    22b8:	00000da8 	andeq	r0, r0, r8, lsr #27
    22bc:	162a1c00 	strtne	r1, [sl], -r0, lsl #24
    22c0:	8a6c0000 	bhi	1b022c8 <__bss_end__+0x1af7770>
    22c4:	f8000000 			; <UNDEFINED> instruction: 0xf8000000
    22c8:	04000000 	streq	r0, [r0], #-0
    22cc:	501b257f 	andspl	r2, fp, pc, ror r5
    22d0:	bf000016 	svclt	0x00000016
    22d4:	bd00000d 	stclt	0, cr0, [r0, #-52]	; 0xffffffcc
    22d8:	1b00000d 	blne	2314 <__code_start__-0x5cec>
    22dc:	00001645 	andeq	r1, r0, r5, asr #12
    22e0:	00000dd5 	ldrdeq	r0, [r0], -r5
    22e4:	00000dd3 	ldrdeq	r0, [r0], -r3
    22e8:	00163b1b 	andseq	r3, r6, fp, lsl fp
    22ec:	000deb00 	andeq	lr, sp, r0, lsl #22
    22f0:	000de900 	andeq	lr, sp, r0, lsl #18
    22f4:	00f81d00 	rscseq	r1, r8, r0, lsl #26
    22f8:	00000000 	andeq	r0, r0, r0
    22fc:	0015ee19 	andseq	lr, r5, r9, lsl lr
    2300:	008a8400 	addeq	r8, sl, r0, lsl #8
    2304:	8a840300 	bhi	fe102f0c <__bss_end__+0xfe0f83b4>
    2308:	00040000 	andeq	r0, r4, r0
    230c:	8a040000 	bhi	102314 <__bss_end__+0xf77bc>
    2310:	000fac0c 	andeq	sl, pc, ip, lsl #24
    2314:	15ff1a00 	ldrbne	r1, [pc, #2560]!	; 2d1c <__code_start__-0x52e4>
    2318:	0e020000 	cdpeq	0, 0, cr0, cr2, cr0, {0}
    231c:	0dfe0000 	ldcleq	0, cr0, [lr]
    2320:	1c000000 	stcne	0, cr0, [r0], {-0}
    2324:	0000162a 	andeq	r1, r0, sl, lsr #12
    2328:	00008a88 	andeq	r8, r0, r8, lsl #21
    232c:	00011002 	andeq	r1, r1, r2
    2330:	0c8a0400 	cfstrseq	mvf0, [sl], {0}
    2334:	0016501b 	andseq	r5, r6, fp, lsl r0
    2338:	000e2300 	andeq	r2, lr, r0, lsl #6
    233c:	000e2100 	andeq	r2, lr, r0, lsl #2
    2340:	16451b00 	strbne	r1, [r5], -r0, lsl #22
    2344:	0e390000 	cdpeq	0, 3, cr0, cr9, cr0, {0}
    2348:	0e370000 	cdpeq	0, 3, cr0, cr7, cr0, {0}
    234c:	3b1b0000 	blcc	6c2354 <__bss_end__+0x6b77fc>
    2350:	4f000016 	svcmi	0x00000016
    2354:	4d00000e 	stcmi	0, cr0, [r0, #-56]	; 0xffffffc8
    2358:	1d00000e 	stcne	0, cr0, [r0, #-56]	; 0xffffffc8
    235c:	00000110 	andeq	r0, r0, r0, lsl r1
    2360:	19000000 	stmdbne	r0, {}	; <UNPREDICTABLE>
    2364:	0000160c 	andeq	r1, r0, ip, lsl #12
    2368:	000089fc 	strdeq	r8, [r0], -ip
    236c:	0089fc02 	addeq	pc, r9, r2, lsl #24
    2370:	00000400 	andeq	r0, r0, r0, lsl #8
    2374:	2c4b0100 	stfcse	f0, [fp], {-0}
    2378:	00001013 	andeq	r1, r0, r3, lsl r0
    237c:	00161d1a 	andseq	r1, r6, sl, lsl sp
    2380:	000e6600 	andeq	r6, lr, r0, lsl #12
    2384:	000e6200 	andeq	r6, lr, r0, lsl #4
    2388:	0c190000 	ldceq	0, cr0, [r9], {-0}
    238c:	10000016 	andne	r0, r0, r6, lsl r0
    2390:	0200008a 	andeq	r0, r0, #138	; 0x8a
    2394:	00008a10 	andeq	r8, r0, r0, lsl sl
    2398:	00000004 	andeq	r0, r0, r4
    239c:	3a054c01 	bcc	1553a8 <__bss_end__+0x14a850>
    23a0:	1a000010 	bne	23e8 <__code_start__-0x5c18>
    23a4:	0000161d 	andeq	r1, r0, sp, lsl r6
    23a8:	00000e89 	andeq	r0, r0, r9, lsl #29
    23ac:	00000e85 	andeq	r0, r0, r5, lsl #29
    23b0:	154f1900 	strbne	r1, [pc, #-2304]	; 1ab8 <__code_start__-0x6548>
    23b4:	8a300000 	bhi	c023bc <__bss_end__+0xbf7864>
    23b8:	30030000 	andcc	r0, r3, r0
    23bc:	0400008a 	streq	r0, [r0], #-138	; 0xffffff76
    23c0:	01000000 	mrseq	r0, (UNDEF: 0)
    23c4:	10611550 	rsbne	r1, r1, r0, asr r5
    23c8:	601a0000 	andsvs	r0, sl, r0
    23cc:	aa000015 	bge	2428 <__code_start__-0x5bd8>
    23d0:	a800000e 	stmdage	r0, {r1, r2, r3}
    23d4:	0000000e 	andeq	r0, r0, lr
    23d8:	0089c414 	addeq	ip, r9, r4, lsl r4
    23dc:	00178200 	andseq	r8, r7, r0, lsl #4
    23e0:	00107e00 	andseq	r7, r0, r0, lsl #28
    23e4:	50010f00 	andpl	r0, r1, r0, lsl #30
    23e8:	a12c0305 			; <UNDEFINED> instruction: 0xa12c0305
    23ec:	010f0000 	mrseq	r0, CPSR
    23f0:	00740252 	rsbseq	r0, r4, r2, asr r2
    23f4:	89d81400 	ldmibhi	r8, {sl, ip}^
    23f8:	17820000 	strne	r0, [r2, r0]
    23fc:	10950000 	addsne	r0, r5, r0
    2400:	010f0000 	mrseq	r0, CPSR
    2404:	4c030550 	cfstr32mi	mvfx0, [r3], {80}	; 0x50
    2408:	000000a1 	andeq	r0, r0, r1, lsr #1
    240c:	008a1014 	addeq	r1, sl, r4, lsl r0
    2410:	00178200 	andseq	r8, r7, r0, lsl #4
    2414:	0010b200 	andseq	fp, r0, r0, lsl #4
    2418:	50010f00 	andpl	r0, r1, r0, lsl #30
    241c:	a1ac0305 			; <UNDEFINED> instruction: 0xa1ac0305
    2420:	010f0000 	mrseq	r0, CPSR
    2424:	00740252 	rsbseq	r0, r4, r2, asr r2
    2428:	8a401400 	bhi	1007430 <__bss_end__+0xffc8d8>
    242c:	17820000 	strne	r0, [r2, r0]
    2430:	10cf0000 	sbcne	r0, pc, r0
    2434:	010f0000 	mrseq	r0, CPSR
    2438:	f0030550 			; <UNDEFINED> instruction: 0xf0030550
    243c:	0f0000a1 	svceq	0x000000a1
    2440:	75025101 	strvc	r5, [r2, #-257]	; 0xfffffeff
    2444:	581e0000 	ldmdapl	lr, {}	; <UNPREDICTABLE>
    2448:	ea00008a 	b	2678 <__code_start__-0x5988>
    244c:	0f000010 	svceq	0x00000010
    2450:	30015001 	andcc	r5, r1, r1
    2454:	0251010f 	subseq	r0, r1, #-1073741821	; 0xc0000003
    2458:	010f0074 	tsteq	pc, r4, ror r0	; <UNPREDICTABLE>
    245c:	00750252 	rsbseq	r0, r5, r2, asr r2
    2460:	8a681400 	bhi	1a07468 <__bss_end__+0x19fc910>
    2464:	17820000 	strne	r0, [r2, r0]
    2468:	11010000 	mrsne	r0, (UNDEF: 1)
    246c:	010f0000 	mrseq	r0, CPSR
    2470:	60030550 	andvs	r0, r3, r0, asr r5
    2474:	000000a1 	andeq	r0, r0, r1, lsr #1
    2478:	008ab414 	addeq	fp, sl, r4, lsl r4
    247c:	00178200 	andseq	r8, r7, r0, lsl #4
    2480:	00113000 	andseq	r3, r1, r0
    2484:	50010f00 	andpl	r0, r1, r0, lsl #30
    2488:	a1740305 	cmnge	r4, r5, lsl #6
    248c:	010f0000 	mrseq	r0, CPSR
    2490:	98030551 	stmdals	r3, {r0, r4, r6, r8, sl}
    2494:	0f0000a0 	svceq	0x000000a0
    2498:	03055201 	movweq	r5, #20993	; 0x5201
    249c:	0000a2e4 	andeq	sl, r0, r4, ror #5
    24a0:	0253010f 	subseq	r0, r3, #-1073741821	; 0xc0000003
    24a4:	12004808 	andne	r4, r0, #8, 16	; 0x80000
    24a8:	00008ab8 			; <UNDEFINED> instruction: 0x00008ab8
    24ac:	0000178e 	andeq	r1, r0, lr, lsl #15
    24b0:	008ad414 	addeq	sp, sl, r4, lsl r4
    24b4:	00178200 	andseq	r8, r7, r0, lsl #4
    24b8:	00117200 	andseq	r7, r1, r0, lsl #4
    24bc:	50010f00 	andpl	r0, r1, r0, lsl #30
    24c0:	9d180305 	ldcls	3, cr0, [r8, #-20]	; 0xffffffec
    24c4:	010f0000 	mrseq	r0, CPSR
    24c8:	98030551 	stmdals	r3, {r0, r4, r6, r8, sl}
    24cc:	0f0000a0 	svceq	0x000000a0
    24d0:	03055201 	movweq	r5, #20993	; 0x5201
    24d4:	0000a2e4 	andeq	sl, r0, r4, ror #5
    24d8:	0253010f 	subseq	r0, r3, #-1073741821	; 0xc0000003
    24dc:	020f4c08 	andeq	r4, pc, #8, 24	; 0x800
    24e0:	0305007d 	movweq	r0, #20605	; 0x507d
    24e4:	0000a1c8 	andeq	sl, r0, r8, asr #3
    24e8:	8ad81200 	bhi	ff606cf0 <__bss_end__+0xff5fc198>
    24ec:	178e0000 	strne	r0, [lr, r0]
    24f0:	f4140000 			; <UNDEFINED> instruction: 0xf4140000
    24f4:	8200008a 	andhi	r0, r0, #138	; 0x8a
    24f8:	b4000017 	strlt	r0, [r0], #-23	; 0xffffffe9
    24fc:	0f000011 	svceq	0x00000011
    2500:	03055001 	movweq	r5, #20481	; 0x5001
    2504:	00009d18 	andeq	r9, r0, r8, lsl sp
    2508:	0551010f 	ldrbeq	r0, [r1, #-271]	; 0xfffffef1
    250c:	00a09803 	adceq	r9, r0, r3, lsl #16
    2510:	52010f00 	andpl	r0, r1, #0, 30
    2514:	a2e40305 	rscge	r0, r4, #335544320	; 0x14000000
    2518:	010f0000 	mrseq	r0, CPSR
    251c:	4e080253 	mcrmi	2, 0, r0, cr8, cr3, {2}
    2520:	007d020f 	rsbseq	r0, sp, pc, lsl #4
    2524:	a1dc0305 	bicsge	r0, ip, r5, lsl #6
    2528:	12000000 	andne	r0, r0, #0
    252c:	00008af8 	strdeq	r8, [r0], -r8	; <UNPREDICTABLE>
    2530:	0000178e 	andeq	r1, r0, lr, lsl #15
    2534:	00b41500 	adcseq	r1, r4, r0, lsl #10
    2538:	11ce0000 	bicne	r0, lr, r0
    253c:	2c160000 	ldccs	0, cr0, [r6], {-0}
    2540:	17000000 	strne	r0, [r0, -r0]
    2544:	11be0900 			; <UNDEFINED> instruction: 0x11be0900
    2548:	120d0000 	andne	r0, sp, #0
    254c:	01000006 	tsteq	r0, r6
    2550:	88e00628 	stmiahi	r0!, {r3, r5, r9, sl}^
    2554:	00bc0000 	adcseq	r0, ip, r0
    2558:	9c010000 	stcls	0, cr0, [r1], {-0}
    255c:	0000146b 	andeq	r1, r0, fp, ror #8
    2560:	0002df10 	andeq	sp, r2, r0, lsl pc
    2564:	19280100 	stmdbne	r8!, {r8}
    2568:	0000146b 	andeq	r1, r0, fp, ror #8
    256c:	00000ec5 	andeq	r0, r0, r5, asr #29
    2570:	00000ebd 			; <UNDEFINED> instruction: 0x00000ebd
    2574:	00054610 	andeq	r4, r5, r0, lsl r6
    2578:	2a280100 	bcs	a02980 <__bss_end__+0x9f7e28>
    257c:	000000cb 	andeq	r0, r0, fp, asr #1
    2580:	00000f07 	andeq	r0, r0, r7, lsl #30
    2584:	00000eff 	strdeq	r0, [r0], -pc	; <UNPREDICTABLE>
    2588:	0002e029 	andeq	lr, r2, r9, lsr #32
    258c:	0e2b0100 	sufeqe	f0, f3, f0
    2590:	0000005d 	andeq	r0, r0, sp, asr r0
    2594:	00000f49 	andeq	r0, r0, r9, asr #30
    2598:	00000f41 	andeq	r0, r0, r1, asr #30
    259c:	0000d613 	andeq	sp, r0, r3, lsl r6
    25a0:	00147d00 	andseq	r7, r4, r0, lsl #26
    25a4:	d4030500 	strle	r0, [r3], #-1280	; 0xfffffb00
    25a8:	200000a2 	andcs	r0, r0, r2, lsr #1
    25ac:	30010078 	andcc	r0, r1, r8, ror r0
    25b0:	00005d0e 	andeq	r5, r0, lr, lsl #26
    25b4:	000f8d00 	andeq	r8, pc, r0, lsl #26
    25b8:	000f8300 	andeq	r8, pc, r0, lsl #6
    25bc:	14b81900 	ldrtne	r1, [r8], #2304	; 0x900
    25c0:	88e80000 	stmiahi	r8!, {}^	; <UNPREDICTABLE>
    25c4:	e8010000 	stmda	r1, {}	; <UNPREDICTABLE>
    25c8:	04000088 	streq	r0, [r0], #-136	; 0xffffff78
    25cc:	01000000 	mrseq	r0, (UNDEF: 0)
    25d0:	126d0529 	rsbne	r0, sp, #171966464	; 0xa400000
    25d4:	c91a0000 	ldmdbgt	sl, {}	; <UNPREDICTABLE>
    25d8:	d7000014 	smladle	r0, r4, r0, r0
    25dc:	d300000f 	movwle	r0, #15
    25e0:	0000000f 	andeq	r0, r0, pc
    25e4:	00173519 	andseq	r3, r7, r9, lsl r5
    25e8:	0088ec00 	addeq	lr, r8, r0, lsl #24
    25ec:	88ec0200 	stmiahi	ip!, {r9}^
    25f0:	00040000 	andeq	r0, r4, r0
    25f4:	29010000 	stmdbcs	r1, {}	; <UNPREDICTABLE>
    25f8:	0012a105 	andseq	sl, r2, r5, lsl #2
    25fc:	17501b00 	ldrbne	r1, [r0, -r0, lsl #22]
    2600:	0ff80000 	svceq	0x00f80000
    2604:	0ff60000 	svceq	0x00f60000
    2608:	461b0000 	ldrmi	r0, [fp], -r0
    260c:	0e000017 	mcreq	0, 0, r0, cr0, cr7, {0}
    2610:	0c000010 	stceq	0, cr0, [r0], {16}
    2614:	00000010 	andeq	r0, r0, r0, lsl r0
    2618:	0014d619 	andseq	sp, r4, r9, lsl r6
    261c:	0088f000 	addeq	pc, r8, r0
    2620:	88f00100 	ldmhi	r0!, {r8}^
    2624:	000c0000 	andeq	r0, ip, r0
    2628:	29010000 	stmdbcs	r1, {}	; <UNPREDICTABLE>
    262c:	0012e405 	andseq	lr, r2, r5, lsl #8
    2630:	14e31b00 	strbtne	r1, [r3], #2816	; 0xb00
    2634:	10230000 	eorne	r0, r3, r0
    2638:	10210000 	eorne	r0, r1, r0
    263c:	6a210000 	bvs	842644 <__bss_end__+0x837aec>
    2640:	f4000017 	vst4.8	{d0-d3}, [r0 :64], r7
    2644:	01000088 	smlabbeq	r0, r8, r0, r0
    2648:	000088f4 	strdeq	r8, [r0], -r4
    264c:	00000008 	andeq	r0, r0, r8
    2650:	22011601 	andcs	r1, r1, #1048576	; 0x100000
    2654:	00001777 	andeq	r1, r0, r7, ror r7
    2658:	19000000 	stmdbne	r0, {}	; <UNPREDICTABLE>
    265c:	0000150c 	andeq	r1, r0, ip, lsl #10
    2660:	000088fc 	strdeq	r8, [r0], -ip
    2664:	0088fc03 	addeq	pc, r8, r3, lsl #24
    2668:	00000800 	andeq	r0, r0, r0, lsl #16
    266c:	052c0100 	streq	r0, [ip, #-256]!	; 0xffffff00
    2670:	00001327 	andeq	r1, r0, r7, lsr #6
    2674:	0015191b 	andseq	r1, r5, fp, lsl r9
    2678:	00103800 	andseq	r3, r0, r0, lsl #16
    267c:	00103600 	andseq	r3, r0, r0, lsl #12
    2680:	176a2100 	strbne	r2, [sl, -r0, lsl #2]!
    2684:	89000000 	stmdbhi	r0, {}	; <UNPREDICTABLE>
    2688:	00010000 	andeq	r0, r1, r0
    268c:	04000089 	streq	r0, [r0], #-137	; 0xffffff77
    2690:	01000000 	mrseq	r0, (UNDEF: 0)
    2694:	77220115 			; <UNDEFINED> instruction: 0x77220115
    2698:	00000017 	andeq	r0, r0, r7, lsl r0
    269c:	ee190000 	cdp	0, 1, cr0, cr9, cr0, {0}
    26a0:	04000014 	streq	r0, [r0], #-20	; 0xffffffec
    26a4:	03000089 	movweq	r0, #137	; 0x89
    26a8:	00008904 	andeq	r8, r0, r4, lsl #18
    26ac:	00000004 	andeq	r0, r0, r4
    26b0:	4e052d01 	cdpmi	13, 0, cr2, cr5, cr1, {0}
    26b4:	1a000013 	bne	2708 <__code_start__-0x58f8>
    26b8:	000014ff 	strdeq	r1, [r0], -pc	; <UNPREDICTABLE>
    26bc:	0000104f 	andeq	r1, r0, pc, asr #32
    26c0:	0000104b 	andeq	r1, r0, fp, asr #32
    26c4:	14d61900 	ldrbne	r1, [r6], #2304	; 0x900
    26c8:	89100000 	ldmdbhi	r0, {}	; <UNPREDICTABLE>
    26cc:	10070000 	andne	r0, r7, r0
    26d0:	10000089 	andne	r0, r0, r9, lsl #1
    26d4:	01000000 	mrseq	r0, (UNDEF: 0)
    26d8:	13980534 	orrsne	r0, r8, #52, 10	; 0xd000000
    26dc:	e31b0000 	tst	fp, #0
    26e0:	70000014 	andvc	r0, r0, r4, lsl r0
    26e4:	6e000010 	mcrvs	0, 0, r0, cr0, cr0, {0}
    26e8:	21000010 	tstcs	r0, r0, lsl r0
    26ec:	0000176a 	andeq	r1, r0, sl, ror #14
    26f0:	00008918 	andeq	r8, r0, r8, lsl r9
    26f4:	00891801 	addeq	r1, r9, r1, lsl #16
    26f8:	00000800 	andeq	r0, r0, r0, lsl #16
    26fc:	01160100 	tsteq	r6, r0, lsl #2
    2700:	0017771a 	andseq	r7, r7, sl, lsl r7
    2704:	00108900 	andseq	r8, r0, r0, lsl #18
    2708:	00108500 	andseq	r8, r0, r0, lsl #10
    270c:	19000000 	stmdbne	r0, {}	; <UNPREDICTABLE>
    2710:	000014b8 			; <UNDEFINED> instruction: 0x000014b8
    2714:	00008920 	andeq	r8, r0, r0, lsr #18
    2718:	00892003 	addeq	r2, r9, r3
    271c:	00000400 	andeq	r0, r0, r0, lsl #8
    2720:	05350100 	ldreq	r0, [r5, #-256]!	; 0xffffff00
    2724:	000013bf 			; <UNDEFINED> instruction: 0x000013bf
    2728:	0014c91a 	andseq	ip, r4, sl, lsl r9
    272c:	0010ad00 	andseq	sl, r0, r0, lsl #26
    2730:	0010a900 	andseq	sl, r0, r0, lsl #18
    2734:	6a190000 	bvs	64273c <__bss_end__+0x637be4>
    2738:	2c000017 	stccs	0, cr0, [r0], {23}
    273c:	03000089 	movweq	r0, #137	; 0x89
    2740:	0000892c 	andeq	r8, r0, ip, lsr #18
    2744:	00000008 	andeq	r0, r0, r8
    2748:	e6053701 	str	r3, [r5], -r1, lsl #14
    274c:	1a000013 	bne	27a0 <__code_start__-0x5860>
    2750:	00001777 	andeq	r1, r0, r7, ror r7
    2754:	000010ce 	andeq	r1, r0, lr, asr #1
    2758:	000010cc 	andeq	r1, r0, ip, asr #1
    275c:	89601400 	stmdbhi	r0!, {sl, ip}^
    2760:	17820000 	strne	r0, [r2, r0]
    2764:	141f0000 	ldrne	r0, [pc], #-0	; 276c <__code_start__-0x5894>
    2768:	010f0000 	mrseq	r0, CPSR
    276c:	18030550 	stmdane	r3, {r4, r6, r8, sl}
    2770:	0f00009d 	svceq	0x0000009d
    2774:	03055101 	movweq	r5, #20737	; 0x5101
    2778:	0000a098 	muleq	r0, r8, r0
    277c:	0552010f 	ldrbeq	r0, [r2, #-271]	; 0xfffffef1
    2780:	00a2d403 	adceq	sp, r2, r3, lsl #8
    2784:	53010f00 	movwpl	r0, #7936	; 0x1f00
    2788:	0f2d0802 	svceq	0x002d0802
    278c:	05007d02 	streq	r7, [r0, #-3330]	; 0xfffff2fe
    2790:	00a0fc03 	adceq	pc, r0, r3, lsl #24
    2794:	64120000 	ldrvs	r0, [r2], #-0
    2798:	8e000089 	cdphi	0, 0, cr0, cr0, cr9, {4}
    279c:	14000017 	strne	r0, [r0], #-23	; 0xffffffe9
    27a0:	00008980 	andeq	r8, r0, r0, lsl #19
    27a4:	00001782 	andeq	r1, r0, r2, lsl #15
    27a8:	00001461 	andeq	r1, r0, r1, ror #8
    27ac:	0550010f 	ldrbeq	r0, [r0, #-271]	; 0xfffffef1
    27b0:	009d1803 	addseq	r1, sp, r3, lsl #16
    27b4:	51010f00 	tstpl	r1, r0, lsl #30
    27b8:	a0980305 	addsge	r0, r8, r5, lsl #6
    27bc:	010f0000 	mrseq	r0, CPSR
    27c0:	d4030552 	strle	r0, [r3], #-1362	; 0xfffffaae
    27c4:	0f0000a2 	svceq	0x000000a2
    27c8:	08025301 	stmdaeq	r2, {r0, r8, r9, ip, lr}
    27cc:	7d020f35 	stcvc	15, cr0, [r2, #-212]	; 0xffffff2c
    27d0:	14030500 	strne	r0, [r3], #-1280	; 0xfffffb00
    27d4:	000000a1 	andeq	r0, r0, r1, lsr #1
    27d8:	00898412 	addeq	r8, r9, r2, lsl r4
    27dc:	00178e00 	andseq	r8, r7, r0, lsl #28
    27e0:	042a0000 	strteq	r0, [sl], #-0
    27e4:	0000b415 	andeq	fp, r0, r5, lsl r4
    27e8:	00147d00 	andseq	r7, r4, r0, lsl #26
    27ec:	002c1600 	eoreq	r1, ip, r0, lsl #12
    27f0:	000c0000 	andeq	r0, ip, r0
    27f4:	00146d09 	andseq	r6, r4, r9, lsl #26
    27f8:	05a32700 	streq	r2, [r3, #1792]!	; 0x700
    27fc:	22010000 	andcs	r0, r1, #0
    2800:	149a0314 	ldrne	r0, [sl], #788	; 0x314
    2804:	76280000 	strtvc	r0, [r8], -r0
    2808:	2d220100 	stfcss	f0, [r2, #-0]
    280c:	0000005d 	andeq	r0, r0, sp, asr r0
    2810:	06b52400 	ldrteq	r2, [r5], r0, lsl #8
    2814:	1c010000 	stcne	0, cr0, [r1], {-0}
    2818:	00005d18 	andeq	r5, r0, r8, lsl sp
    281c:	14b80300 	ldrtne	r0, [r8], #768	; 0x300
    2820:	72260000 	eorvc	r0, r6, #0
    2824:	01007465 	tsteq	r0, r5, ror #8
    2828:	002c0e1d 	eoreq	r0, ip, sp, lsl lr
    282c:	24000000 	strcs	r0, [r0], #-0
    2830:	0000079c 	muleq	r0, ip, r7
    2834:	5d011601 	stcpl	6, cr1, [r1, #-4]
    2838:	03000000 	movweq	r0, #0
    283c:	000014d6 	ldrdeq	r1, [r0], -r6
    2840:	74657226 	strbtvc	r7, [r5], #-550	; 0xfffffdda
    2844:	01160100 	tsteq	r6, r0, lsl #2
    2848:	0000005d 	andeq	r0, r0, sp, asr r0
    284c:	05c12700 	strbeq	r2, [r1, #1792]	; 0x700
    2850:	16010000 	strne	r0, [r1], -r0
    2854:	14ee0301 	strbtne	r0, [lr], #769	; 0x301
    2858:	76280000 	strtvc	r0, [r8], -r0
    285c:	01160100 	tsteq	r6, r0, lsl #2
    2860:	0000005d 	andeq	r0, r0, sp, asr r0
    2864:	04ef2400 	strbteq	r2, [pc], #1024	; 286c <__code_start__-0x5794>
    2868:	15010000 	strne	r0, [r1, #-0]
    286c:	00005d01 	andeq	r5, r0, r1, lsl #26
    2870:	150c0300 	strne	r0, [ip, #-768]	; 0xfffffd00
    2874:	72260000 	eorvc	r0, r6, #0
    2878:	01007465 	tsteq	r0, r5, ror #8
    287c:	005d0115 	subseq	r0, sp, r5, lsl r1
    2880:	27000000 	strcs	r0, [r0, -r0]
    2884:	000005b3 			; <UNDEFINED> instruction: 0x000005b3
    2888:	03011501 	movweq	r1, #5377	; 0x1501
    288c:	00001524 	andeq	r1, r0, r4, lsr #10
    2890:	01007628 	tsteq	r0, r8, lsr #12
    2894:	005d0115 	subseq	r0, sp, r5, lsl r1
    2898:	2b000000 	blcs	28a0 <__code_start__-0x5760>
    289c:	000006c5 	andeq	r0, r0, r5, asr #13
    28a0:	2c18b604 	ldccs	6, cr11, [r8], {4}
    28a4:	03000000 	movweq	r0, #0
    28a8:	00061f24 	andeq	r1, r6, r4, lsr #30
    28ac:	18a80400 	stmiane	r8!, {sl}
    28b0:	0000005d 	andeq	r0, r0, sp, asr r0
    28b4:	00154f03 	andseq	r4, r5, r3, lsl #30
    28b8:	65722600 	ldrbvs	r2, [r2, #-1536]!	; 0xfffffa00
    28bc:	a9040074 	stmdbge	r4, {r2, r4, r5, r6}
    28c0:	00005d0e 	andeq	r5, r0, lr, lsl #26
    28c4:	d0240000 	eorle	r0, r4, r0
    28c8:	04000005 	streq	r0, [r0], #-5
    28cc:	005d188e 	subseq	r1, sp, lr, lsl #17
    28d0:	6d030000 	stcvs	0, cr0, [r3, #-0]
    28d4:	26000015 			; <UNDEFINED> instruction: 0x26000015
    28d8:	00746572 	rsbseq	r6, r4, r2, ror r5
    28dc:	5d0e8f04 	stcpl	15, cr8, [lr, #-16]
    28e0:	00000000 	andeq	r0, r0, r0
    28e4:	00056124 	andeq	r6, r5, r4, lsr #2
    28e8:	18830400 	stmne	r3, {sl}
    28ec:	0000002c 	andeq	r0, r0, ip, lsr #32
    28f0:	00159203 	andseq	r9, r5, r3, lsl #4
    28f4:	00722600 	rsbseq	r2, r2, r0, lsl #12
    28f8:	2c0e8404 	cfstrscs	mvf8, [lr], {4}
    28fc:	2c000000 	stccs	0, cr0, [r0], {-0}
    2900:	000000d6 	ldrdeq	r0, [r0], -r6
    2904:	000015a2 	andeq	r1, r0, r2, lsr #11
    2908:	00b41500 	adcseq	r1, r4, r0, lsl #10
    290c:	15a20000 	strne	r0, [r2, #0]!
    2910:	2c160000 	ldccs	0, cr0, [r6], {-0}
    2914:	13000000 	movwne	r0, #0
    2918:	15920900 	ldrne	r0, [r2, #2304]	; 0x900
    291c:	d7240000 	strle	r0, [r4, -r0]!
    2920:	04000007 	streq	r0, [r0], #-7
    2924:	002c187c 	eoreq	r1, ip, ip, ror r8
    2928:	c3030000 	movwgt	r0, #12288	; 0x3000
    292c:	28000015 	stmdacs	r0, {r0, r2, r4}
    2930:	7c040072 	stcvc	0, cr0, [r4], {114}	; 0x72
    2934:	00005d32 	andeq	r5, r0, r2, lsr sp
    2938:	6b2b0000 	blvs	ac2940 <__bss_end__+0xab7de8>
    293c:	04000006 	streq	r0, [r0], #-6
    2940:	002c1874 	eoreq	r1, ip, r4, ror r8
    2944:	24030000 	strcs	r0, [r3], #-0
    2948:	0000054e 	andeq	r0, r0, lr, asr #10
    294c:	5d186d04 	ldcpl	13, cr6, [r8, #-16]
    2950:	03000000 	movweq	r0, #0
    2954:	000015ee 	andeq	r1, r0, lr, ror #11
    2958:	74657226 	strbtvc	r7, [r5], #-550	; 0xfffffdda
    295c:	0e6e0400 	cdpeq	4, 6, cr0, cr14, cr0, {0}
    2960:	0000005d 	andeq	r0, r0, sp, asr r0
    2964:	05d82400 	ldrbeq	r2, [r8, #1024]	; 0x400
    2968:	6a040000 	bvs	102970 <__bss_end__+0xf7e18>
    296c:	00005d01 	andeq	r5, r0, r1, lsl #26
    2970:	160c0300 	strne	r0, [ip], -r0, lsl #6
    2974:	72260000 	eorvc	r0, r6, #0
    2978:	04007465 	streq	r7, [r0], #-1125	; 0xfffffb9b
    297c:	005d016a 	subseq	r0, sp, sl, ror #2
    2980:	24000000 	strcs	r0, [r0], #-0
    2984:	000005cf 	andeq	r0, r0, pc, asr #11
    2988:	5d016904 	vstrpl.16	s12, [r1, #-8]	; <UNPREDICTABLE>
    298c:	03000000 	movweq	r0, #0
    2990:	0000162a 	andeq	r1, r0, sl, lsr #12
    2994:	74657226 	strbtvc	r7, [r5], #-550	; 0xfffffdda
    2998:	01690400 	cmneq	r9, r0, lsl #8
    299c:	0000005d 	andeq	r0, r0, sp, asr r0
    29a0:	02cc2400 	sbceq	r2, ip, #0, 8
    29a4:	39030000 	stmdbcc	r3, {}	; <UNPREDICTABLE>
    29a8:	00005d01 	andeq	r5, r0, r1, lsl #26
    29ac:	16650300 	strbtne	r0, [r5], -r0, lsl #6
    29b0:	78280000 	stmdavc	r8!, {}	; <UNPREDICTABLE>
    29b4:	13390300 	teqne	r9, #0, 6
    29b8:	0000005d 	andeq	r0, r0, sp, asr r0
    29bc:	00626c28 	rsbeq	r6, r2, r8, lsr #24
    29c0:	2c1f3903 			; <UNDEFINED> instruction: 0x2c1f3903
    29c4:	28000000 	stmdacs	r0, {}	; <UNPREDICTABLE>
    29c8:	03006275 	movweq	r6, #629	; 0x275
    29cc:	002c2c39 	eoreq	r2, ip, r9, lsr ip
    29d0:	d62c0000 	strtle	r0, [ip], -r0
    29d4:	75000000 	strvc	r0, [r0, #-0]
    29d8:	00000016 	andeq	r0, r0, r6, lsl r0
    29dc:	0000b415 	andeq	fp, r0, r5, lsl r4
    29e0:	00167500 	andseq	r7, r6, r0, lsl #10
    29e4:	002c1600 	eoreq	r1, ip, r0, lsl #12
    29e8:	00080000 	andeq	r0, r8, r0
    29ec:	00166509 	andseq	r6, r6, r9, lsl #10
    29f0:	023d2400 	eorseq	r2, sp, #0, 8
    29f4:	2f030000 	svccs	0x00030000
    29f8:	00005d18 	andeq	r5, r0, r8, lsl sp
    29fc:	16a10300 	strtne	r0, [r1], r0, lsl #6
    2a00:	a9250000 	stmdbge	r5!, {}	; <UNPREDICTABLE>
    2a04:	03000000 	movweq	r0, #0
    2a08:	002c2b2f 	eoreq	r2, ip, pc, lsr #22
    2a0c:	d62c0000 	strtle	r0, [ip], -r0
    2a10:	b1000000 	mrslt	r0, (UNDEF: 0)
    2a14:	00000016 	andeq	r0, r0, r6, lsl r0
    2a18:	0000b415 	andeq	fp, r0, r5, lsl r4
    2a1c:	0016b100 	andseq	fp, r6, r0, lsl #2
    2a20:	002c1600 	eoreq	r1, ip, r0, lsl #12
    2a24:	00090000 	andeq	r0, r9, r0
    2a28:	0016a109 	andseq	sl, r6, r9, lsl #2
    2a2c:	05572400 	ldrbeq	r2, [r7, #-1024]	; 0xfffffc00
    2a30:	1e030000 	cdpne	0, 0, cr0, cr3, cr0, {0}
    2a34:	00002c01 	andeq	r2, r0, r1, lsl #24
    2a38:	16eb0300 	strbtne	r0, [fp], r0, lsl #6
    2a3c:	78280000 	stmdavc	r8!, {}	; <UNPREDICTABLE>
    2a40:	141e0300 	ldrne	r0, [lr], #-768	; 0xfffffd00
    2a44:	0000005d 	andeq	r0, r0, sp, asr r0
    2a48:	74696228 	strbtvc	r6, [r9], #-552	; 0xfffffdd8
    2a4c:	201e0300 	andscs	r0, lr, r0, lsl #6
    2a50:	0000002c 	andeq	r0, r0, ip, lsr #32
    2a54:	0000d62d 	andeq	sp, r0, sp, lsr #12
    2a58:	0016b100 	andseq	fp, r6, r0, lsl #2
    2a5c:	00055700 	andeq	r5, r5, r0, lsl #14
    2a60:	e8240000 	stmda	r4!, {}	; <UNPREDICTABLE>
    2a64:	03000007 	movweq	r0, #7
    2a68:	005d010e 	subseq	r0, sp, lr, lsl #2
    2a6c:	20030000 	andcs	r0, r3, r0
    2a70:	28000017 	stmdacs	r0, {r0, r1, r2, r4}
    2a74:	0e030078 	mcreq	0, 0, r0, cr3, cr8, {3}
    2a78:	00005d12 	andeq	r5, r0, r2, lsl sp
    2a7c:	69622800 	stmdbvs	r2!, {fp, sp}^
    2a80:	0e030074 	mcreq	0, 0, r0, cr3, cr4, {3}
    2a84:	00002c1e 	andeq	r2, r0, lr, lsl ip
    2a88:	00d62d00 	sbcseq	r2, r6, r0, lsl #26
    2a8c:	17300000 	ldrne	r0, [r0, -r0]!
    2a90:	07e80000 	strbeq	r0, [r8, r0]!
    2a94:	15000000 	strne	r0, [r0, #-0]
    2a98:	000000b4 	strheq	r0, [r0], -r4
    2a9c:	00001730 	andeq	r1, r0, r0, lsr r7
    2aa0:	00002c16 	andeq	r2, r0, r6, lsl ip
    2aa4:	09000700 	stmdbeq	r0, {r8, r9, sl}
    2aa8:	00001720 	andeq	r1, r0, r0, lsr #14
    2aac:	0005e124 	andeq	lr, r5, r4, lsr #2
    2ab0:	01070300 	mrseq	r0, SP_und
    2ab4:	0000005d 	andeq	r0, r0, sp, asr r0
    2ab8:	00176a03 	andseq	r6, r7, r3, lsl #20
    2abc:	00782800 	rsbseq	r2, r8, r0, lsl #16
    2ac0:	5d120703 	ldcpl	7, cr0, [r2, #-12]
    2ac4:	28000000 	stmdacs	r0, {}	; <UNPREDICTABLE>
    2ac8:	00746962 	rsbseq	r6, r4, r2, ror #18
    2acc:	2c1e0703 	ldccs	7, cr0, [lr], {3}
    2ad0:	2d000000 	stccs	0, cr0, [r0, #-0]
    2ad4:	000000d6 	ldrdeq	r0, [r0], -r6
    2ad8:	00001730 	andeq	r1, r0, r0, lsr r7
    2adc:	000005e1 	andeq	r0, r0, r1, ror #11
    2ae0:	02272700 	eoreq	r2, r7, #0, 14
    2ae4:	05020000 	streq	r0, [r2, #-0]
    2ae8:	17820314 	usada8ne	r2, r4, r3, r0
    2aec:	72260000 	eorvc	r0, r6, #0
    2af0:	0e060200 	cdpeq	2, 0, cr0, cr6, cr0, {0}
    2af4:	0000002c 	andeq	r0, r0, ip, lsr #32
    2af8:	08252e00 	stmdaeq	r5!, {r9, sl, fp, sp}
    2afc:	08250000 	stmdaeq	r5!, {}	; <UNPREDICTABLE>
    2b00:	28050000 	stmdacs	r5, {}	; <UNPREDICTABLE>
    2b04:	00f92e06 	rscseq	r2, r9, r6, lsl #28
    2b08:	00f90000 	rscseq	r0, r9, r0
    2b0c:	67050000 	strvs	r0, [r5, -r0]
    2b10:	017c0006 	cmneq	ip, r6
    2b14:	00040000 	andeq	r0, r4, r0
    2b18:	00000a13 	andeq	r0, r0, r3, lsl sl
    2b1c:	01220104 			; <UNDEFINED> instruction: 0x01220104
    2b20:	660c0000 	strvs	r0, [ip], -r0
    2b24:	2c000008 	stccs	0, cr0, [r0], {8}
    2b28:	ec000008 	stc	0, cr0, [r0], {8}
    2b2c:	5800008d 	stmdapl	r0, {r0, r2, r3, r7}
    2b30:	cf000000 	svcgt	0x00000000
    2b34:	02000011 	andeq	r0, r0, #17
    2b38:	00000852 	andeq	r0, r0, r2, asr r8
    2b3c:	311b2802 	tstcc	fp, r2, lsl #16
    2b40:	03000000 	movweq	r0, #0
    2b44:	00000876 	andeq	r0, r0, r6, ror r8
    2b48:	48000304 	stmdami	r0, {r2, r8, r9}
    2b4c:	04000000 	streq	r0, [r0], #-0
    2b50:	00000861 	andeq	r0, r0, r1, ror #16
    2b54:	00000048 	andeq	r0, r0, r8, asr #32
    2b58:	04050000 	streq	r0, [r5], #-0
    2b5c:	00087802 	andeq	r7, r8, r2, lsl #16
    2b60:	18630200 	stmdane	r3!, {r9}^
    2b64:	00000025 	andeq	r0, r0, r5, lsr #32
    2b68:	69050406 	stmdbvs	r5, {r1, r2, sl}
    2b6c:	0700746e 	streq	r7, [r0, -lr, ror #8]
    2b70:	01bf0704 			; <UNDEFINED> instruction: 0x01bf0704
    2b74:	01070000 	mrseq	r0, (UNDEF: 7)
    2b78:	00011606 	andeq	r1, r1, r6, lsl #12
    2b7c:	05020700 	streq	r0, [r2, #-1792]	; 0xfffff900
    2b80:	0000003d 	andeq	r0, r0, sp, lsr r0
    2b84:	c8050407 	stmdagt	r5, {r0, r1, r2, sl}
    2b88:	07000000 	streq	r0, [r0, -r0]
    2b8c:	00c30508 	sbceq	r0, r3, r8, lsl #10
    2b90:	01070000 	mrseq	r0, (UNDEF: 7)
    2b94:	00011408 	andeq	r1, r1, r8, lsl #8
    2b98:	07020700 	streq	r0, [r2, -r0, lsl #14]
    2b9c:	000001f6 	strdeq	r0, [r0], -r6
    2ba0:	ba070407 	blt	1c3bc4 <__bss_end__+0x1b906c>
    2ba4:	07000001 	streq	r0, [r0, -r1]
    2ba8:	01b50708 			; <UNDEFINED> instruction: 0x01b50708
    2bac:	56080000 	strpl	r0, [r8], -r0
    2bb0:	ab000000 	blge	2bb8 <__code_start__-0x5448>
    2bb4:	09000000 	stmdbeq	r0, {}	; <UNPREDICTABLE>
    2bb8:	000000ab 	andeq	r0, r0, fp, lsr #1
    2bbc:	b8040a00 	stmdalt	r4, {r9, fp}
    2bc0:	07000000 	streq	r0, [r0, -r0]
    2bc4:	011d0801 	tsteq	sp, r1, lsl #16
    2bc8:	b10b0000 	mrslt	r0, (UNDEF: 11)
    2bcc:	0c000000 	stceq	0, cr0, [r0], {-0}
    2bd0:	000008c0 	andeq	r0, r0, r0, asr #17
    2bd4:	c90e2104 	stmdbgt	lr, {r2, r8, sp}
    2bd8:	0a000000 	beq	2be0 <__code_start__-0x5420>
    2bdc:	00009c04 	andeq	r9, r0, r4, lsl #24
    2be0:	08250d00 	stmdaeq	r5!, {r8, sl, fp}
    2be4:	06010000 	streq	r0, [r1], -r0
    2be8:	00005605 	andeq	r5, r0, r5, lsl #12
    2bec:	008dec00 	addeq	lr, sp, r0, lsl #24
    2bf0:	00005800 	andeq	r5, r0, r0, lsl #16
    2bf4:	629c0100 	addsvs	r0, ip, #0, 2
    2bf8:	0e000001 	cdpeq	0, 0, cr0, cr0, cr1, {0}
    2bfc:	00746d66 	rsbseq	r6, r4, r6, ror #26
    2c00:	ab180601 	blge	60440c <__bss_end__+0x5f98b4>
    2c04:	02000000 	andeq	r0, r0, #0
    2c08:	100f7091 	mulne	pc, r1, r0	; <UNPREDICTABLE>
    2c0c:	00667562 	rsbeq	r7, r6, r2, ror #10
    2c10:	62110801 	andsvs	r0, r1, #65536	; 0x10000
    2c14:	05000001 	streq	r0, [r0, #-1]
    2c18:	00a75803 	adceq	r5, r7, r3, lsl #16
    2c1c:	081d1100 	ldmdaeq	sp, {r8, ip}
    2c20:	09010000 	stmdbeq	r1, {}	; <UNPREDICTABLE>
    2c24:	00004a0d 	andeq	r4, r0, sp, lsl #20
    2c28:	5c910200 	lfmpl	f0, 4, [r1], {0}
    2c2c:	007a7312 	rsbseq	r7, sl, r2, lsl r3
    2c30:	560d0c01 	strpl	r0, [sp], -r1, lsl #24
    2c34:	e8000000 	stmda	r0, {}	; <UNPREDICTABLE>
    2c38:	e2000010 	and	r0, r0, #16
    2c3c:	13000010 	movwne	r0, #16
    2c40:	00008e14 	andeq	r8, r0, r4, lsl lr
    2c44:	00000173 	andeq	r0, r0, r3, ror r1
    2c48:	00000155 	andeq	r0, r0, r5, asr r1
    2c4c:	02500114 	subseq	r0, r0, #20, 2
    2c50:	01140075 	tsteq	r4, r5, ror r0
    2c54:	000a0351 	andeq	r0, sl, r1, asr r3
    2c58:	52011404 	andpl	r1, r1, #4, 8	; 0x4000000
    2c5c:	06489103 	strbeq	r9, [r8], -r3, lsl #2
    2c60:	02530114 	subseq	r0, r3, #20, 2
    2c64:	15004c91 	strne	r4, [r0, #-3217]	; 0xfffff36f
    2c68:	00008e28 	andeq	r8, r0, r8, lsr #28
    2c6c:	02500114 	subseq	r0, r0, #20, 2
    2c70:	00000075 	andeq	r0, r0, r5, ror r0
    2c74:	0000b116 	andeq	fp, r0, r6, lsl r1
    2c78:	00017300 	andeq	r7, r1, r0, lsl #6
    2c7c:	005d1700 	subseq	r1, sp, r0, lsl #14
    2c80:	03ff0000 	mvnseq	r0, #0
    2c84:	08221800 	stmdaeq	r2!, {fp, ip}
    2c88:	08220000 	stmdaeq	r2!, {}	; <UNPREDICTABLE>
    2c8c:	02050000 	andeq	r0, r5, #0
    2c90:	00c30005 	sbceq	r0, r3, r5
    2c94:	00040000 	andeq	r0, r4, r0
    2c98:	00000b55 	andeq	r0, r0, r5, asr fp
    2c9c:	01220104 			; <UNDEFINED> instruction: 0x01220104
    2ca0:	870c0000 	strhi	r0, [ip, -r0]
    2ca4:	2c000008 	stccs	0, cr0, [r0], {8}
    2ca8:	44000008 	strmi	r0, [r0], #-8
    2cac:	2000008e 	andcs	r0, r0, lr, lsl #1
    2cb0:	db000000 	blle	2cb8 <__code_start__-0x5348>
    2cb4:	02000012 	andeq	r0, r0, #18
    2cb8:	6e690504 	cdpvs	5, 6, cr0, cr9, cr4, {0}
    2cbc:	80030074 	andhi	r0, r3, r4, ror r0
    2cc0:	02000008 	andeq	r0, r0, #8
    2cc4:	003817d1 	ldrsbteq	r1, [r8], -r1
    2cc8:	04040000 	streq	r0, [r4], #-0
    2ccc:	0001bf07 	andeq	fp, r1, r7, lsl #30
    2cd0:	06010400 	streq	r0, [r1], -r0, lsl #8
    2cd4:	00000116 	andeq	r0, r0, r6, lsl r1
    2cd8:	3d050204 	sfmcc	f0, 4, [r5, #-16]
    2cdc:	04000000 	streq	r0, [r0], #-0
    2ce0:	00c80504 	sbceq	r0, r8, r4, lsl #10
    2ce4:	08040000 	stmdaeq	r4, {}	; <UNPREDICTABLE>
    2ce8:	0000c305 	andeq	ip, r0, r5, lsl #6
    2cec:	08010400 	stmdaeq	r1, {sl}
    2cf0:	00000114 	andeq	r0, r0, r4, lsl r1
    2cf4:	f6070204 			; <UNDEFINED> instruction: 0xf6070204
    2cf8:	04000001 	streq	r0, [r0], #-1
    2cfc:	01ba0704 			; <UNDEFINED> instruction: 0x01ba0704
    2d00:	08040000 	stmdaeq	r4, {}	; <UNPREDICTABLE>
    2d04:	0001b507 	andeq	fp, r1, r7, lsl #10
    2d08:	84040500 	strhi	r0, [r4], #-1280	; 0xfffffb00
    2d0c:	04000000 	streq	r0, [r0], #-0
    2d10:	011d0801 	tsteq	sp, r1, lsl #16
    2d14:	7d060000 	stcvc	0, cr0, [r6, #-0]
    2d18:	07000000 	streq	r0, [r0, -r0]
    2d1c:	000002e5 	andeq	r0, r0, r5, ror #5
    2d20:	2c080301 	stccs	3, cr0, [r8], {1}
    2d24:	44000000 	strmi	r0, [r0], #-0
    2d28:	2000008e 	andcs	r0, r0, lr, lsl #1
    2d2c:	01000000 	mrseq	r0, (UNDEF: 0)
    2d30:	0070089c 			; <UNDEFINED> instruction: 0x0070089c
    2d34:	771b0301 	ldrvc	r0, [fp, -r1, lsl #6]
    2d38:	15000000 	strne	r0, [r0, #-0]
    2d3c:	11000011 	tstne	r0, r1, lsl r0
    2d40:	09000011 	stmdbeq	r0, {r0, r4}
    2d44:	00746572 	rsbseq	r6, r4, r2, ror r5
    2d48:	2c0c0401 	cfstrscs	mvf0, [ip], {1}
    2d4c:	37000000 	strcc	r0, [r0, -r0]
    2d50:	33000011 	movwcc	r0, #17
    2d54:	00000011 	andeq	r0, r0, r1, lsl r0
    2d58:	0000cd00 	andeq	ip, r0, r0, lsl #26
    2d5c:	e2000400 	and	r0, r0, #0, 8
    2d60:	0400000b 	streq	r0, [r0], #-11
    2d64:	00012201 	andeq	r2, r1, r1, lsl #4
    2d68:	08970c00 	ldmeq	r7, {sl, fp}
    2d6c:	082c0000 	stmdaeq	ip!, {}	; <UNPREDICTABLE>
    2d70:	8e640000 	cdphi	0, 6, cr0, cr4, cr0, {0}
    2d74:	00200000 	eoreq	r0, r0, r0
    2d78:	13a80000 			; <UNDEFINED> instruction: 0x13a80000
    2d7c:	04020000 	streq	r0, [r2], #-0
    2d80:	746e6905 	strbtvc	r6, [lr], #-2309	; 0xfffff6fb
    2d84:	07040300 	streq	r0, [r4, -r0, lsl #6]
    2d88:	000001bf 			; <UNDEFINED> instruction: 0x000001bf
    2d8c:	16060103 	strne	r0, [r6], -r3, lsl #2
    2d90:	03000001 	movweq	r0, #1
    2d94:	003d0502 	eorseq	r0, sp, r2, lsl #10
    2d98:	04030000 	streq	r0, [r3], #-0
    2d9c:	0000c805 	andeq	ip, r0, r5, lsl #16
    2da0:	05080300 	streq	r0, [r8, #-768]	; 0xfffffd00
    2da4:	000000c3 	andeq	r0, r0, r3, asr #1
    2da8:	14080103 	strne	r0, [r8], #-259	; 0xfffffefd
    2dac:	03000001 	movweq	r0, #1
    2db0:	01f60702 	mvnseq	r0, r2, lsl #14
    2db4:	04030000 	streq	r0, [r3], #-0
    2db8:	0001ba07 	andeq	fp, r1, r7, lsl #20
    2dbc:	07080300 	streq	r0, [r8, -r0, lsl #6]
    2dc0:	000001b5 			; <UNDEFINED> instruction: 0x000001b5
    2dc4:	00780404 	rsbseq	r0, r8, r4, lsl #8
    2dc8:	01030000 	mrseq	r0, (UNDEF: 3)
    2dcc:	00011d08 	andeq	r1, r1, r8, lsl #26
    2dd0:	00710500 	rsbseq	r0, r1, r0, lsl #10
    2dd4:	ec060000 	stc	0, cr0, [r6], {-0}
    2dd8:	01000002 	tsteq	r0, r2
    2ddc:	00ca0703 	sbceq	r0, sl, r3, lsl #14
    2de0:	8e640000 	cdphi	0, 6, cr0, cr4, cr0, {0}
    2de4:	00200000 	eoreq	r0, r0, r0
    2de8:	9c010000 	stcls	0, cr0, [r1], {-0}
    2dec:	000000ca 	andeq	r0, r0, sl, asr #1
    2df0:	00317307 	eorseq	r7, r1, r7, lsl #6
    2df4:	ca150301 	bgt	543a00 <__bss_end__+0x538ea8>
    2df8:	01000000 	mrseq	r0, (UNDEF: 0)
    2dfc:	32730850 	rsbscc	r0, r3, #80, 16	; 0x500000
    2e00:	26030100 	strcs	r0, [r3], -r0, lsl #2
    2e04:	0000006b 	andeq	r0, r0, fp, rrx
    2e08:	0000115c 	andeq	r1, r0, ip, asr r1
    2e0c:	00001156 	andeq	r1, r0, r6, asr r1
    2e10:	01007309 	tsteq	r0, r9, lsl #6
    2e14:	00ca1404 	sbceq	r1, sl, r4, lsl #8
    2e18:	118d0000 	orrne	r0, sp, r0
    2e1c:	11870000 	orrne	r0, r7, r0
    2e20:	04000000 	streq	r0, [r0], #-0
    2e24:	00007104 	andeq	r7, r0, r4, lsl #2
    2e28:	01b20000 			; <UNDEFINED> instruction: 0x01b20000
    2e2c:	00040000 	andeq	r0, r4, r0
    2e30:	00000c73 	andeq	r0, r0, r3, ror ip
    2e34:	01220104 			; <UNDEFINED> instruction: 0x01220104
    2e38:	a70c0000 	strge	r0, [ip, -r0]
    2e3c:	2c000008 	stccs	0, cr0, [r0], {8}
    2e40:	84000008 	strhi	r0, [r0], #-8
    2e44:	6000008e 	andvs	r0, r0, lr, lsl #1
    2e48:	14000000 	strne	r0, [r0], #-0
    2e4c:	02000014 	andeq	r0, r0, #20
    2e50:	6e690504 	cdpvs	5, 6, cr0, cr9, cr4, {0}
    2e54:	80030074 	andhi	r0, r3, r4, ror r0
    2e58:	02000008 	andeq	r0, r0, #8
    2e5c:	003817d1 	ldrsbteq	r1, [r8], -r1
    2e60:	04040000 	streq	r0, [r4], #-0
    2e64:	0001bf07 	andeq	fp, r1, r7, lsl #30
    2e68:	00380500 	eorseq	r0, r8, r0, lsl #10
    2e6c:	01040000 	mrseq	r0, (UNDEF: 4)
    2e70:	00011606 	andeq	r1, r1, r6, lsl #12
    2e74:	05020400 	streq	r0, [r2, #-1024]	; 0xfffffc00
    2e78:	0000003d 	andeq	r0, r0, sp, lsr r0
    2e7c:	c8050404 	stmdagt	r5, {r2, sl}
    2e80:	04000000 	streq	r0, [r0], #-0
    2e84:	00c30508 	sbceq	r0, r3, r8, lsl #10
    2e88:	01040000 	mrseq	r0, (UNDEF: 4)
    2e8c:	00011408 	andeq	r1, r1, r8, lsl #8
    2e90:	00600500 	rsbeq	r0, r0, r0, lsl #10
    2e94:	02040000 	andeq	r0, r4, #0
    2e98:	0001f607 	andeq	pc, r1, r7, lsl #12
    2e9c:	07040400 	streq	r0, [r4, -r0, lsl #8]
    2ea0:	000001ba 			; <UNDEFINED> instruction: 0x000001ba
    2ea4:	b5070804 	strlt	r0, [r7, #-2052]	; 0xfffff7fc
    2ea8:	04000001 	streq	r0, [r0], #-1
    2eac:	011d0801 	tsteq	sp, r1, lsl #16
    2eb0:	81050000 	mrshi	r0, (UNDEF: 5)
    2eb4:	06000000 	streq	r0, [r0], -r0
    2eb8:	0000031d 	andeq	r0, r0, sp, lsl r3
    2ebc:	7f070601 	svcvc	0x00070601
    2ec0:	84000001 	strhi	r0, [r0], #-1
    2ec4:	6000008e 	andvs	r0, r0, lr, lsl #1
    2ec8:	01000000 	mrseq	r0, (UNDEF: 0)
    2ecc:	00017f9c 	muleq	r1, ip, pc	; <UNPREDICTABLE>
    2ed0:	73640700 	cmnvc	r4, #0, 14
    2ed4:	06010074 			; <UNDEFINED> instruction: 0x06010074
    2ed8:	00017f14 	andeq	r7, r1, r4, lsl pc
    2edc:	07500100 	ldrbeq	r0, [r0, -r0, lsl #2]
    2ee0:	00637273 	rsbeq	r7, r3, r3, ror r2
    2ee4:	81250601 			; <UNDEFINED> instruction: 0x81250601
    2ee8:	01000001 	tsteq	r0, r1
    2eec:	02d70851 	sbcseq	r0, r7, #5308416	; 0x510000
    2ef0:	06010000 	streq	r0, [r1], -r0
    2ef4:	00002c31 	andeq	r2, r0, r1, lsr ip
    2ef8:	0011be00 	andseq	fp, r1, r0, lsl #28
    2efc:	0011b800 	andseq	fp, r1, r0, lsl #16
    2f00:	00d60900 	sbcseq	r0, r6, r0, lsl #18
    2f04:	01980000 	orrseq	r0, r8, r0
    2f08:	031d0000 	tsteq	sp, #0
    2f0c:	9c0a0000 	stcls	0, cr0, [sl], {-0}
    2f10:	2000008e 	andcs	r0, r0, lr, lsl #1
    2f14:	44000000 	strmi	r0, [r0], #-0
    2f18:	0b000001 	bleq	2f24 <__code_start__-0x50dc>
    2f1c:	0d01006e 	stceq	0, cr0, [r1, #-440]	; 0xfffffe48
    2f20:	00003812 	andeq	r3, r0, r2, lsl r8
    2f24:	0011ec00 	andseq	lr, r1, r0, lsl #24
    2f28:	0011ea00 	andseq	lr, r1, r0, lsl #20
    2f2c:	00640b00 	rsbeq	r0, r4, r0, lsl #22
    2f30:	9d130e01 	ldcls	14, cr0, [r3, #-4]
    2f34:	01000001 	tsteq	r0, r1
    2f38:	ff000012 			; <UNDEFINED> instruction: 0xff000012
    2f3c:	0b000011 	bleq	2f88 <__code_start__-0x5078>
    2f40:	0f010073 	svceq	0x00010073
    2f44:	0001a319 	andeq	sl, r1, r9, lsl r3
    2f48:	00121600 	andseq	r1, r2, r0, lsl #12
    2f4c:	00121400 	andseq	r1, r2, r0, lsl #8
    2f50:	8ea00c00 	cdphi	12, 10, cr0, cr0, cr0, {0}
    2f54:	001c0000 	andseq	r0, ip, r0
    2f58:	690b0000 	stmdbvs	fp, {}	; <UNPREDICTABLE>
    2f5c:	16110100 	ldrne	r0, [r1], -r0, lsl #2
    2f60:	00000038 	andeq	r0, r0, r8, lsr r0
    2f64:	0000122d 	andeq	r1, r0, sp, lsr #4
    2f68:	00001229 	andeq	r1, r0, r9, lsr #4
    2f6c:	bc0c0000 	stclt	0, cr0, [ip], {-0}
    2f70:	1800008e 	stmdane	r0, {r1, r2, r3, r7}
    2f74:	0d000000 	stceq	0, cr0, [r0, #-0]
    2f78:	14010064 	strne	r0, [r1], #-100	; 0xffffff9c
    2f7c:	0001a918 	andeq	sl, r1, r8, lsl r9
    2f80:	00730d00 	rsbseq	r0, r3, r0, lsl #26
    2f84:	af1e1501 	svcge	0x001e1501
    2f88:	0c000001 	stceq	0, cr0, [r0], {1}
    2f8c:	00008ebc 			; <UNDEFINED> instruction: 0x00008ebc
    2f90:	00000018 	andeq	r0, r0, r8, lsl r0
    2f94:	0100690b 	tsteq	r0, fp, lsl #18
    2f98:	00381616 	eorseq	r1, r8, r6, lsl r6
    2f9c:	124e0000 	subne	r0, lr, #0
    2fa0:	124c0000 	subne	r0, ip, #0
    2fa4:	00000000 	andeq	r0, r0, r0
    2fa8:	0f040e00 	svceq	0x00040e00
    2fac:	00018704 	andeq	r8, r1, r4, lsl #14
    2fb0:	88111000 	ldmdahi	r1, {ip}
    2fb4:	98000000 	stmdals	r0, {}	; <UNPREDICTABLE>
    2fb8:	12000001 	andne	r0, r0, #1
    2fbc:	00000038 	andeq	r0, r0, r8, lsr r0
    2fc0:	88050006 	stmdahi	r5, {r1, r2}
    2fc4:	0f000001 	svceq	0x00000001
    2fc8:	00003804 	andeq	r3, r0, r4, lsl #16
    2fcc:	3f040f00 	svccc	0x00040f00
    2fd0:	0f000000 	svceq	0x00000000
    2fd4:	00006004 	andeq	r6, r0, r4
    2fd8:	67040f00 	strvs	r0, [r4, -r0, lsl #30]
    2fdc:	00000000 	andeq	r0, r0, r0
    2fe0:	000000f3 	strdeq	r0, [r0], -r3
    2fe4:	0d610004 	stcleq	0, cr0, [r1, #-16]!
    2fe8:	01040000 	mrseq	r0, (UNDEF: 4)
    2fec:	00000122 	andeq	r0, r0, r2, lsr #2
    2ff0:	0008c50c 	andeq	ip, r8, ip, lsl #10
    2ff4:	00082c00 	andeq	r2, r8, r0, lsl #24
    2ff8:	008ee400 	addeq	lr, lr, r0, lsl #8
    2ffc:	00003400 	andeq	r3, r0, r0, lsl #8
    3000:	00158000 	andseq	r8, r5, r0
    3004:	05040200 	streq	r0, [r4, #-512]	; 0xfffffe00
    3008:	00746e69 	rsbseq	r6, r4, r9, ror #28
    300c:	bf070403 	svclt	0x00070403
    3010:	03000001 	movweq	r0, #1
    3014:	01160601 	tsteq	r6, r1, lsl #12
    3018:	02030000 	andeq	r0, r3, #0
    301c:	00003d05 	andeq	r3, r0, r5, lsl #26
    3020:	05040300 	streq	r0, [r4, #-768]	; 0xfffffd00
    3024:	000000c8 	andeq	r0, r0, r8, asr #1
    3028:	c3050803 	movwgt	r0, #22531	; 0x5803
    302c:	03000000 	movweq	r0, #0
    3030:	01140801 	tsteq	r4, r1, lsl #16
    3034:	02030000 	andeq	r0, r3, #0
    3038:	0001f607 	andeq	pc, r1, r7, lsl #12
    303c:	07040300 	streq	r0, [r4, -r0, lsl #6]
    3040:	000001ba 			; <UNDEFINED> instruction: 0x000001ba
    3044:	b5070803 	strlt	r0, [r7, #-2051]	; 0xfffff7fd
    3048:	04000001 	streq	r0, [r0], #-1
    304c:	00000025 	andeq	r0, r0, r5, lsr #32
    3050:	0000007a 	andeq	r0, r0, sl, ror r0
    3054:	00002505 	andeq	r2, r0, r5, lsl #10
    3058:	fd060000 	stc2	0, cr0, [r6, #-0]
    305c:	02000004 	andeq	r0, r0, #4
    3060:	00860e1c 	addeq	r0, r6, ip, lsl lr
    3064:	04070000 	streq	r0, [r7], #-0
    3068:	0000006b 	andeq	r0, r0, fp, rrx
    306c:	00002504 	andeq	r2, r0, r4, lsl #10
    3070:	00009b00 	andeq	r9, r0, r0, lsl #22
    3074:	009b0500 	addseq	r0, fp, r0, lsl #10
    3078:	07000000 	streq	r0, [r0, -r0]
    307c:	0000a804 	andeq	sl, r0, r4, lsl #16
    3080:	08010300 	stmdaeq	r1, {r8, r9}
    3084:	0000011d 	andeq	r0, r0, sp, lsl r1
    3088:	0000a108 	andeq	sl, r0, r8, lsl #2
    308c:	08c00600 	stmiaeq	r0, {r9, sl}^
    3090:	21020000 	mrscs	r0, (UNDEF: 2)
    3094:	0000b90e 	andeq	fp, r0, lr, lsl #18
    3098:	8c040700 	stchi	7, cr0, [r4], {-0}
    309c:	09000000 	stmdbeq	r0, {}	; <UNPREDICTABLE>
    30a0:	000000ad 	andeq	r0, r0, sp, lsr #1
    30a4:	05070c01 	streq	r0, [r7, #-3073]	; 0xfffff3ff
    30a8:	00a72403 	adceq	r2, r7, r3, lsl #8
    30ac:	08b70a00 	ldmeq	r7!, {r9, fp}
    30b0:	04010000 	streq	r0, [r1], #-0
    30b4:	00002505 	andeq	r2, r0, r5, lsl #10
    30b8:	008ee400 	addeq	lr, lr, r0, lsl #8
    30bc:	00003400 	andeq	r3, r0, r0, lsl #8
    30c0:	0b9c0100 	bleq	fe7034c8 <__bss_end__+0xfe6f8970>
    30c4:	04010070 	streq	r0, [r1], #-112	; 0xffffff90
    30c8:	00009b1f 	andeq	r9, r0, pc, lsl fp
    30cc:	00126500 	andseq	r6, r2, r0, lsl #10
    30d0:	00126100 	andseq	r6, r2, r0, lsl #2
    30d4:	1d000000 	stcne	0, cr0, [r0, #-0]
    30d8:	04000001 	streq	r0, [r0], #-1
    30dc:	000dff00 	andeq	pc, sp, r0, lsl #30
    30e0:	22010400 	andcs	r0, r1, #0, 8
    30e4:	0c000001 	stceq	0, cr0, [r0], {1}
    30e8:	000008f1 	strdeq	r0, [r0], -r1
    30ec:	0000082c 	andeq	r0, r0, ip, lsr #16
    30f0:	00008f18 	andeq	r8, r0, r8, lsl pc
    30f4:	0000003c 	andeq	r0, r0, ip, lsr r0
    30f8:	00001627 	andeq	r1, r0, r7, lsr #12
    30fc:	69050402 	stmdbvs	r5, {r1, sl}
    3100:	0300746e 	movweq	r7, #1134	; 0x46e
    3104:	01bf0704 			; <UNDEFINED> instruction: 0x01bf0704
    3108:	01030000 	mrseq	r0, (UNDEF: 3)
    310c:	00011606 	andeq	r1, r1, r6, lsl #12
    3110:	05020300 	streq	r0, [r2, #-768]	; 0xfffffd00
    3114:	0000003d 	andeq	r0, r0, sp, lsr r0
    3118:	c8050403 	stmdagt	r5, {r0, r1, sl}
    311c:	03000000 	movweq	r0, #0
    3120:	00c30508 	sbceq	r0, r3, r8, lsl #10
    3124:	01030000 	mrseq	r0, (UNDEF: 3)
    3128:	00011408 	andeq	r1, r1, r8, lsl #8
    312c:	07020300 	streq	r0, [r2, -r0, lsl #6]
    3130:	000001f6 	strdeq	r0, [r0], -r6
    3134:	ba070403 	blt	1c4148 <__bss_end__+0x1b95f0>
    3138:	03000001 	movweq	r0, #1
    313c:	01b50708 			; <UNDEFINED> instruction: 0x01b50708
    3140:	25040000 	strcs	r0, [r4, #-0]
    3144:	7a000000 	bvc	314c <__code_start__-0x4eb4>
    3148:	05000000 	streq	r0, [r0, #-0]
    314c:	00000025 	andeq	r0, r0, r5, lsr #32
    3150:	04fd0600 	ldrbteq	r0, [sp], #1536	; 0x600
    3154:	1c020000 	stcne	0, cr0, [r2], {-0}
    3158:	0000860e 	andeq	r8, r0, lr, lsl #12
    315c:	6b040700 	blvs	104d64 <__bss_end__+0xfa20c>
    3160:	03000000 	movweq	r0, #0
    3164:	011d0801 	tsteq	sp, r1, lsl #16
    3168:	7a080000 	bvc	203170 <__bss_end__+0x1f8618>
    316c:	01000000 	mrseq	r0, (UNDEF: 0)
    3170:	03050706 	movweq	r0, #22278	; 0x5706
    3174:	0000a728 	andeq	sl, r0, r8, lsr #14
    3178:	0008e409 	andeq	lr, r8, r9, lsl #8
    317c:	060b0100 	streq	r0, [fp], -r0, lsl #2
    3180:	00008f44 	andeq	r8, r0, r4, asr #30
    3184:	00000010 	andeq	r0, r0, r0, lsl r0
    3188:	00c59c01 	sbceq	r9, r5, r1, lsl #24
    318c:	660a0000 	strvs	r0, [sl], -r0
    3190:	0b010070 	bleq	43358 <__bss_end__+0x38800>
    3194:	00008619 	andeq	r8, r0, r9, lsl r6
    3198:	00500100 	subseq	r0, r0, r0, lsl #2
    319c:	00090c0b 	andeq	r0, r9, fp, lsl #24
    31a0:	06080100 	streq	r0, [r8], -r0, lsl #2
    31a4:	00008f2c 	andeq	r8, r0, ip, lsr #30
    31a8:	00000018 	andeq	r0, r0, r8, lsl r0
    31ac:	d30c9c01 	movwle	r9, #52225	; 0xcc01
    31b0:	01000008 	tsteq	r0, r8
    31b4:	00250c03 	eoreq	r0, r5, r3, lsl #24
    31b8:	8f180000 	svchi	0x00180000
    31bc:	00140000 	andseq	r0, r4, r0
    31c0:	9c010000 	stcls	0, cr0, [r1], {-0}
    31c4:	00000114 	andeq	r0, r0, r4, lsl r1
    31c8:	0100630d 	tsteq	r0, sp, lsl #6
    31cc:	00252103 	eoreq	r2, r5, r3, lsl #2
    31d0:	12870000 	addne	r0, r7, #0
    31d4:	12830000 	addne	r0, r3, #0
    31d8:	240e0000 	strcs	r0, [lr], #-0
    31dc:	1400008f 	strne	r0, [r0], #-143	; 0xffffff71
    31e0:	0f000001 	svceq	0x00000001
    31e4:	74025001 	strvc	r5, [r2], #-1
    31e8:	10000000 	andne	r0, r0, r0
    31ec:	00000902 	andeq	r0, r0, r2, lsl #18
    31f0:	00000902 	andeq	r0, r0, r2, lsl #18
    31f4:	00064202 	andeq	r4, r6, r2, lsl #4
    31f8:	000000ed 	andeq	r0, r0, sp, ror #1
    31fc:	0f070004 	svceq	0x00070004
    3200:	01040000 	mrseq	r0, (UNDEF: 4)
    3204:	00000122 	andeq	r0, r0, r2, lsr #2
    3208:	00091b0c 	andeq	r1, r9, ip, lsl #22
    320c:	00082c00 	andeq	r2, r8, r0, lsl #24
    3210:	008f5400 	addeq	r5, pc, r0, lsl #8
    3214:	00001c00 	andeq	r1, r0, r0, lsl #24
    3218:	0016c800 	andseq	ip, r6, r0, lsl #16
    321c:	05040200 	streq	r0, [r4, #-512]	; 0xfffffe00
    3220:	00746e69 	rsbseq	r6, r4, r9, ror #28
    3224:	00088003 	andeq	r8, r8, r3
    3228:	17d10200 	ldrbne	r0, [r1, r0, lsl #4]
    322c:	00000038 	andeq	r0, r0, r8, lsr r0
    3230:	bf070404 	svclt	0x00070404
    3234:	04000001 	streq	r0, [r0], #-1
    3238:	01160601 	tsteq	r6, r1, lsl #12
    323c:	02040000 	andeq	r0, r4, #0
    3240:	00003d05 	andeq	r3, r0, r5, lsl #26
    3244:	05040400 	streq	r0, [r4, #-1024]	; 0xfffffc00
    3248:	000000c8 	andeq	r0, r0, r8, asr #1
    324c:	c3050804 	movwgt	r0, #22532	; 0x5804
    3250:	04000000 	streq	r0, [r0], #-0
    3254:	01140801 	tsteq	r4, r1, lsl #16
    3258:	02040000 	andeq	r0, r4, #0
    325c:	0001f607 	andeq	pc, r1, r7, lsl #12
    3260:	07040400 	streq	r0, [r4, -r0, lsl #8]
    3264:	000001ba 			; <UNDEFINED> instruction: 0x000001ba
    3268:	b5070804 	strlt	r0, [r7, #-2052]	; 0xfffff7fc
    326c:	04000001 	streq	r0, [r0], #-1
    3270:	011d0801 	tsteq	sp, r1, lsl #16
    3274:	39050000 	stmdbcc	r5, {}	; <UNPREDICTABLE>
    3278:	01000004 	tsteq	r0, r4
    327c:	00e80704 	rsceq	r0, r8, r4, lsl #14
    3280:	8f540000 	svchi	0x00540000
    3284:	001c0000 	andseq	r0, ip, r0
    3288:	9c010000 	stcls	0, cr0, [r1], {-0}
    328c:	000000e8 	andeq	r0, r0, r8, ror #1
    3290:	00705f06 	rsbseq	r5, r0, r6, lsl #30
    3294:	e8140401 	ldmda	r4, {r0, sl}
    3298:	01000000 	mrseq	r0, (UNDEF: 0)
    329c:	00630650 	rsbeq	r0, r3, r0, asr r6
    32a0:	251c0401 	ldrcs	r0, [ip, #-1025]	; 0xfffffbff
    32a4:	01000000 	mrseq	r0, (UNDEF: 0)
    32a8:	006e0751 	rsbeq	r0, lr, r1, asr r7
    32ac:	2c260401 	cfstrscs	mvf0, [r6], #-4
    32b0:	a9000000 	stmdbge	r0, {}	; <UNPREDICTABLE>
    32b4:	a5000012 	strge	r0, [r0, #-18]	; 0xffffffee
    32b8:	08000012 	stmdaeq	r0, {r1, r4}
    32bc:	05010070 	streq	r0, [r1, #-112]	; 0xffffff90
    32c0:	0000ea0b 	andeq	lr, r0, fp, lsl #20
    32c4:	0012d200 	andseq	sp, r2, r0, lsl #4
    32c8:	0012ca00 	andseq	ip, r2, r0, lsl #20
    32cc:	00650800 	rsbeq	r0, r5, r0, lsl #16
    32d0:	ea140501 	b	5046dc <__bss_end__+0x4f9b84>
    32d4:	0a000000 	beq	32dc <__code_start__-0x4d24>
    32d8:	08000013 	stmdaeq	r0, {r0, r1, r4}
    32dc:	00000013 	andeq	r0, r0, r3, lsl r0
    32e0:	040a0409 	streq	r0, [sl], #-1033	; 0xfffffbf7
    32e4:	00000077 	andeq	r0, r0, r7, ror r0
    32e8:	00012300 	andeq	r2, r1, r0, lsl #6
    32ec:	a7000400 	strge	r0, [r0, -r0, lsl #8]
    32f0:	0400000f 	streq	r0, [r0], #-15
    32f4:	00012201 	andeq	r2, r1, r1, lsl #4
    32f8:	092b0c00 	stmdbeq	fp!, {sl, fp}
    32fc:	082c0000 	stmdaeq	ip!, {}	; <UNPREDICTABLE>
    3300:	8f700000 	svchi	0x00700000
    3304:	003c0000 	eorseq	r0, ip, r0
    3308:	17820000 	strne	r0, [r2, r0]
    330c:	04020000 	streq	r0, [r2], #-0
    3310:	746e6905 	strbtvc	r6, [lr], #-2309	; 0xfffff6fb
    3314:	07040300 	streq	r0, [r4, -r0, lsl #6]
    3318:	000001bf 			; <UNDEFINED> instruction: 0x000001bf
    331c:	16060103 	strne	r0, [r6], -r3, lsl #2
    3320:	03000001 	movweq	r0, #1
    3324:	003d0502 	eorseq	r0, sp, r2, lsl #10
    3328:	04030000 	streq	r0, [r3], #-0
    332c:	0000c805 	andeq	ip, r0, r5, lsl #16
    3330:	05080300 	streq	r0, [r8, #-768]	; 0xfffffd00
    3334:	000000c3 	andeq	r0, r0, r3, asr #1
    3338:	14080103 	strne	r0, [r8], #-259	; 0xfffffefd
    333c:	03000001 	movweq	r0, #1
    3340:	01f60702 	mvnseq	r0, r2, lsl #14
    3344:	04030000 	streq	r0, [r3], #-0
    3348:	0001ba07 	andeq	fp, r1, r7, lsl #20
    334c:	07080300 	streq	r0, [r8, -r0, lsl #6]
    3350:	000001b5 			; <UNDEFINED> instruction: 0x000001b5
    3354:	1d080103 	stfnes	f0, [r8, #-12]
    3358:	04000001 	streq	r0, [r0], #-1
    335c:	0000006b 	andeq	r0, r0, fp, rrx
    3360:	00095805 	andeq	r5, r9, r5, lsl #16
    3364:	06020100 	streq	r0, [r2], -r0, lsl #2
    3368:	00008f70 	andeq	r8, r0, r0, ror pc
    336c:	0000003c 	andeq	r0, r0, ip, lsr r0
    3370:	00f99c01 	rscseq	r9, r9, r1, lsl #24
    3374:	70060000 	andvc	r0, r6, r0
    3378:	02010063 	andeq	r0, r1, #99	; 0x63
    337c:	00002c2c 	andeq	r2, r0, ip, lsr #24
    3380:	00132300 	andseq	r2, r3, r0, lsl #6
    3384:	00131d00 	andseq	r1, r3, r0, lsl #26
    3388:	00d60700 	sbcseq	r0, r6, r0, lsl #14
    338c:	01090000 	mrseq	r0, (UNDEF: 9)
    3390:	03050000 	movweq	r0, #20480	; 0x5000
    3394:	0000a3b0 			; <UNDEFINED> instruction: 0x0000a3b0
    3398:	008f9808 	addeq	r9, pc, r8, lsl #16
    339c:	00010e00 	andeq	r0, r1, r0, lsl #28
    33a0:	0000ef00 	andeq	lr, r0, r0, lsl #30
    33a4:	50010900 	andpl	r0, r1, r0, lsl #18
    33a8:	a3640305 	cmnge	r4, #335544320	; 0x14000000
    33ac:	01090000 	mrseq	r0, (UNDEF: 9)
    33b0:	34030551 	strcc	r0, [r3], #-1361	; 0xfffffaaf
    33b4:	090000a3 	stmdbeq	r0, {r0, r1, r5, r7}
    33b8:	03055201 	movweq	r5, #20993	; 0x5201
    33bc:	0000a3b0 			; <UNDEFINED> instruction: 0x0000a3b0
    33c0:	01530109 	cmpeq	r3, r9, lsl #2
    33c4:	7d020932 	vstrvc.16	s0, [r2, #-100]	; 0xffffff9c	; <UNPREDICTABLE>
    33c8:	a0030500 	andge	r0, r3, r0, lsl #10
    33cc:	090000a3 	stmdbeq	r0, {r0, r1, r5, r7}
    33d0:	03047d02 	movweq	r7, #19714	; 0x4d02
    33d4:	005001f3 	ldrsheq	r0, [r0], #-19	; 0xffffffed
    33d8:	008f9c0a 	addeq	r9, pc, sl, lsl #24
    33dc:	00011a00 	andeq	r1, r1, r0, lsl #20
    33e0:	720b0000 	andvc	r0, fp, #0
    33e4:	09000000 	stmdbeq	r0, {}	; <UNPREDICTABLE>
    33e8:	0c000001 	stceq	0, cr0, [r0], {1}
    33ec:	0000002c 	andeq	r0, r0, ip, lsr #32
    33f0:	f904001c 			; <UNDEFINED> instruction: 0xf904001c
    33f4:	0d000000 	stceq	0, cr0, [r0, #-0]
    33f8:	00000825 	andeq	r0, r0, r5, lsr #16
    33fc:	00000825 	andeq	r0, r0, r5, lsr #16
    3400:	0d062802 	stceq	8, cr2, [r6, #-8]
    3404:	000000f9 	strdeq	r0, [r0], -r9
    3408:	000000f9 	strdeq	r0, [r0], -r9
    340c:	00066e02 	andeq	r6, r6, r2, lsl #28
    3410:	000001b2 			; <UNDEFINED> instruction: 0x000001b2
    3414:	105e0004 	subsne	r0, lr, r4
    3418:	01040000 	mrseq	r0, (UNDEF: 4)
    341c:	00000122 	andeq	r0, r0, r2, lsr #2
    3420:	0009900c 	andeq	r9, r9, ip
    3424:	00082c00 	andeq	r2, r8, r0, lsl #24
    3428:	008fac00 	addeq	sl, pc, r0, lsl #24
    342c:	00006000 	andeq	r6, r0, r0
    3430:	00182100 	andseq	r2, r8, r0, lsl #2
    3434:	05040200 	streq	r0, [r4, #-512]	; 0xfffffe00
    3438:	00746e69 	rsbseq	r6, r4, r9, ror #28
    343c:	bf070403 	svclt	0x00070403
    3440:	03000001 	movweq	r0, #1
    3444:	01160601 	tsteq	r6, r1, lsl #12
    3448:	02030000 	andeq	r0, r3, #0
    344c:	00003d05 	andeq	r3, r0, r5, lsl #26
    3450:	05040300 	streq	r0, [r4, #-768]	; 0xfffffd00
    3454:	000000c8 	andeq	r0, r0, r8, asr #1
    3458:	c3050803 	movwgt	r0, #22531	; 0x5803
    345c:	03000000 	movweq	r0, #0
    3460:	01140801 	tsteq	r4, r1, lsl #16
    3464:	02030000 	andeq	r0, r3, #0
    3468:	0001f607 	andeq	pc, r1, r7, lsl #12
    346c:	00940400 	addseq	r0, r4, r0, lsl #8
    3470:	34030000 	strcc	r0, [r3], #-0
    3474:	00006919 	andeq	r6, r0, r9, lsl r9
    3478:	07040300 	streq	r0, [r4, -r0, lsl #6]
    347c:	000001ba 			; <UNDEFINED> instruction: 0x000001ba
    3480:	b5070803 	strlt	r0, [r7, #-2051]	; 0xfffff7fd
    3484:	03000001 	movweq	r0, #1
    3488:	011d0801 	tsteq	sp, r1, lsl #16
    348c:	77050000 	strvc	r0, [r5, -r0]
    3490:	06000000 	streq	r0, [r0], -r0
    3494:	00000975 	andeq	r0, r0, r5, ror r9
    3498:	dc060601 	stcle	6, cr0, [r6], {1}
    349c:	3000008f 	andcc	r0, r0, pc, lsl #1
    34a0:	01000000 	mrseq	r0, (UNDEF: 0)
    34a4:	0000fb9c 	muleq	r0, ip, fp
    34a8:	63700700 	cmnvs	r0, #0, 14
    34ac:	2a060100 	bcs	1838b4 <__bss_end__+0x178d5c>
    34b0:	0000005d 	andeq	r0, r0, sp, asr r0
    34b4:	00001356 	andeq	r1, r0, r6, asr r3
    34b8:	00001350 	andeq	r1, r0, r0, asr r3
    34bc:	0000d608 	andeq	sp, r0, r8, lsl #12
    34c0:	00010b00 	andeq	r0, r1, r0, lsl #22
    34c4:	58030500 	stmdapl	r3, {r8, sl}
    34c8:	090000a4 	stmdbeq	r0, {r2, r5, r7}
    34cc:	00008ffc 	strdeq	r8, [r0], -ip
    34d0:	0000019d 	muleq	r0, sp, r1
    34d4:	000000f1 	strdeq	r0, [r0], -r1
    34d8:	0550010a 	ldrbeq	r0, [r0, #-266]	; 0xfffffef6
    34dc:	00a41803 	adceq	r1, r4, r3, lsl #16
    34e0:	51010a00 	tstpl	r1, r0, lsl #20
    34e4:	a3d00305 	bicsge	r0, r0, #335544320	; 0x14000000
    34e8:	010a0000 	mrseq	r0, (UNDEF: 10)
    34ec:	58030552 	stmdapl	r3, {r1, r4, r6, r8, sl}
    34f0:	0a0000a4 	beq	3788 <__code_start__-0x4878>
    34f4:	37015301 	strcc	r5, [r1, -r1, lsl #6]
    34f8:	007d020a 	rsbseq	r0, sp, sl, lsl #4
    34fc:	5001f303 	andpl	pc, r1, r3, lsl #6
    3500:	90000b00 	andls	r0, r0, r0, lsl #22
    3504:	01a90000 			; <UNDEFINED> instruction: 0x01a90000
    3508:	0c000000 	stceq	0, cr0, [r0], {-0}
    350c:	0000007e 	andeq	r0, r0, lr, ror r0
    3510:	0000010b 	andeq	r0, r0, fp, lsl #2
    3514:	00002c0d 	andeq	r2, r0, sp, lsl #24
    3518:	05001a00 	streq	r1, [r0, #-2560]	; 0xfffff600
    351c:	000000fb 	strdeq	r0, [r0], -fp
    3520:	0009aa06 	andeq	sl, r9, r6, lsl #20
    3524:	06030100 	streq	r0, [r3], -r0, lsl #2
    3528:	00008fac 	andeq	r8, r0, ip, lsr #31
    352c:	00000030 	andeq	r0, r0, r0, lsr r0
    3530:	01889c01 	orreq	r9, r8, r1, lsl #24
    3534:	70070000 	andvc	r0, r7, r0
    3538:	03010063 	movweq	r0, #4195	; 0x1063
    353c:	00005d26 	andeq	r5, r0, r6, lsr #26
    3540:	00138900 	andseq	r8, r3, r0, lsl #18
    3544:	00138300 	andseq	r8, r3, r0, lsl #6
    3548:	00d60800 	sbcseq	r0, r6, r0, lsl #16
    354c:	01980000 	orrseq	r0, r8, r0
    3550:	03050000 	movweq	r0, #20480	; 0x5000
    3554:	0000a440 	andeq	sl, r0, r0, asr #8
    3558:	008fcc09 	addeq	ip, pc, r9, lsl #24
    355c:	00019d00 	andeq	r9, r1, r0, lsl #26
    3560:	00017e00 	andeq	r7, r1, r0, lsl #28
    3564:	50010a00 	andpl	r0, r1, r0, lsl #20
    3568:	a3ec0305 	mvnge	r0, #335544320	; 0x14000000
    356c:	010a0000 	mrseq	r0, (UNDEF: 10)
    3570:	d0030551 	andle	r0, r3, r1, asr r5
    3574:	0a0000a3 	beq	3808 <__code_start__-0x47f8>
    3578:	03055201 	movweq	r5, #20993	; 0x5201
    357c:	0000a440 	andeq	sl, r0, r0, asr #8
    3580:	0153010a 	cmpeq	r3, sl, lsl #2
    3584:	7d020a34 	vstrvc	s0, [r2, #-208]	; 0xffffff30
    3588:	01f30300 	mvnseq	r0, r0, lsl #6
    358c:	d00b0050 	andle	r0, fp, r0, asr r0
    3590:	a900008f 	stmdbge	r0, {r0, r1, r2, r3, r7}
    3594:	00000001 	andeq	r0, r0, r1
    3598:	00007e0c 	andeq	r7, r0, ip, lsl #28
    359c:	00019800 	andeq	r9, r1, r0, lsl #16
    35a0:	002c0d00 	eoreq	r0, ip, r0, lsl #26
    35a4:	00160000 	andseq	r0, r6, r0
    35a8:	00018805 	andeq	r8, r1, r5, lsl #16
    35ac:	08250e00 	stmdaeq	r5!, {r9, sl, fp}
    35b0:	08250000 	stmdaeq	r5!, {}	; <UNPREDICTABLE>
    35b4:	28020000 	stmdacs	r2, {}	; <UNPREDICTABLE>
    35b8:	00f90e06 	rscseq	r0, r9, r6, lsl #28
    35bc:	00f90000 	rscseq	r0, r9, r0
    35c0:	6e020000 	cdpvs	0, 0, cr0, cr2, cr0, {0}
    35c4:	01230006 			; <UNDEFINED> instruction: 0x01230006
    35c8:	00040000 	andeq	r0, r4, r0
    35cc:	00001124 	andeq	r1, r0, r4, lsr #2
    35d0:	01220104 			; <UNDEFINED> instruction: 0x01220104
    35d4:	cc0c0000 	stcgt	0, cr0, [ip], {-0}
    35d8:	2c000009 	stccs	0, cr0, [r0], {9}
    35dc:	0c000008 	stceq	0, cr0, [r0], {8}
    35e0:	3c000090 	stccc	0, cr0, [r0], {144}	; 0x90
    35e4:	1a000000 	bne	35ec <__code_start__-0x4a14>
    35e8:	02000019 	andeq	r0, r0, #25
    35ec:	6e690504 	cdpvs	5, 6, cr0, cr9, cr4, {0}
    35f0:	04030074 	streq	r0, [r3], #-116	; 0xffffff8c
    35f4:	0001bf07 	andeq	fp, r1, r7, lsl #30
    35f8:	06010300 	streq	r0, [r1], -r0, lsl #6
    35fc:	00000116 	andeq	r0, r0, r6, lsl r1
    3600:	3d050203 	sfmcc	f0, 4, [r5, #-12]
    3604:	03000000 	movweq	r0, #0
    3608:	00c80504 	sbceq	r0, r8, r4, lsl #10
    360c:	08030000 	stmdaeq	r3, {}	; <UNPREDICTABLE>
    3610:	0000c305 	andeq	ip, r0, r5, lsl #6
    3614:	08010300 	stmdaeq	r1, {r8, r9}
    3618:	00000114 	andeq	r0, r0, r4, lsl r1
    361c:	f6070203 			; <UNDEFINED> instruction: 0xf6070203
    3620:	03000001 	movweq	r0, #1
    3624:	01ba0704 			; <UNDEFINED> instruction: 0x01ba0704
    3628:	08030000 	stmdaeq	r3, {}	; <UNPREDICTABLE>
    362c:	0001b507 	andeq	fp, r1, r7, lsl #10
    3630:	08010300 	stmdaeq	r1, {r8, r9}
    3634:	0000011d 	andeq	r0, r0, sp, lsl r1
    3638:	00006b04 	andeq	r6, r0, r4, lsl #22
    363c:	09c10500 	stmibeq	r1, {r8, sl}^
    3640:	03010000 	movweq	r0, #4096	; 0x1000
    3644:	00900c06 	addseq	r0, r0, r6, lsl #24
    3648:	00003c00 	andeq	r3, r0, r0, lsl #24
    364c:	f99c0100 			; <UNDEFINED> instruction: 0xf99c0100
    3650:	06000000 	streq	r0, [r0], -r0
    3654:	01006370 	tsteq	r0, r0, ror r3
    3658:	002c1a03 	eoreq	r1, ip, r3, lsl #20
    365c:	13bc0000 			; <UNDEFINED> instruction: 0x13bc0000
    3660:	13b60000 			; <UNDEFINED> instruction: 0x13b60000
    3664:	d6070000 	strle	r0, [r7], -r0
    3668:	09000000 	stmdbeq	r0, {}	; <UNPREDICTABLE>
    366c:	05000001 	streq	r0, [r0, #-1]
    3670:	00a4a403 	adceq	sl, r4, r3, lsl #8
    3674:	90340800 	eorsls	r0, r4, r0, lsl #16
    3678:	010e0000 	mrseq	r0, (UNDEF: 14)
    367c:	00ef0000 	rsceq	r0, pc, r0
    3680:	01090000 	mrseq	r0, (UNDEF: 9)
    3684:	64030550 	strvs	r0, [r3], #-1360	; 0xfffffab0
    3688:	090000a3 	stmdbeq	r0, {r0, r1, r5, r7}
    368c:	03055101 	movweq	r5, #20737	; 0x5101
    3690:	0000a474 	andeq	sl, r0, r4, ror r4
    3694:	05520109 	ldrbeq	r0, [r2, #-265]	; 0xfffffef7
    3698:	00a4a403 	adceq	sl, r4, r3, lsl #8
    369c:	53010900 	movwpl	r0, #6400	; 0x1900
    36a0:	02093301 	andeq	r3, r9, #67108864	; 0x4000000
    36a4:	0305007d 	movweq	r0, #20605	; 0x507d
    36a8:	0000a498 	muleq	r0, r8, r4
    36ac:	047d0209 	ldrbteq	r0, [sp], #-521	; 0xfffffdf7
    36b0:	5001f303 	andpl	pc, r1, r3, lsl #6
    36b4:	90380a00 	eorsls	r0, r8, r0, lsl #20
    36b8:	011a0000 	tsteq	sl, r0
    36bc:	0b000000 	bleq	36c4 <__code_start__-0x493c>
    36c0:	00000072 	andeq	r0, r0, r2, ror r0
    36c4:	00000109 	andeq	r0, r0, r9, lsl #2
    36c8:	00002c0c 	andeq	r2, r0, ip, lsl #24
    36cc:	04000a00 	streq	r0, [r0], #-2560	; 0xfffff600
    36d0:	000000f9 	strdeq	r0, [r0], -r9
    36d4:	0008250d 	andeq	r2, r8, sp, lsl #10
    36d8:	00082500 	andeq	r2, r8, r0, lsl #10
    36dc:	06280200 	strteq	r0, [r8], -r0, lsl #4
    36e0:	0000f90d 	andeq	pc, r0, sp, lsl #18
    36e4:	0000f900 	andeq	pc, r0, r0, lsl #18
    36e8:	066e0200 	strbteq	r0, [lr], -r0, lsl #4
    36ec:	00012300 	andeq	r2, r1, r0, lsl #6
    36f0:	db000400 	blle	46f8 <__code_start__-0x3908>
    36f4:	04000011 	streq	r0, [r0], #-17	; 0xffffffef
    36f8:	00012201 	andeq	r2, r1, r1, lsl #4
    36fc:	09ee0c00 	stmibeq	lr!, {sl, fp}^
    3700:	082c0000 	stmdaeq	ip!, {}	; <UNPREDICTABLE>
    3704:	90480000 	subls	r0, r8, r0
    3708:	003c0000 	eorseq	r0, ip, r0
    370c:	19ae0000 	stmibne	lr!, {}	; <UNPREDICTABLE>
    3710:	04020000 	streq	r0, [r2], #-0
    3714:	746e6905 	strbtvc	r6, [lr], #-2309	; 0xfffff6fb
    3718:	07040300 	streq	r0, [r4, -r0, lsl #6]
    371c:	000001bf 			; <UNDEFINED> instruction: 0x000001bf
    3720:	16060103 	strne	r0, [r6], -r3, lsl #2
    3724:	03000001 	movweq	r0, #1
    3728:	003d0502 	eorseq	r0, sp, r2, lsl #10
    372c:	04030000 	streq	r0, [r3], #-0
    3730:	0000c805 	andeq	ip, r0, r5, lsl #16
    3734:	05080300 	streq	r0, [r8, #-768]	; 0xfffffd00
    3738:	000000c3 	andeq	r0, r0, r3, asr #1
    373c:	14080103 	strne	r0, [r8], #-259	; 0xfffffefd
    3740:	03000001 	movweq	r0, #1
    3744:	01f60702 	mvnseq	r0, r2, lsl #14
    3748:	04030000 	streq	r0, [r3], #-0
    374c:	0001ba07 	andeq	fp, r1, r7, lsl #20
    3750:	07080300 	streq	r0, [r8, -r0, lsl #6]
    3754:	000001b5 			; <UNDEFINED> instruction: 0x000001b5
    3758:	1d080103 	stfnes	f0, [r8, #-12]
    375c:	04000001 	streq	r0, [r0], #-1
    3760:	0000006b 	andeq	r0, r0, fp, rrx
    3764:	000a1205 	andeq	r1, sl, r5, lsl #4
    3768:	06020100 	streq	r0, [r2], -r0, lsl #2
    376c:	00009048 	andeq	r9, r0, r8, asr #32
    3770:	0000003c 	andeq	r0, r0, ip, lsr r0
    3774:	00f99c01 	rscseq	r9, r9, r1, lsl #24
    3778:	70060000 	andvc	r0, r6, r0
    377c:	02010063 	andeq	r0, r1, #99	; 0x63
    3780:	00002c1c 	andeq	r2, r0, ip, lsl ip
    3784:	0013ef00 	andseq	lr, r3, r0, lsl #30
    3788:	0013e900 	andseq	lr, r3, r0, lsl #18
    378c:	00d60700 	sbcseq	r0, r6, r0, lsl #14
    3790:	01090000 	mrseq	r0, (UNDEF: 9)
    3794:	03050000 	movweq	r0, #20480	; 0x5000
    3798:	0000a4dc 	ldrdeq	sl, [r0], -ip
    379c:	00907008 	addseq	r7, r0, r8
    37a0:	00010e00 	andeq	r0, r1, r0, lsl #28
    37a4:	0000ef00 	andeq	lr, r0, r0, lsl #30
    37a8:	50010900 	andpl	r0, r1, r0, lsl #18
    37ac:	a3640305 	cmnge	r4, #335544320	; 0x14000000
    37b0:	01090000 	mrseq	r0, (UNDEF: 9)
    37b4:	b0030551 	andlt	r0, r3, r1, asr r5
    37b8:	090000a4 	stmdbeq	r0, {r2, r5, r7}
    37bc:	03055201 	movweq	r5, #20993	; 0x5201
    37c0:	0000a4dc 	ldrdeq	sl, [r0], -ip
    37c4:	01530109 	cmpeq	r3, r9, lsl #2
    37c8:	7d020932 	vstrvc.16	s0, [r2, #-100]	; 0xffffff9c	; <UNPREDICTABLE>
    37cc:	d4030500 	strle	r0, [r3], #-1280	; 0xfffffb00
    37d0:	090000a4 	stmdbeq	r0, {r2, r5, r7}
    37d4:	03047d02 	movweq	r7, #19714	; 0x4d02
    37d8:	005001f3 	ldrsheq	r0, [r0], #-19	; 0xffffffed
    37dc:	0090740a 	addseq	r7, r0, sl, lsl #8
    37e0:	00011a00 	andeq	r1, r1, r0, lsl #20
    37e4:	720b0000 	andvc	r0, fp, #0
    37e8:	09000000 	stmdbeq	r0, {}	; <UNPREDICTABLE>
    37ec:	0c000001 	stceq	0, cr0, [r0], {1}
    37f0:	0000002c 	andeq	r0, r0, ip, lsr #32
    37f4:	f904000c 			; <UNDEFINED> instruction: 0xf904000c
    37f8:	0d000000 	stceq	0, cr0, [r0, #-0]
    37fc:	00000825 	andeq	r0, r0, r5, lsr #16
    3800:	00000825 	andeq	r0, r0, r5, lsr #16
    3804:	0d062802 	stceq	8, cr2, [r6, #-8]
    3808:	000000f9 	strdeq	r0, [r0], -r9
    380c:	000000f9 	strdeq	r0, [r0], -r9
    3810:	00066e02 	andeq	r6, r6, r2, lsl #28
    3814:	00000123 	andeq	r0, r0, r3, lsr #2
    3818:	12920004 	addsne	r0, r2, #4
    381c:	01040000 	mrseq	r0, (UNDEF: 4)
    3820:	00000122 	andeq	r0, r0, r2, lsr #2
    3824:	000a1f0c 	andeq	r1, sl, ip, lsl #30
    3828:	00082c00 	andeq	r2, r8, r0, lsl #24
    382c:	00908400 	addseq	r8, r0, r0, lsl #8
    3830:	00003c00 	andeq	r3, r0, r0, lsl #24
    3834:	001a4400 	andseq	r4, sl, r0, lsl #8
    3838:	05040200 	streq	r0, [r4, #-512]	; 0xfffffe00
    383c:	00746e69 	rsbseq	r6, r4, r9, ror #28
    3840:	bf070403 	svclt	0x00070403
    3844:	03000001 	movweq	r0, #1
    3848:	01160601 	tsteq	r6, r1, lsl #12
    384c:	02030000 	andeq	r0, r3, #0
    3850:	00003d05 	andeq	r3, r0, r5, lsl #26
    3854:	05040300 	streq	r0, [r4, #-768]	; 0xfffffd00
    3858:	000000c8 	andeq	r0, r0, r8, asr #1
    385c:	c3050803 	movwgt	r0, #22531	; 0x5803
    3860:	03000000 	movweq	r0, #0
    3864:	01140801 	tsteq	r4, r1, lsl #16
    3868:	02030000 	andeq	r0, r3, #0
    386c:	0001f607 	andeq	pc, r1, r7, lsl #12
    3870:	07040300 	streq	r0, [r4, -r0, lsl #6]
    3874:	000001ba 			; <UNDEFINED> instruction: 0x000001ba
    3878:	b5070803 	strlt	r0, [r7, #-2051]	; 0xfffff7fd
    387c:	03000001 	movweq	r0, #1
    3880:	011d0801 	tsteq	sp, r1, lsl #16
    3884:	6b040000 	blvs	10388c <__bss_end__+0xf8d34>
    3888:	05000000 	streq	r0, [r0, #-0]
    388c:	00000600 	andeq	r0, r0, r0, lsl #12
    3890:	84060201 	strhi	r0, [r6], #-513	; 0xfffffdff
    3894:	3c000090 	stccc	0, cr0, [r0], {144}	; 0x90
    3898:	01000000 	mrseq	r0, (UNDEF: 0)
    389c:	0000f99c 	muleq	r0, ip, r9
    38a0:	63700600 	cmnvs	r0, #0, 12
    38a4:	21020100 	mrscs	r0, (UNDEF: 18)
    38a8:	0000002c 	andeq	r0, r0, ip, lsr #32
    38ac:	00001422 	andeq	r1, r0, r2, lsr #8
    38b0:	0000141c 	andeq	r1, r0, ip, lsl r4
    38b4:	0000d607 	andeq	sp, r0, r7, lsl #12
    38b8:	00010900 	andeq	r0, r1, r0, lsl #18
    38bc:	24030500 	strcs	r0, [r3], #-1280	; 0xfffffb00
    38c0:	080000a5 	stmdaeq	r0, {r0, r2, r5, r7}
    38c4:	000090ac 	andeq	r9, r0, ip, lsr #1
    38c8:	0000010e 	andeq	r0, r0, lr, lsl #2
    38cc:	000000ef 	andeq	r0, r0, pc, ror #1
    38d0:	05500109 	ldrbeq	r0, [r0, #-265]	; 0xfffffef7
    38d4:	00a36403 	adceq	r6, r3, r3, lsl #8
    38d8:	51010900 	tstpl	r1, r0, lsl #18
    38dc:	a4ec0305 	strbtge	r0, [ip], #773	; 0x305
    38e0:	01090000 	mrseq	r0, (UNDEF: 9)
    38e4:	24030552 	strcs	r0, [r3], #-1362	; 0xfffffaae
    38e8:	090000a5 	stmdbeq	r0, {r0, r2, r5, r7}
    38ec:	32015301 	andcc	r5, r1, #67108864	; 0x4000000
    38f0:	007d0209 	rsbseq	r0, sp, r9, lsl #4
    38f4:	a5180305 	ldrge	r0, [r8, #-773]	; 0xfffffcfb
    38f8:	02090000 	andeq	r0, r9, #0
    38fc:	f303047d 	vqshl.u8	q0, <illegal reg q14.5>, <illegal reg q1.5>
    3900:	0a005001 	beq	1790c <__bss_end__+0xcdb4>
    3904:	000090b0 	strheq	r9, [r0], -r0
    3908:	0000011a 	andeq	r0, r0, sl, lsl r1
    390c:	00720b00 	rsbseq	r0, r2, r0, lsl #22
    3910:	01090000 	mrseq	r0, (UNDEF: 9)
    3914:	2c0c0000 	stccs	0, cr0, [ip], {-0}
    3918:	11000000 	mrsne	r0, (UNDEF: 0)
    391c:	00f90400 	rscseq	r0, r9, r0, lsl #8
    3920:	250d0000 	strcs	r0, [sp, #-0]
    3924:	25000008 	strcs	r0, [r0, #-8]
    3928:	02000008 	andeq	r0, r0, #8
    392c:	f90d0628 			; <UNDEFINED> instruction: 0xf90d0628
    3930:	f9000000 			; <UNDEFINED> instruction: 0xf9000000
    3934:	02000000 	andeq	r0, r0, #0
    3938:	3c00066e 	stccc	6, cr0, [r0], {110}	; 0x6e
    393c:	04000001 	streq	r0, [r0], #-1
    3940:	00134900 	andseq	r4, r3, r0, lsl #18
    3944:	22010400 	andcs	r0, r1, #0, 8
    3948:	0c000001 	stceq	0, cr0, [r0], {1}
    394c:	00000a66 	andeq	r0, r0, r6, ror #20
    3950:	0000082c 	andeq	r0, r0, ip, lsr #16
    3954:	000090c0 	andeq	r9, r0, r0, asr #1
    3958:	00000040 	andeq	r0, r0, r0, asr #32
    395c:	00001adf 	ldrdeq	r1, [r0], -pc	; <UNPREDICTABLE>
    3960:	69050402 	stmdbvs	r5, {r1, sl}
    3964:	0300746e 	movweq	r7, #1134	; 0x46e
    3968:	01bf0704 			; <UNDEFINED> instruction: 0x01bf0704
    396c:	01030000 	mrseq	r0, (UNDEF: 3)
    3970:	00011606 	andeq	r1, r1, r6, lsl #12
    3974:	05020300 	streq	r0, [r2, #-768]	; 0xfffffd00
    3978:	0000003d 	andeq	r0, r0, sp, lsr r0
    397c:	c8050403 	stmdagt	r5, {r0, r1, sl}
    3980:	03000000 	movweq	r0, #0
    3984:	00c30508 	sbceq	r0, r3, r8, lsl #10
    3988:	01030000 	mrseq	r0, (UNDEF: 3)
    398c:	00011408 	andeq	r1, r1, r8, lsl #8
    3990:	07020300 	streq	r0, [r2, -r0, lsl #6]
    3994:	000001f6 	strdeq	r0, [r0], -r6
    3998:	ba070403 	blt	1c49ac <__bss_end__+0x1b9e54>
    399c:	03000001 	movweq	r0, #1
    39a0:	01b50708 			; <UNDEFINED> instruction: 0x01b50708
    39a4:	01030000 	mrseq	r0, (UNDEF: 3)
    39a8:	00011d08 	andeq	r1, r1, r8, lsl #26
    39ac:	0a560400 	beq	15849b4 <__bss_end__+0x1579e5c>
    39b0:	04010000 	streq	r0, [r1], #-0
    39b4:	0090c006 	addseq	ip, r0, r6
    39b8:	00004000 	andeq	r4, r0, r0
    39bc:	079c0100 	ldreq	r0, [ip, r0, lsl #2]
    39c0:	05000001 	streq	r0, [r0, #-1]
    39c4:	00000a48 	andeq	r0, r0, r8, asr #20
    39c8:	25100501 	ldrcs	r0, [r0, #-1281]	; 0xfffffaff
    39cc:	05000000 	streq	r0, [r0, #-0]
    39d0:	00000a85 	andeq	r0, r0, r5, lsl #21
    39d4:	251f0501 	ldrcs	r0, [pc, #-1281]	; 34db <__code_start__-0x4b25>
    39d8:	06000000 	streq	r0, [r0], -r0
    39dc:	000001ee 	andeq	r0, r0, lr, ror #3
    39e0:	07070601 	streq	r0, [r7, -r1, lsl #12]
    39e4:	00737362 	rsbseq	r7, r3, r2, ror #6
    39e8:	070a0a01 	streq	r0, [sl, -r1, lsl #20]
    39ec:	55000001 	strpl	r0, [r0, #-1]
    39f0:	4f000014 	svcmi	0x00000014
    39f4:	08000014 	stmdaeq	r0, {r2, r4}
    39f8:	00000a5e 	andeq	r0, r0, lr, asr sl
    39fc:	070a0b01 	streq	r0, [sl, -r1, lsl #22]
    3a00:	09000001 	stmdbeq	r0, {r0}
    3a04:	000090e8 	andeq	r9, r0, r8, ror #1
    3a08:	00000008 	andeq	r0, r0, r8
    3a0c:	000000e2 	andeq	r0, r0, r2, ror #1
    3a10:	006e690a 	rsbeq	r6, lr, sl, lsl #18
    3a14:	2c051401 	cfstrscs	mvf1, [r5], {1}
    3a18:	01000000 	mrseq	r0, (UNDEF: 0)
    3a1c:	90c80b00 	sbcls	r0, r8, r0, lsl #22
    3a20:	010d0000 	mrseq	r0, (UNDEF: 13)
    3a24:	e80b0000 	stmda	fp, {}	; <UNPREDICTABLE>
    3a28:	1a000090 	bne	3c70 <__code_start__-0x4390>
    3a2c:	0b000001 	bleq	3a38 <__code_start__-0x45c8>
    3a30:	000090f4 	strdeq	r9, [r0], -r4
    3a34:	00000126 	andeq	r0, r0, r6, lsr #2
    3a38:	0090f80b 	addseq	pc, r0, fp, lsl #16
    3a3c:	00013300 	andeq	r3, r1, r0, lsl #6
    3a40:	040c0000 	streq	r0, [ip], #-0
    3a44:	00000025 	andeq	r0, r0, r5, lsr #32
    3a48:	0002f30d 	andeq	pc, r2, sp, lsl #6
    3a4c:	0002f300 	andeq	pc, r2, r0, lsl #6
    3a50:	01310200 	teqeq	r1, r0, lsl #4
    3a54:	0a7b0e06 	beq	1ec7274 <__bss_end__+0x1ebc71c>
    3a58:	0a7b0000 	beq	1ec3a60 <__bss_end__+0x1eb8f08>
    3a5c:	3b020000 	blcc	83a64 <__bss_end__+0x78f0c>
    3a60:	01ee0d06 	mvneq	r0, r6, lsl #26
    3a64:	01ee0000 	mvneq	r0, r0
    3a68:	05020000 	streq	r0, [r2, #-0]
    3a6c:	f90e0601 			; <UNDEFINED> instruction: 0xf90e0601
    3a70:	f9000000 			; <UNDEFINED> instruction: 0xf9000000
    3a74:	02000000 	andeq	r0, r0, #0
    3a78:	d300066e 	movwle	r0, #1646	; 0x66e
    3a7c:	04000001 	streq	r0, [r0], #-1
    3a80:	00142c00 	andseq	r2, r4, r0, lsl #24
    3a84:	22010400 	andcs	r0, r1, #0, 8
    3a88:	0c000001 	stceq	0, cr0, [r0], {1}
    3a8c:	00000ac2 	andeq	r0, r0, r2, asr #21
    3a90:	0000082c 	andeq	r0, r0, ip, lsr #16
    3a94:	000001a0 	andeq	r0, r0, r0, lsr #3
    3a98:	00000000 	andeq	r0, r0, r0
    3a9c:	00001b83 	andeq	r1, r0, r3, lsl #23
    3aa0:	69050402 	stmdbvs	r5, {r1, sl}
    3aa4:	0300746e 	movweq	r7, #1134	; 0x46e
    3aa8:	00000025 	andeq	r0, r0, r5, lsr #32
    3aac:	bf070404 	svclt	0x00070404
    3ab0:	04000001 	streq	r0, [r0], #-1
    3ab4:	01160601 	tsteq	r6, r1, lsl #12
    3ab8:	02040000 	andeq	r0, r4, #0
    3abc:	00003d05 	andeq	r3, r0, r5, lsl #26
    3ac0:	05040400 	streq	r0, [r4, #-1024]	; 0xfffffc00
    3ac4:	000000c8 	andeq	r0, r0, r8, asr #1
    3ac8:	c3050804 	movwgt	r0, #22532	; 0x5804
    3acc:	04000000 	streq	r0, [r0], #-0
    3ad0:	01140801 	tsteq	r4, r1, lsl #16
    3ad4:	02040000 	andeq	r0, r4, #0
    3ad8:	0001f607 	andeq	pc, r1, r7, lsl #12
    3adc:	07040400 	streq	r0, [r4, -r0, lsl #8]
    3ae0:	000001ba 			; <UNDEFINED> instruction: 0x000001ba
    3ae4:	b5070804 	strlt	r0, [r7, #-2052]	; 0xfffff7fc
    3ae8:	04000001 	streq	r0, [r0], #-1
    3aec:	011d0801 	tsteq	sp, r1, lsl #16
    3af0:	e6050000 	str	r0, [r5], -r0
    3af4:	0100000a 	tsteq	r0, sl
    3af8:	0031110d 	eorseq	r1, r1, sp, lsl #2
    3afc:	91060000 	mrsls	r0, (UNDEF: 6)
    3b00:	0100000a 	tsteq	r0, sl
    3b04:	912c061f 			; <UNDEFINED> instruction: 0x912c061f
    3b08:	00500000 	subseq	r0, r0, r0
    3b0c:	9c010000 	stcls	0, cr0, [r1], {-0}
    3b10:	00000158 	andeq	r0, r0, r8, asr r1
    3b14:	000b0a07 	andeq	r0, fp, r7, lsl #20
    3b18:	0f2f0100 	svceq	0x002f0100
    3b1c:	0000002c 	andeq	r0, r0, ip, lsr #32
    3b20:	00001482 	andeq	r1, r0, r2, lsl #9
    3b24:	00001480 	andeq	r1, r0, r0, lsl #9
    3b28:	000a9c07 	andeq	r9, sl, r7, lsl #24
    3b2c:	0f300100 	svceq	0x00300100
    3b30:	0000002c 	andeq	r0, r0, ip, lsr #32
    3b34:	0000149c 	muleq	r0, ip, r4
    3b38:	0000149a 	muleq	r0, sl, r4
    3b3c:	000ad707 	andeq	sp, sl, r7, lsl #14
    3b40:	0f310100 	svceq	0x00310100
    3b44:	0000002c 	andeq	r0, r0, ip, lsr #32
    3b48:	000014b6 			; <UNDEFINED> instruction: 0x000014b6
    3b4c:	000014b4 			; <UNDEFINED> instruction: 0x000014b4
    3b50:	000af107 	andeq	pc, sl, r7, lsl #2
    3b54:	0f320100 	svceq	0x00320100
    3b58:	0000002c 	andeq	r0, r0, ip, lsr #32
    3b5c:	000014cf 	andeq	r1, r0, pc, asr #9
    3b60:	000014cd 	andeq	r1, r0, sp, asr #9
    3b64:	00913408 	addseq	r3, r1, r8, lsl #8
    3b68:	00018300 	andeq	r8, r1, r0, lsl #6
    3b6c:	91400800 	cmpls	r0, r0, lsl #16
    3b70:	01b20000 			; <UNDEFINED> instruction: 0x01b20000
    3b74:	48090000 	stmdami	r9, {}	; <UNPREDICTABLE>
    3b78:	be000091 	mcrlt	0, 0, r0, cr0, cr1, {4}
    3b7c:	0e000001 	cdpeq	0, 0, cr0, cr0, cr1, {0}
    3b80:	0a000001 	beq	3b8c <__code_start__-0x4474>
    3b84:	3a015001 	bcc	57b90 <__bss_end__+0x4d038>
    3b88:	91540900 	cmpls	r4, r0, lsl #18
    3b8c:	01ca0000 	biceq	r0, sl, r0
    3b90:	012e0000 			; <UNDEFINED> instruction: 0x012e0000
    3b94:	010a0000 	mrseq	r0, (UNDEF: 10)
    3b98:	240c0550 	strcs	r0, [ip], #-1360	; 0xfffffab0
    3b9c:	0a201000 	beq	807ba4 <__bss_end__+0x7fd04c>
    3ba0:	0c055101 	stfeqs	f5, [r5], {1}
    3ba4:	5a000001 	bpl	3bb0 <__code_start__-0x4450>
    3ba8:	91600900 	cmnls	r0, r0, lsl #18
    3bac:	01ca0000 	biceq	r0, sl, r0
    3bb0:	014e0000 	mrseq	r0, (UNDEF: 78)
    3bb4:	010a0000 	mrseq	r0, (UNDEF: 10)
    3bb8:	1c0c0550 	cfstr32ne	mvfx0, [ip], {80}	; 0x50
    3bbc:	0a201000 	beq	807bc4 <__bss_end__+0x7fd06c>
    3bc0:	0c055101 	stfeqs	f5, [r5], {1}
    3bc4:	5a000020 	bpl	3c4c <__code_start__-0x43b4>
    3bc8:	91680800 	cmnls	r8, r0, lsl #16
    3bcc:	01580000 	cmpeq	r8, r0
    3bd0:	0b000000 	bleq	3bd8 <__code_start__-0x4428>
    3bd4:	00000aa4 	andeq	r0, r0, r4, lsr #21
    3bd8:	18061701 	stmdane	r6, {r0, r8, r9, sl, ip}
    3bdc:	14000091 	strne	r0, [r0], #-145	; 0xffffff6f
    3be0:	01000000 	mrseq	r0, (UNDEF: 0)
    3be4:	0001839c 	muleq	r1, ip, r3
    3be8:	045b0700 	ldrbeq	r0, [fp], #-1792	; 0xfffff900
    3bec:	18010000 	stmdane	r1, {}	; <UNPREDICTABLE>
    3bf0:	0000310e 	andeq	r3, r0, lr, lsl #2
    3bf4:	0014ea00 	andseq	lr, r4, r0, lsl #20
    3bf8:	0014e400 	andseq	lr, r4, r0, lsl #8
    3bfc:	e30c0000 	movw	r0, #49152	; 0xc000
    3c00:	0100000a 	tsteq	r0, sl
    3c04:	0025050e 	eoreq	r0, r5, lr, lsl #10
    3c08:	91000000 	mrsls	r0, (UNDEF: 0)
    3c0c:	00180000 	andseq	r0, r8, r0
    3c10:	9c010000 	stcls	0, cr0, [r1], {-0}
    3c14:	000001b2 			; <UNDEFINED> instruction: 0x000001b2
    3c18:	00045b07 	andeq	r5, r4, r7, lsl #22
    3c1c:	0e0f0100 	adfeqe	f0, f7, f0
    3c20:	00000031 	andeq	r0, r0, r1, lsr r0
    3c24:	00001518 	andeq	r1, r0, r8, lsl r5
    3c28:	00001514 	andeq	r1, r0, r4, lsl r5
    3c2c:	0b120d00 	bleq	487034 <__bss_end__+0x47c4dc>
    3c30:	0b120000 	bleq	483c38 <__bss_end__+0x4790e0>
    3c34:	4d020000 	stcmi	0, cr0, [r2, #-0]
    3c38:	0ab90d06 	beq	fee47058 <__bss_end__+0xfee3c500>
    3c3c:	0ab90000 	beq	fee43c44 <__bss_end__+0xfee390ec>
    3c40:	58020000 	stmdapl	r2, {}	; <UNPREDICTABLE>
    3c44:	0ab30d06 	beq	fecc7064 <__bss_end__+0xfecbc50c>
    3c48:	0ab30000 	beq	fecc3c50 <__bss_end__+0xfecb90f8>
    3c4c:	ad020000 	stcge	0, cr0, [r2, #-0]
    3c50:	010e0006 	tsteq	lr, r6
    3c54:	00040000 	andeq	r0, r4, r0
    3c58:	00001510 	andeq	r1, r0, r0, lsl r5
    3c5c:	01220104 			; <UNDEFINED> instruction: 0x01220104
    3c60:	200c0000 	andcs	r0, ip, r0
    3c64:	2c00000b 	stccs	0, cr0, [r0], {11}
    3c68:	7c000008 	stcvc	0, cr0, [r0], {8}
    3c6c:	2c000091 	stccs	0, cr0, [r0], {145}	; 0x91
    3c70:	5a000000 	bpl	3c78 <__code_start__-0x4388>
    3c74:	0200001c 	andeq	r0, r0, #28
    3c78:	6e690504 	cdpvs	5, 6, cr0, cr9, cr4, {0}
    3c7c:	04030074 	streq	r0, [r3], #-116	; 0xffffff8c
    3c80:	0001bf07 	andeq	fp, r1, r7, lsl #30
    3c84:	06010300 	streq	r0, [r1], -r0, lsl #6
    3c88:	00000116 	andeq	r0, r0, r6, lsl r1
    3c8c:	3d050203 	sfmcc	f0, 4, [r5, #-12]
    3c90:	03000000 	movweq	r0, #0
    3c94:	00c80504 	sbceq	r0, r8, r4, lsl #10
    3c98:	08030000 	stmdaeq	r3, {}	; <UNPREDICTABLE>
    3c9c:	0000c305 	andeq	ip, r0, r5, lsl #6
    3ca0:	08010300 	stmdaeq	r1, {r8, r9}
    3ca4:	00000114 	andeq	r0, r0, r4, lsl r1
    3ca8:	f6070203 			; <UNDEFINED> instruction: 0xf6070203
    3cac:	03000001 	movweq	r0, #1
    3cb0:	01ba0704 			; <UNDEFINED> instruction: 0x01ba0704
    3cb4:	08030000 	stmdaeq	r3, {}	; <UNPREDICTABLE>
    3cb8:	0001b507 	andeq	fp, r1, r7, lsl #10
    3cbc:	00250400 	eoreq	r0, r5, r0, lsl #8
    3cc0:	007a0000 	rsbseq	r0, sl, r0
    3cc4:	7a050000 	bvc	143ccc <__bss_end__+0x139174>
    3cc8:	00000000 	andeq	r0, r0, r0
    3ccc:	00870406 	addeq	r0, r7, r6, lsl #8
    3cd0:	01030000 	mrseq	r0, (UNDEF: 3)
    3cd4:	00011d08 	andeq	r1, r1, r8, lsl #26
    3cd8:	00800700 	addeq	r0, r0, r0, lsl #14
    3cdc:	c0080000 	andgt	r0, r8, r0
    3ce0:	02000008 	andeq	r0, r0, #8
    3ce4:	00980e21 	addseq	r0, r8, r1, lsr #28
    3ce8:	04060000 	streq	r0, [r6], #-0
    3cec:	0000006b 	andeq	r0, r0, fp, rrx
    3cf0:	0000f909 	andeq	pc, r0, r9, lsl #18
    3cf4:	06040100 	streq	r0, [r4], -r0, lsl #2
    3cf8:	0000917c 	andeq	r9, r0, ip, ror r1
    3cfc:	0000002c 	andeq	r0, r0, ip, lsr #32
    3d00:	00ed9c01 	rsceq	r9, sp, r1, lsl #24
    3d04:	900a0000 	andls	r0, sl, r0
    3d08:	c7000091 			; <UNDEFINED> instruction: 0xc7000091
    3d0c:	0b000000 	bleq	3d14 <__code_start__-0x42ec>
    3d10:	03055001 	movweq	r5, #20481	; 0x5001
    3d14:	0000a538 	andeq	sl, r0, r8, lsr r5
    3d18:	91940c00 	orrsls	r0, r4, r0, lsl #24
    3d1c:	00ed0000 	rsceq	r0, sp, r0
    3d20:	9c0d0000 	stcls	0, cr0, [sp], {-0}
    3d24:	f9000091 			; <UNDEFINED> instruction: 0xf9000091
    3d28:	e3000000 	movw	r0, #0
    3d2c:	0b000000 	bleq	3d34 <__code_start__-0x42cc>
    3d30:	3a015001 	bcc	57d3c <__bss_end__+0x4d1e4>
    3d34:	91a00c00 	lslls	r0, r0, #24
    3d38:	01050000 	mrseq	r0, (UNDEF: 5)
    3d3c:	0e000000 	cdpeq	0, 0, cr0, cr0, cr0, {0}
    3d40:	00000b12 	andeq	r0, r0, r2, lsl fp
    3d44:	00000b12 	andeq	r0, r0, r2, lsl fp
    3d48:	0e064d02 	cdpeq	13, 0, cr4, cr6, cr2, {0}
    3d4c:	00000ab9 			; <UNDEFINED> instruction: 0x00000ab9
    3d50:	00000ab9 			; <UNDEFINED> instruction: 0x00000ab9
    3d54:	0e065802 	cdpeq	8, 0, cr5, cr6, cr2, {0}
    3d58:	00000a91 	muleq	r0, r1, sl
    3d5c:	00000a91 	muleq	r0, r1, sl
    3d60:	00066b02 	andeq	r6, r6, r2, lsl #22
    3d64:	00000200 	andeq	r0, r0, r0, lsl #4
    3d68:	15d00004 	ldrbne	r0, [r0, #4]
    3d6c:	01040000 	mrseq	r0, (UNDEF: 4)
    3d70:	00000122 	andeq	r0, r0, r2, lsr #2
    3d74:	000b570c 	andeq	r5, fp, ip, lsl #14
    3d78:	00082c00 	andeq	r2, r8, r0, lsl #24
    3d7c:	0091a800 	addseq	sl, r1, r0, lsl #16
    3d80:	00008400 	andeq	r8, r0, r0, lsl #8
    3d84:	001ce200 	andseq	lr, ip, r0, lsl #4
    3d88:	05040200 	streq	r0, [r4, #-512]	; 0xfffffe00
    3d8c:	00746e69 	rsbseq	r6, r4, r9, ror #28
    3d90:	bf070403 	svclt	0x00070403
    3d94:	03000001 	movweq	r0, #1
    3d98:	01160601 	tsteq	r6, r1, lsl #12
    3d9c:	02030000 	andeq	r0, r3, #0
    3da0:	00003d05 	andeq	r3, r0, r5, lsl #26
    3da4:	05040300 	streq	r0, [r4, #-768]	; 0xfffffd00
    3da8:	000000c8 	andeq	r0, r0, r8, asr #1
    3dac:	c3050803 	movwgt	r0, #22531	; 0x5803
    3db0:	03000000 	movweq	r0, #0
    3db4:	01140801 	tsteq	r4, r1, lsl #16
    3db8:	02030000 	andeq	r0, r3, #0
    3dbc:	0001f607 	andeq	pc, r1, r7, lsl #12
    3dc0:	07040300 	streq	r0, [r4, -r0, lsl #6]
    3dc4:	000001ba 			; <UNDEFINED> instruction: 0x000001ba
    3dc8:	b5070803 	strlt	r0, [r7, #-2051]	; 0xfffff7fd
    3dcc:	03000001 	movweq	r0, #1
    3dd0:	011d0801 	tsteq	sp, r1, lsl #16
    3dd4:	47040000 	strmi	r0, [r4, -r0]
    3dd8:	0100000b 	tsteq	r0, fp
    3ddc:	9214061e 	andsls	r0, r4, #31457280	; 0x1e00000
    3de0:	00180000 	andseq	r0, r8, r0
    3de4:	9c010000 	stcls	0, cr0, [r1], {-0}
    3de8:	000000bc 	strheq	r0, [r0], -ip
    3dec:	63657305 	cmnvs	r5, #335544320	; 0x14000000
    3df0:	191e0100 	ldmdbne	lr, {r8}
    3df4:	0000002c 	andeq	r0, r0, ip, lsr #32
    3df8:	0000153b 	andeq	r1, r0, fp, lsr r5
    3dfc:	00001537 	andeq	r1, r0, r7, lsr r5
    3e00:	00922806 	addseq	r2, r2, r6, lsl #16
    3e04:	0000bc00 	andeq	fp, r0, r0, lsl #24
    3e08:	50010700 	andpl	r0, r1, r0, lsl #14
    3e0c:	5001f311 	andpl	pc, r1, r1, lsl r3	; <UNPREDICTABLE>
    3e10:	01f32435 	mvnseq	r2, r5, lsr r4
    3e14:	24321c50 	ldrtcs	r1, [r2], #-3152	; 0xfffff3b0
    3e18:	225001f3 	subscs	r0, r0, #-1073741764	; 0xc000003c
    3e1c:	00002433 	andeq	r2, r0, r3, lsr r4
    3e20:	000ab904 	andeq	fp, sl, r4, lsl #18
    3e24:	061b0100 	ldreq	r0, [fp], -r0, lsl #2
    3e28:	000091fc 	strdeq	r9, [r0], -ip
    3e2c:	00000018 	andeq	r0, r0, r8, lsl r0
    3e30:	01059c01 	tsteq	r5, r1, lsl #24
    3e34:	6d050000 	stcvs	0, cr0, [r5, #-0]
    3e38:	1b010073 	blne	4400c <__bss_end__+0x394b4>
    3e3c:	00002c18 	andeq	r2, r0, r8, lsl ip
    3e40:	00156000 	andseq	r6, r5, r0
    3e44:	00155c00 	andseq	r5, r5, r0, lsl #24
    3e48:	92100600 	andsls	r0, r0, #0, 12
    3e4c:	01050000 	mrseq	r0, (UNDEF: 5)
    3e50:	01070000 	mrseq	r0, (UNDEF: 7)
    3e54:	01f31150 	mvnseq	r1, r0, asr r1
    3e58:	f3243550 	vqrshl.u32	<illegal reg q1.5>, q0, q2
    3e5c:	321c5001 	andscc	r5, ip, #1
    3e60:	5001f324 	andpl	pc, r1, r4, lsr #6
    3e64:	00243322 	eoreq	r3, r4, r2, lsr #6
    3e68:	0b7a0400 	bleq	1e84e70 <__bss_end__+0x1e7a318>
    3e6c:	12010000 	andne	r0, r1, #0
    3e70:	0091d806 	addseq	sp, r1, r6, lsl #16
    3e74:	00002400 	andeq	r2, r0, r0, lsl #8
    3e78:	759c0100 	ldrvc	r0, [ip, #256]	; 0x100
    3e7c:	05000001 	streq	r0, [r0, #-1]
    3e80:	01007375 	tsteq	r0, r5, ror r3
    3e84:	002c1812 	eoreq	r1, ip, r2, lsl r8
    3e88:	15850000 	strne	r0, [r5]
    3e8c:	15810000 	strne	r0, [r1]
    3e90:	72080000 	andvc	r0, r8, #0
    3e94:	13010062 	movwne	r0, #4194	; 0x1062
    3e98:	00002c0e 	andeq	r2, r0, lr, lsl #24
    3e9c:	0015a500 	andseq	sl, r5, r0, lsl #10
    3ea0:	0015a300 	andseq	sl, r5, r0, lsl #6
    3ea4:	91e80900 	mvnls	r0, r0, lsl #18
    3ea8:	00140000 	andseq	r0, r4, r0
    3eac:	016b0000 	cmneq	fp, r0
    3eb0:	72080000 	andvc	r0, r8, #0
    3eb4:	15010061 	strne	r0, [r1, #-97]	; 0xffffff9f
    3eb8:	00002c12 	andeq	r2, r0, r2, lsl ip
    3ebc:	0015ba00 	andseq	fp, r5, r0, lsl #20
    3ec0:	0015b800 	andseq	fp, r5, r0, lsl #16
    3ec4:	91ec0a00 	mvnls	r0, r0, lsl #20
    3ec8:	01750000 	cmneq	r5, r0
    3ecc:	0a000000 	beq	3ed4 <__code_start__-0x412c>
    3ed0:	000091e4 	andeq	r9, r0, r4, ror #3
    3ed4:	00000175 	andeq	r0, r0, r5, ror r1
    3ed8:	0b6b0b00 	bleq	1ac6ae0 <__bss_end__+0x1abbf88>
    3edc:	09010000 	stmdbeq	r1, {}	; <UNPREDICTABLE>
    3ee0:	00002c0a 	andeq	r2, r0, sl, lsl #24
    3ee4:	0091bc00 	addseq	fp, r1, r0, lsl #24
    3ee8:	00001c00 	andeq	r1, r0, r0, lsl #24
    3eec:	bd9c0100 	ldflts	f0, [ip]
    3ef0:	08000001 	stmdaeq	r0, {r0}
    3ef4:	0d010075 	stceq	0, cr0, [r1, #-468]	; 0xfffffe2c
    3ef8:	00002c0e 	andeq	r2, r0, lr, lsl #24
    3efc:	0015d100 	andseq	sp, r5, r0, lsl #2
    3f00:	0015cd00 	andseq	ip, r5, r0, lsl #26
    3f04:	91c40a00 	bicls	r0, r4, r0, lsl #20
    3f08:	01eb0000 	mvneq	r0, r0
    3f0c:	c80a0000 	stmdagt	sl, {}	; <UNPREDICTABLE>
    3f10:	bd000091 	stclt	0, cr0, [r0, #-580]	; 0xfffffdbc
    3f14:	0a000001 	beq	3f20 <__code_start__-0x40e0>
    3f18:	000091d0 	ldrdeq	r9, [r0], -r0
    3f1c:	000001eb 	andeq	r0, r0, fp, ror #3
    3f20:	0b830b00 	bleq	fe0c6b28 <__bss_end__+0xfe0bbfd0>
    3f24:	04010000 	streq	r0, [r1], #-0
    3f28:	00002c0a 	andeq	r2, r0, sl, lsl #24
    3f2c:	0091a800 	addseq	sl, r1, r0, lsl #16
    3f30:	00001400 	andeq	r1, r0, r0, lsl #8
    3f34:	eb9c0100 	bl	fe70433c <__bss_end__+0xfe6f97e4>
    3f38:	06000001 	streq	r0, [r0], -r1
    3f3c:	000091b4 			; <UNDEFINED> instruction: 0x000091b4
    3f40:	000001f7 	strdeq	r0, [r0], -r7
    3f44:	05500107 	ldrbeq	r0, [r0, #-263]	; 0xfffffef9
    3f48:	0030040c 	eorseq	r0, r0, ip, lsl #8
    3f4c:	0c000020 	stceq	0, cr0, [r0], {32}
    3f50:	00000b3b 	andeq	r0, r0, fp, lsr fp
    3f54:	00000b3b 	andeq	r0, r0, fp, lsr fp
    3f58:	0c069c02 	stceq	12, cr9, [r6], {2}
    3f5c:	00000b51 	andeq	r0, r0, r1, asr fp
    3f60:	00000b51 	andeq	r0, r0, r1, asr fp
    3f64:	000ac202 	andeq	ip, sl, r2, lsl #4
    3f68:	000005cd 	andeq	r0, r0, sp, asr #11
    3f6c:	169c0004 	ldrne	r0, [ip], r4
    3f70:	01040000 	mrseq	r0, (UNDEF: 4)
    3f74:	00000122 	andeq	r0, r0, r2, lsr #2
    3f78:	000bc30c 	andeq	ip, fp, ip, lsl #6
    3f7c:	000ca500 	andeq	sl, ip, r0, lsl #10
    3f80:	00922c00 	addseq	r2, r2, r0, lsl #24
    3f84:	0001f000 	andeq	pc, r1, r0
    3f88:	001dbf00 	andseq	fp, sp, r0, lsl #30
    3f8c:	05040200 	streq	r0, [r4, #-512]	; 0xfffffe00
    3f90:	00746e69 	rsbseq	r6, r4, r9, ror #28
    3f94:	bf070403 	svclt	0x00070403
    3f98:	04000001 	streq	r0, [r0], #-1
    3f9c:	0000002c 	andeq	r0, r0, ip, lsr #32
    3fa0:	16060103 	strne	r0, [r6], -r3, lsl #2
    3fa4:	03000001 	movweq	r0, #1
    3fa8:	003d0502 	eorseq	r0, sp, r2, lsl #10
    3fac:	04030000 	streq	r0, [r3], #-0
    3fb0:	0000c805 	andeq	ip, r0, r5, lsl #16
    3fb4:	05080300 	streq	r0, [r8, #-768]	; 0xfffffd00
    3fb8:	000000c3 	andeq	r0, r0, r3, asr #1
    3fbc:	14080103 	strne	r0, [r8], #-259	; 0xfffffefd
    3fc0:	03000001 	movweq	r0, #1
    3fc4:	01f60702 	mvnseq	r0, r2, lsl #14
    3fc8:	94050000 	strls	r0, [r5], #-0
    3fcc:	05000000 	streq	r0, [r0, #-0]
    3fd0:	006e1934 	rsbeq	r1, lr, r4, lsr r9
    3fd4:	04030000 	streq	r0, [r3], #-0
    3fd8:	0001ba07 	andeq	fp, r1, r7, lsl #20
    3fdc:	07080300 	streq	r0, [r8, -r0, lsl #6]
    3fe0:	000001b5 			; <UNDEFINED> instruction: 0x000001b5
    3fe4:	1d080103 	stfnes	f0, [r8, #-12]
    3fe8:	06000001 	streq	r0, [r0], -r1
    3fec:	00540107 	subseq	r0, r4, r7, lsl #2
    3ff0:	0c040000 	stceq	0, cr0, [r4], {-0}
    3ff4:	0000c20e 	andeq	ip, r0, lr, lsl #4
    3ff8:	0ce20700 	stcleq	7, cr0, [r2]
    3ffc:	07000000 	streq	r0, [r0, -r0]
    4000:	00000bb2 			; <UNDEFINED> instruction: 0x00000bb2
    4004:	0bee0701 	bleq	ffb85c10 <__bss_end__+0xffb7b0b8>
    4008:	07040000 	streq	r0, [r4, -r0]
    400c:	00000bfd 	strdeq	r0, [r0], -sp
    4010:	0c0c0705 	stceq	7, cr0, [ip], {5}
    4014:	07060000 	streq	r0, [r6, -r0]
    4018:	00000c1b 	andeq	r0, r0, fp, lsl ip
    401c:	0c7a0707 	ldcleq	7, cr0, [sl], #-28	; 0xffffffe4
    4020:	07030000 	streq	r0, [r3, -r0]
    4024:	00000c2a 	andeq	r0, r0, sl, lsr #24
    4028:	99080002 	stmdbls	r8, {r1}
    402c:	2c00000c 	stccs	0, cr0, [r0], {12}
    4030:	5e080602 	cfmadd32pl	mvax0, mvfx0, mvfx8, mvfx2
    4034:	09000001 	stmdbeq	r0, {r0}
    4038:	02006f69 	andeq	r6, r0, #420	; 0x1a4
    403c:	00330909 	eorseq	r0, r3, r9, lsl #18
    4040:	09000000 	stmdbeq	r0, {}	; <UNPREDICTABLE>
    4044:	00726569 	rsbseq	r6, r2, r9, ror #10
    4048:	33090a02 	movwcc	r0, #39426	; 0x9a02
    404c:	04000000 	streq	r0, [r0], #-0
    4050:	72696909 	rsbvc	r6, r9, #147456	; 0x24000
    4054:	09110200 	ldmdbeq	r1, {r9}
    4058:	00000033 	andeq	r0, r0, r3, lsr r0
    405c:	636c0908 	cmnvs	ip, #8, 18	; 0x20000
    4060:	13020072 	movwne	r0, #8306	; 0x2072
    4064:	00003309 	andeq	r3, r0, r9, lsl #6
    4068:	6d090c00 	stcvs	12, cr0, [r9, #-0]
    406c:	02007263 	andeq	r7, r0, #805306374	; 0x30000006
    4070:	00330914 	eorseq	r0, r3, r4, lsl r9
    4074:	09100000 	ldmdbeq	r0, {}	; <UNPREDICTABLE>
    4078:	0072736c 	rsbseq	r7, r2, ip, ror #6
    407c:	33091502 	movwcc	r1, #38146	; 0x9502
    4080:	14000000 	strne	r0, [r0], #-0
    4084:	72736d09 	rsbsvc	r6, r3, #576	; 0x240
    4088:	09160200 	ldmdbeq	r6, {r9}
    408c:	00000033 	andeq	r0, r0, r3, lsr r0
    4090:	0c910a18 	vldmiaeq	r1, {s0-s23}
    4094:	17020000 	strne	r0, [r2, -r0]
    4098:	00003309 	andeq	r3, r0, r9, lsl #6
    409c:	5a0a1c00 	bpl	28b0a4 <__bss_end__+0x28054c>
    40a0:	0200000c 	andeq	r0, r0, #12
    40a4:	0033091b 	eorseq	r0, r3, fp, lsl r9
    40a8:	0a200000 	beq	8040b0 <__bss_end__+0x7f9558>
    40ac:	00000b9f 	muleq	r0, pc, fp	; <UNPREDICTABLE>
    40b0:	33091d02 	movwcc	r1, #40194	; 0x9d02
    40b4:	24000000 	strcs	r0, [r0], #-0
    40b8:	000c3f0a 	andeq	r3, ip, sl, lsl #30
    40bc:	091e0200 	ldmdbeq	lr, {r9}
    40c0:	00000033 	andeq	r0, r0, r3, lsr r0
    40c4:	440b0028 	strmi	r0, [fp], #-40	; 0xffffffd8
    40c8:	0100000c 	tsteq	r0, ip
    40cc:	01740908 	cmneq	r4, r8, lsl #18
    40d0:	50040000 	andpl	r0, r4, r0
    40d4:	040c2021 	streq	r2, [ip], #-33	; 0xffffffdf
    40d8:	00000033 	andeq	r0, r0, r3, lsr r0
    40dc:	00016e0d 	andeq	r6, r1, sp, lsl #28
    40e0:	0bd80b00 	bleq	ff606ce8 <__bss_end__+0xff5fc190>
    40e4:	29010000 	stmdbcs	r1, {}	; <UNPREDICTABLE>
    40e8:	00018f23 	andeq	r8, r1, r3, lsr #30
    40ec:	21504000 	cmpcs	r0, r0
    40f0:	c2040c20 	andgt	r0, r4, #32, 24	; 0x2000
    40f4:	0d000000 	stceq	0, cr0, [r0, #-0]
    40f8:	00000189 	andeq	r0, r0, r9, lsl #3
    40fc:	000b120e 	andeq	r1, fp, lr, lsl #4
    4100:	06cc0100 	strbeq	r0, [ip], r0, lsl #2
    4104:	000093e4 	andeq	r9, r0, r4, ror #7
    4108:	00000014 	andeq	r0, r0, r4, lsl r0
    410c:	01b49c01 			; <UNDEFINED> instruction: 0x01b49c01
    4110:	ec0f0000 	stc	0, cr0, [pc], {-0}
    4114:	b4000093 	strlt	r0, [r0], #-147	; 0xffffff6d
    4118:	00000001 	andeq	r0, r0, r1
    411c:	000bdd10 	andeq	sp, fp, r0, lsl sp
    4120:	05b60100 	ldreq	r0, [r6, #256]!	; 0x100
    4124:	00000025 	andeq	r0, r0, r5, lsr #32
    4128:	000093c4 	andeq	r9, r0, r4, asr #7
    412c:	00000020 	andeq	r0, r0, r0, lsr #32
    4130:	01eb9c01 	mvneq	r9, r1, lsl #24
    4134:	cc0f0000 	stcgt	0, cr0, [pc], {-0}
    4138:	a0000093 	mulge	r0, r3, r0
    413c:	11000005 	tstne	r0, r5
    4140:	000093d4 	ldrdeq	r9, [r0], -r4
    4144:	000005ac 	andeq	r0, r0, ip, lsr #11
    4148:	05500112 	ldrbeq	r0, [r0, #-274]	; 0xfffffeee
    414c:	2150640c 	cmpcs	r0, ip, lsl #8
    4150:	10000020 	andne	r0, r0, r0, lsr #32
    4154:	00000c6c 	andeq	r0, r0, ip, ror #24
    4158:	2505b301 	strcs	fp, [r5, #-769]	; 0xfffffcff
    415c:	b4000000 	strlt	r0, [r0], #-0
    4160:	10000093 	mulne	r0, r3, r0
    4164:	01000000 	mrseq	r0, (UNDEF: 0)
    4168:	0002189c 	muleq	r2, ip, r8
    416c:	93bc0f00 			; <UNDEFINED> instruction: 0x93bc0f00
    4170:	05a00000 	streq	r0, [r0, #0]!
    4174:	c00f0000 	andgt	r0, pc, r0
    4178:	09000093 	stmdbeq	r0, {r0, r1, r4, r7}
    417c:	00000003 	andeq	r0, r0, r3
    4180:	0009020e 	andeq	r0, r9, lr, lsl #4
    4184:	06ab0100 	strteq	r0, [fp], r0, lsl #2
    4188:	00009384 	andeq	r9, r0, r4, lsl #7
    418c:	00000030 	andeq	r0, r0, r0, lsr r0
    4190:	027c9c01 	rsbseq	r9, ip, #256	; 0x100
    4194:	63130000 	tstvs	r3, #0
    4198:	19ab0100 	stmibne	fp!, {r8}
    419c:	0000002c 	andeq	r0, r0, ip, lsr #32
    41a0:	000015f3 	strdeq	r1, [r0], -r3
    41a4:	000015ef 	andeq	r1, r0, pc, ror #11
    41a8:	0093900f 	addseq	r9, r3, pc
    41ac:	0005a000 	andeq	sl, r5, r0
    41b0:	93940f00 	orrsls	r0, r4, #0, 30
    41b4:	02db0000 	sbcseq	r0, fp, #0
    41b8:	a8140000 	ldmdage	r4, {}	; <UNPREDICTABLE>
    41bc:	b8000093 	stmdalt	r0, {r0, r1, r4, r7}
    41c0:	72000005 	andvc	r0, r0, #5
    41c4:	12000002 	andne	r0, r0, #2
    41c8:	0c055001 	stceq	0, cr5, [r5], {1}
    41cc:	20215040 	eorcs	r5, r1, r0, asr #32
    41d0:	05510112 	ldrbeq	r0, [r1, #-274]	; 0xfffffeee
    41d4:	ff080074 			; <UNDEFINED> instruction: 0xff080074
    41d8:	ac0f001a 	stcge	0, cr0, [pc], {26}
    41dc:	a0000093 	mulge	r0, r3, r0
    41e0:	00000005 	andeq	r0, r0, r5
    41e4:	000c5010 	andeq	r5, ip, r0, lsl r0
    41e8:	05a30100 	streq	r0, [r3, #256]!	; 0x100
    41ec:	00000025 	andeq	r0, r0, r5, lsr #32
    41f0:	00009354 	andeq	r9, r0, r4, asr r3
    41f4:	00000030 	andeq	r0, r0, r0, lsr r0
    41f8:	02db9c01 	sbcseq	r9, fp, #256	; 0x100
    41fc:	63150000 	tstvs	r5, #0
    4200:	09a70100 	stmibeq	r7!, {r8}
    4204:	00000025 	andeq	r0, r0, r5, lsr #32
    4208:	00001613 	andeq	r1, r0, r3, lsl r6
    420c:	00001611 	andeq	r1, r0, r1, lsl r6
    4210:	00935c0f 	addseq	r5, r3, pc, lsl #24
    4214:	0005a000 	andeq	sl, r5, r0
    4218:	93600f00 	cmnls	r0, #0, 30
    421c:	03090000 	movweq	r0, #36864	; 0x9000
    4220:	70140000 	andsvc	r0, r4, r0
    4224:	ac000093 	stcge	0, cr0, [r0], {147}	; 0x93
    4228:	d1000005 	tstle	r0, r5
    422c:	12000002 	andne	r0, r0, #2
    4230:	0c055001 	stceq	0, cr5, [r5], {1}
    4234:	20215040 	eorcs	r5, r1, r0, asr #32
    4238:	93780f00 	cmnls	r8, #0, 30
    423c:	05a00000 	streq	r0, [r0, #0]!
    4240:	10000000 	andne	r0, r0, r0
    4244:	00000bca 	andeq	r0, r0, sl, asr #23
    4248:	25059401 	strcs	r9, [r5, #-1025]	; 0xfffffbff
    424c:	34000000 	strcc	r0, [r0], #-0
    4250:	20000093 	mulcs	r0, r3, r0
    4254:	01000000 	mrseq	r0, (UNDEF: 0)
    4258:	0003099c 	muleq	r3, ip, r9
    425c:	93401100 	movtls	r1, #256	; 0x100
    4260:	05ac0000 	streq	r0, [ip, #0]!
    4264:	01120000 	tsteq	r2, r0
    4268:	640c0550 	strvs	r0, [ip], #-1360	; 0xfffffab0
    426c:	00202150 	eoreq	r2, r0, r0, asr r1
    4270:	0ba41000 	bleq	fe908278 <__bss_end__+0xfe8fd720>
    4274:	8b010000 	blhi	4427c <__bss_end__+0x39724>
    4278:	00002505 	andeq	r2, r0, r5, lsl #10
    427c:	00931c00 	addseq	r1, r3, r0, lsl #24
    4280:	00001800 	andeq	r1, r0, r0, lsl #16
    4284:	379c0100 	ldrcc	r0, [ip, r0, lsl #2]
    4288:	11000003 	tstne	r0, r3
    428c:	00009328 	andeq	r9, r0, r8, lsr #6
    4290:	000005ac 	andeq	r0, r0, ip, lsr #11
    4294:	05500112 	ldrbeq	r0, [r0, #-274]	; 0xfffffeee
    4298:	2150640c 	cmpcs	r0, ip, lsl #8
    429c:	0e000020 	cdpeq	0, 0, cr0, cr0, cr0, {1}
    42a0:	00000a7b 	andeq	r0, r0, fp, ror sl
    42a4:	6c064501 	cfstr32vs	mvfx4, [r6], {1}
    42a8:	b0000092 	mullt	r0, r2, r0
    42ac:	01000000 	mrseq	r0, (UNDEF: 0)
    42b0:	0004849c 	muleq	r4, ip, r4
    42b4:	0b961600 	bleq	fe589abc <__bss_end__+0xfe57ef64>
    42b8:	7e010000 	cdpvc	0, 0, cr0, cr1, cr0, {0}
    42bc:	0000620e 	andeq	r6, r0, lr, lsl #4
    42c0:	14010e00 	strne	r0, [r1], #-3584	; 0xfffff200
    42c4:	0000927c 	andeq	r9, r0, ip, ror r2
    42c8:	000005c4 	andeq	r0, r0, r4, asr #11
    42cc:	00000373 	andeq	r0, r0, r3, ror r3
    42d0:	01500112 	cmpeq	r0, r2, lsl r1
    42d4:	5101123e 	tstpl	r1, lr, lsr r2
    42d8:	14003201 	strne	r3, [r0], #-513	; 0xfffffdff
    42dc:	00009288 	andeq	r9, r0, r8, lsl #5
    42e0:	000005c4 	andeq	r0, r0, r4, asr #11
    42e4:	0000038b 	andeq	r0, r0, fp, lsl #7
    42e8:	01500112 	cmpeq	r0, r2, lsl r1
    42ec:	5101123f 	tstpl	r1, pc, lsr r2
    42f0:	0f003201 	svceq	0x00003201
    42f4:	0000928c 	andeq	r9, r0, ip, lsl #5
    42f8:	000005a0 	andeq	r0, r0, r0, lsr #11
    42fc:	00929814 	addseq	r9, r2, r4, lsl r8
    4300:	00053d00 	andeq	r3, r5, r0, lsl #26
    4304:	0003b000 	andeq	fp, r3, r0
    4308:	50011200 	andpl	r1, r1, r0, lsl #4
    430c:	50040c05 	andpl	r0, r4, r5, lsl #24
    4310:	01122021 	tsteq	r2, r1, lsr #32
    4314:	00310151 	eorseq	r0, r1, r1, asr r1
    4318:	00929c0f 	addseq	r9, r2, pc, lsl #24
    431c:	0005a000 	andeq	sl, r5, r0
    4320:	92ac1400 	adcls	r1, ip, #0, 8
    4324:	05b80000 	ldreq	r0, [r8, #0]!
    4328:	03d20000 	bicseq	r0, r2, #0
    432c:	01120000 	tsteq	r2, r0
    4330:	00740250 	rsbseq	r0, r4, r0, asr r2
    4334:	01510112 	cmpeq	r1, r2, lsl r1
    4338:	b8140030 	ldmdalt	r4, {r4, r5}
    433c:	b8000092 	stmdalt	r0, {r1, r4, r7}
    4340:	ee000005 	cdp	0, 0, cr0, cr0, cr5, {0}
    4344:	12000003 	andne	r0, r0, #3
    4348:	0c055001 	stceq	0, cr5, [r5], {1}
    434c:	20215044 	eorcs	r5, r1, r4, asr #32
    4350:	01510112 	cmpeq	r1, r2, lsl r1
    4354:	c4140030 	ldrgt	r0, [r4], #-48	; 0xffffffd0
    4358:	b8000092 	stmdalt	r0, {r1, r4, r7}
    435c:	0a000005 	beq	4378 <__code_start__-0x3c88>
    4360:	12000004 	andne	r0, r0, #4
    4364:	0c055001 	stceq	0, cr5, [r5], {1}
    4368:	2021504c 	eorcs	r5, r1, ip, asr #32
    436c:	01510112 	cmpeq	r1, r2, lsl r1
    4370:	d0140033 	andsle	r0, r4, r3, lsr r0
    4374:	b8000092 	stmdalt	r0, {r1, r4, r7}
    4378:	26000005 	strcs	r0, [r0], -r5
    437c:	12000004 	andne	r0, r0, #4
    4380:	0c055001 	stceq	0, cr5, [r5], {1}
    4384:	20215050 	eorcs	r5, r1, r0, asr r0
    4388:	01510112 	cmpeq	r1, r2, lsl r1
    438c:	dc140030 	ldcle	0, cr0, [r4], {48}	; 0x30
    4390:	b8000092 	stmdalt	r0, {r1, r4, r7}
    4394:	43000005 	movwmi	r0, #5
    4398:	12000004 	andne	r0, r0, #4
    439c:	0c055001 	stceq	0, cr5, [r5], {1}
    43a0:	20215048 	eorcs	r5, r1, r8, asr #32
    43a4:	02510112 	subseq	r0, r1, #-2147483644	; 0x80000004
    43a8:	1400c708 	strne	ip, [r0], #-1800	; 0xfffff8f8
    43ac:	000092e8 	andeq	r9, r0, r8, ror #5
    43b0:	000005b8 			; <UNDEFINED> instruction: 0x000005b8
    43b4:	00000461 	andeq	r0, r0, r1, ror #8
    43b8:	05500112 	ldrbeq	r0, [r0, #-274]	; 0xfffffeee
    43bc:	2150680c 	cmpcs	r0, ip, lsl #16
    43c0:	51011220 	tstpl	r1, r0, lsr #4
    43c4:	010e0a03 	tsteq	lr, r3, lsl #20
    43c8:	92f41400 	rscsls	r1, r4, #0, 8
    43cc:	05b80000 	ldreq	r0, [r8, #0]!
    43d0:	047a0000 	ldrbteq	r0, [sl], #-0
    43d4:	01120000 	tsteq	r2, r0
    43d8:	00740250 	rsbseq	r0, r4, r0, asr r2
    43dc:	01510112 	cmpeq	r1, r2, lsl r1
    43e0:	f80f0033 			; <UNDEFINED> instruction: 0xf80f0033
    43e4:	a0000092 	mulge	r0, r2, r0
    43e8:	00000005 	andeq	r0, r0, r5
    43ec:	000c5f0e 	andeq	r5, ip, lr, lsl #30
    43f0:	06350100 	ldrteq	r0, [r5], -r0, lsl #2
    43f4:	000093f8 	strdeq	r9, [r0], -r8
    43f8:	00000024 	andeq	r0, r0, r4, lsr #32
    43fc:	04d39c01 	ldrbeq	r9, [r3], #3073	; 0xc01
    4400:	000f0000 	andeq	r0, pc, r0
    4404:	94000094 	strls	r0, [r0], #-148	; 0xffffff6c
    4408:	0f000001 	svceq	0x00000001
    440c:	00009404 	andeq	r9, r0, r4, lsl #8
    4410:	000005a0 	andeq	r0, r0, r0, lsr #11
    4414:	00941014 	addseq	r1, r4, r4, lsl r0
    4418:	0004d300 	andeq	sp, r4, r0, lsl #6
    441c:	0004c900 	andeq	ip, r4, r0, lsl #18
    4420:	50011200 	andpl	r1, r1, r0, lsl #4
    4424:	50040c05 	andpl	r0, r4, r5, lsl #24
    4428:	01122021 	tsteq	r2, r1, lsr #32
    442c:	fe090251 	mcr2	2, 0, r0, cr9, cr1, {2}
    4430:	94140f00 	ldrls	r0, [r4], #-3840	; 0xfffff100
    4434:	05a00000 	streq	r0, [r0, #0]!
    4438:	17000000 	strne	r0, [r0, -r0]
    443c:	00000cd9 	ldrdeq	r0, [r0], -r9
    4440:	2c0d3101 	stfcss	f3, [sp], {1}
    4444:	20000092 	mulcs	r0, r2, r0
    4448:	01000000 	mrseq	r0, (UNDEF: 0)
    444c:	0005369c 	muleq	r5, ip, r6
    4450:	02e01800 	rsceq	r1, r0, #0, 16
    4454:	31010000 	mrscc	r0, (UNDEF: 1)
    4458:	00053625 	andeq	r3, r5, r5, lsr #12
    445c:	00162a00 	andseq	r2, r6, r0, lsl #20
    4460:	00162600 	andseq	r2, r6, r0, lsl #12
    4464:	61761300 	cmnvs	r6, r0, lsl #6
    4468:	3101006c 	tstcc	r1, ip, rrx
    446c:	00002c34 	andeq	r2, r0, r4, lsr ip
    4470:	00164c00 	andseq	r4, r6, r0, lsl #24
    4474:	00164800 	andseq	r4, r6, r0, lsl #16
    4478:	923c1400 	eorsls	r1, ip, #0, 8
    447c:	05ac0000 	streq	r0, [ip, #0]!
    4480:	05250000 	streq	r0, [r5, #-0]!
    4484:	01120000 	tsteq	r2, r0
    4488:	00740250 	rsbseq	r0, r4, r0, asr r2
    448c:	92481100 	subls	r1, r8, #0, 2
    4490:	05b80000 	ldreq	r0, [r8, #0]!
    4494:	01120000 	tsteq	r2, r0
    4498:	00740250 	rsbseq	r0, r4, r0, asr r2
    449c:	040c0000 	streq	r0, [ip], #-0
    44a0:	0000053c 	andeq	r0, r0, ip, lsr r5
    44a4:	0c891719 	stceq	7, cr1, [r9], {25}
    44a8:	2e010000 	cdpcs	0, 0, cr0, cr1, cr0, {0}
    44ac:	00924c0d 	addseq	r4, r2, sp, lsl #24
    44b0:	00002000 	andeq	r2, r0, r0
    44b4:	a09c0100 	addsge	r0, ip, r0, lsl #2
    44b8:	18000005 	stmdane	r0, {r0, r2}
    44bc:	000002e0 	andeq	r0, r0, r0, ror #5
    44c0:	36242e01 	strtcc	r2, [r4], -r1, lsl #28
    44c4:	6e000005 	cdpvs	0, 0, cr0, cr0, cr5, {0}
    44c8:	6a000016 	bvs	4528 <__code_start__-0x3ad8>
    44cc:	13000016 	movwne	r0, #22
    44d0:	006c6176 	rsbeq	r6, ip, r6, ror r1
    44d4:	2c332e01 	ldccs	14, cr2, [r3], #-4
    44d8:	90000000 	andls	r0, r0, r0
    44dc:	8c000016 	stchi	0, cr0, [r0], {22}
    44e0:	14000016 	strne	r0, [r0], #-22	; 0xffffffea
    44e4:	0000925c 	andeq	r9, r0, ip, asr r2
    44e8:	000005ac 	andeq	r0, r0, ip, lsr #11
    44ec:	0000058f 	andeq	r0, r0, pc, lsl #11
    44f0:	02500112 	subseq	r0, r0, #-2147483644	; 0x80000004
    44f4:	11000074 	tstne	r0, r4, ror r0
    44f8:	00009268 	andeq	r9, r0, r8, ror #4
    44fc:	000005b8 			; <UNDEFINED> instruction: 0x000005b8
    4500:	02500112 	subseq	r0, r0, #-2147483644	; 0x80000004
    4504:	00000074 	andeq	r0, r0, r4, ror r0
    4508:	000b3b1a 	andeq	r3, fp, sl, lsl fp
    450c:	000b3b00 	andeq	r3, fp, r0, lsl #22
    4510:	069c0300 	ldreq	r0, [ip], r0, lsl #6
    4514:	000d041a 	andeq	r0, sp, sl, lsl r4
    4518:	000d0400 	andeq	r0, sp, r0, lsl #8
    451c:	0bc30300 	bleq	ff0c5124 <__bss_end__+0xff0ba5cc>
    4520:	000c391a 	andeq	r3, ip, sl, lsl r9
    4524:	000c3900 	andeq	r3, ip, r0, lsl #18
    4528:	06ae0300 	strteq	r0, [lr], r0, lsl #6
    452c:	000cf21a 	andeq	pc, ip, sl, lsl r2	; <UNPREDICTABLE>
    4530:	000cf200 	andeq	pc, ip, r0, lsl #4
    4534:	06190400 	ldreq	r0, [r9], -r0, lsl #8
    4538:	000a3500 	andeq	r3, sl, r0, lsl #10
    453c:	34000400 	strcc	r0, [r0], #-1024	; 0xfffffc00
    4540:	04000018 	streq	r0, [r0], #-24	; 0xffffffe8
    4544:	00012201 	andeq	r2, r1, r1, lsl #4
    4548:	0d1b0c00 	ldceq	12, cr0, [fp, #-0]
    454c:	082c0000 	stmdaeq	ip!, {}	; <UNPREDICTABLE>
    4550:	941c0000 	ldrls	r0, [ip], #-0
    4554:	07280000 	streq	r0, [r8, -r0]!
    4558:	1fc70000 	svcne	0x00c70000
    455c:	04020000 	streq	r0, [r2], #-0
    4560:	746e6905 	strbtvc	r6, [lr], #-2309	; 0xfffff6fb
    4564:	07040300 	streq	r0, [r4, -r0, lsl #6]
    4568:	000001bf 			; <UNDEFINED> instruction: 0x000001bf
    456c:	16060103 	strne	r0, [r6], -r3, lsl #2
    4570:	03000001 	movweq	r0, #1
    4574:	003d0502 	eorseq	r0, sp, r2, lsl #10
    4578:	04030000 	streq	r0, [r3], #-0
    457c:	0000c805 	andeq	ip, r0, r5, lsl #16
    4580:	05080300 	streq	r0, [r8, #-768]	; 0xfffffd00
    4584:	000000c3 	andeq	r0, r0, r3, asr #1
    4588:	14080103 	strne	r0, [r8], #-259	; 0xfffffefd
    458c:	03000001 	movweq	r0, #1
    4590:	01f60702 	mvnseq	r0, r2, lsl #14
    4594:	94040000 	strls	r0, [r4], #-0
    4598:	02000000 	andeq	r0, r0, #0
    459c:	00691934 	rsbeq	r1, r9, r4, lsr r9
    45a0:	04030000 	streq	r0, [r3], #-0
    45a4:	0001ba07 	andeq	fp, r1, r7, lsl #20
    45a8:	0d120400 	cfldrseq	mvf0, [r2, #-0]
    45ac:	37020000 	strcc	r0, [r2, -r0]
    45b0:	00007c19 	andeq	r7, r0, r9, lsl ip
    45b4:	07080300 	streq	r0, [r8, -r0, lsl #6]
    45b8:	000001b5 			; <UNDEFINED> instruction: 0x000001b5
    45bc:	00002505 	andeq	r2, r0, r5, lsl #10
    45c0:	00009200 	andeq	r9, r0, r0, lsl #4
    45c4:	00250600 	eoreq	r0, r5, r0, lsl #12
    45c8:	07000000 	streq	r0, [r0, -r0]
    45cc:	000004fd 	strdeq	r0, [r0], -sp
    45d0:	9e0e1c03 	cdpls	12, 0, cr1, cr14, cr3, {0}
    45d4:	08000000 	stmdaeq	r0, {}	; <UNPREDICTABLE>
    45d8:	00008304 	andeq	r8, r0, r4, lsl #6
    45dc:	00250500 	eoreq	r0, r5, r0, lsl #10
    45e0:	00b30000 	adcseq	r0, r3, r0
    45e4:	b3060000 	movwlt	r0, #24576	; 0x6000
    45e8:	00000000 	andeq	r0, r0, r0
    45ec:	00c00408 	sbceq	r0, r0, r8, lsl #8
    45f0:	01030000 	mrseq	r0, (UNDEF: 3)
    45f4:	00011d08 	andeq	r1, r1, r8, lsl #26
    45f8:	00b90900 	adcseq	r0, r9, r0, lsl #18
    45fc:	c0070000 	andgt	r0, r7, r0
    4600:	03000008 	movweq	r0, #8
    4604:	00d10e21 	sbcseq	r0, r1, r1, lsr #28
    4608:	04080000 	streq	r0, [r8], #-0
    460c:	000000a4 	andeq	r0, r0, r4, lsr #1
    4610:	00085204 	andeq	r5, r8, r4, lsl #4
    4614:	1b280400 	blne	a0561c <__bss_end__+0x9faac4>
    4618:	000000e3 	andeq	r0, r0, r3, ror #1
    461c:	0008760a 	andeq	r7, r8, sl, lsl #12
    4620:	00050400 	andeq	r0, r5, r0, lsl #8
    4624:	000000fa 	strdeq	r0, [r0], -sl
    4628:	0008610b 	andeq	r6, r8, fp, lsl #2
    462c:	0000fa00 	andeq	pc, r0, r0, lsl #20
    4630:	0c000000 	stceq	0, cr0, [r0], {-0}
    4634:	08780404 	ldmdaeq	r8!, {r2, sl}^
    4638:	63040000 	movwvs	r0, #16384	; 0x4000
    463c:	0000d718 	andeq	sp, r0, r8, lsl r7
    4640:	08220d00 	stmdaeq	r2!, {r8, sl, fp}
    4644:	81010000 	mrshi	r0, (UNDEF: 1)
    4648:	00002505 	andeq	r2, r0, r5, lsl #10
    464c:	0096ac00 	addseq	sl, r6, r0, lsl #24
    4650:	00049800 	andeq	r9, r4, r0, lsl #16
    4654:	759c0100 	ldrvc	r0, [ip, #256]	; 0x100
    4658:	0e000006 	cdpeq	0, 0, cr0, cr0, cr6, {0}
    465c:	00667562 	rsbeq	r7, r6, r2, ror #10
    4660:	75158101 	ldrvc	r8, [r5, #-257]	; 0xfffffeff
    4664:	b4000006 	strlt	r0, [r0], #-6
    4668:	ae000016 	mcrge	0, 0, r0, cr0, cr6, {0}
    466c:	0e000016 	mcreq	0, 0, r0, cr0, cr6, {0}
    4670:	8101006e 	tsthi	r1, lr, rrx
    4674:	0000251e 	andeq	r2, r0, lr, lsl r5
    4678:	0016e600 	andseq	lr, r6, r0, lsl #12
    467c:	0016e000 	andseq	lr, r6, r0
    4680:	6d660e00 	stclvs	14, cr0, [r6, #-0]
    4684:	81010074 	tsthi	r1, r4, ror r0
    4688:	0000b32d 	andeq	fp, r0, sp, lsr #6
    468c:	00172000 	andseq	r2, r7, r0
    4690:	00171400 	andseq	r1, r7, r0, lsl #8
    4694:	081d0f00 	ldmdaeq	sp, {r8, r9, sl, fp}
    4698:	81010000 	mrshi	r0, (UNDEF: 1)
    469c:	0000fc3a 	andeq	pc, r0, sl, lsr ip	; <UNPREDICTABLE>
    46a0:	d4910300 	ldrle	r0, [r1], #768	; 0x300
    46a4:	0070107d 	rsbseq	r1, r0, sp, ror r0
    46a8:	75088201 	strvc	r8, [r8, #-513]	; 0xfffffdff
    46ac:	7e000006 	cdpvc	0, 0, cr0, cr0, cr6, {0}
    46b0:	6a000017 	bvs	4714 <__code_start__-0x38ec>
    46b4:	10000017 	andne	r0, r0, r7, lsl r0
    46b8:	82010065 	andhi	r0, r1, #101	; 0x65
    46bc:	00067512 	andeq	r7, r6, r2, lsl r5
    46c0:	00180000 	andseq	r0, r8, r0
    46c4:	0017fc00 	andseq	pc, r7, r0, lsl #24
    46c8:	30781000 	rsbscc	r1, r8, r0
    46cc:	0e830100 	rmfeqs	f0, f3, f0
    46d0:	0000005d 	andeq	r0, r0, sp, asr r0
    46d4:	0000182d 	andeq	r1, r0, sp, lsr #16
    46d8:	00001827 	andeq	r1, r0, r7, lsr #16
    46dc:	00317811 	eorseq	r7, r1, r1, lsl r8
    46e0:	5d118301 	ldcpl	3, cr8, [r1, #-4]
    46e4:	12000000 	andne	r0, r0, #0
    46e8:	00000d4b 	andeq	r0, r0, fp, asr #26
    46ec:	b3118601 	tstlt	r1, #1048576	; 0x100000
    46f0:	5a000000 	bpl	46f8 <__code_start__-0x3908>
    46f4:	56000018 			; <UNDEFINED> instruction: 0x56000018
    46f8:	13000018 	movwne	r0, #24
    46fc:	000000d6 	ldrdeq	r0, [r0], -r6
    4700:	0000068b 	andeq	r0, r0, fp, lsl #13
    4704:	a6900305 	ldrge	r0, [r0], r5, lsl #6
    4708:	18140000 	ldmdane	r4, {}	; <UNPREDICTABLE>
    470c:	e4000097 	str	r0, [r0], #-151	; 0xffffff69
    4710:	10000003 	andne	r0, r0, r3
    4714:	91010073 	tstls	r1, r3, ror r0
    4718:	0006750a 	andeq	r7, r6, sl, lsl #10
    471c:	00189000 	andseq	r9, r8, r0
    4720:	00187a00 	andseq	r7, r8, r0, lsl #20
    4724:	756e1500 	strbvc	r1, [lr, #-1280]!	; 0xfffffb00
    4728:	9101006d 	tstls	r1, sp, rrx
    472c:	0006900d 	andeq	r9, r6, sp
    4730:	d8910300 	ldmle	r1, {r8, r9}
    4734:	0d7e167d 	ldcleq	6, cr1, [lr, #-500]!	; 0xfffffe0c
    4738:	91010000 	mrsls	r0, (UNDEF: 1)
    473c:	00069017 	andeq	r9, r6, r7, lsl r0
    4740:	d8910300 	ldmle	r1, {r8, r9}
    4744:	0d2e127e 	sfmeq	f1, 4, [lr, #-504]!	; 0xfffffe08
    4748:	92010000 	andls	r0, r1, #0
    474c:	00002c0d 	andeq	r2, r0, sp, lsl #24
    4750:	00191700 	andseq	r1, r9, r0, lsl #14
    4754:	00191100 	andseq	r1, r9, r0, lsl #2
    4758:	97dc1700 	ldrbls	r1, [ip, r0, lsl #14]
    475c:	018c0000 	orreq	r0, ip, r0
    4760:	04970000 	ldreq	r0, [r7], #0
    4764:	74100000 	ldrvc	r0, [r0], #-0
    4768:	9e010079 	mcrls	0, 0, r0, cr1, cr9, {3}
    476c:	0000b31d 	andeq	fp, r0, sp, lsl r3
    4770:	00194b00 	andseq	r4, r9, r0, lsl #22
    4774:	00194100 	andseq	r4, r9, r0, lsl #2
    4778:	78781100 	ldmdavc	r8!, {r8, ip}^
    477c:	1aa20100 	bne	fe884b84 <__bss_end__+0xfe87a02c>
    4780:	00000070 	andeq	r0, r0, r0, ror r0
    4784:	0097ec18 	addseq	lr, r7, r8, lsl ip
    4788:	0009f000 	andeq	pc, r9, r0
    478c:	00026d00 	andeq	r6, r2, r0, lsl #26
    4790:	50011900 	andpl	r1, r1, r0, lsl #18
    4794:	19007602 	stmdbne	r0, {r1, r9, sl, ip, sp, lr}
    4798:	03055101 	movweq	r5, #20737	; 0x5101
    479c:	0000a594 	muleq	r0, r4, r5
    47a0:	01520119 	cmpeq	r2, r9, lsl r1
    47a4:	04180033 	ldreq	r0, [r8], #-51	; 0xffffffcd
    47a8:	f0000098 			; <UNDEFINED> instruction: 0xf0000098
    47ac:	8f000009 	svchi	0x00000009
    47b0:	19000002 	stmdbne	r0, {r1}
    47b4:	76025001 	strvc	r5, [r2], -r1
    47b8:	51011900 	tstpl	r1, r0, lsl #18
    47bc:	a5980305 	ldrge	r0, [r8, #773]	; 0x305
    47c0:	01190000 	tsteq	r9, r0
    47c4:	00330152 	eorseq	r0, r3, r2, asr r1
    47c8:	00983c18 	addseq	r3, r8, r8, lsl ip
    47cc:	0009f000 	andeq	pc, r9, r0
    47d0:	0002b100 	andeq	fp, r2, r0, lsl #2
    47d4:	50011900 	andpl	r1, r1, r0, lsl #18
    47d8:	19007602 	stmdbne	r0, {r1, r9, sl, ip, sp, lr}
    47dc:	03055101 	movweq	r5, #20737	; 0x5101
    47e0:	0000a594 	muleq	r0, r4, r5
    47e4:	01520119 	cmpeq	r2, r9, lsl r1
    47e8:	54180033 	ldrpl	r0, [r8], #-51	; 0xffffffcd
    47ec:	f0000098 			; <UNDEFINED> instruction: 0xf0000098
    47f0:	d3000009 	movwle	r0, #9
    47f4:	19000002 	stmdbne	r0, {r1}
    47f8:	76025001 	strvc	r5, [r2], -r1
    47fc:	51011900 	tstpl	r1, r0, lsl #18
    4800:	a5980305 	ldrge	r0, [r8, #773]	; 0x305
    4804:	01190000 	tsteq	r9, r0
    4808:	00330152 	eorseq	r0, r3, r2, asr r1
    480c:	00987c18 	addseq	r7, r8, r8, lsl ip
    4810:	0006a000 	andeq	sl, r6, r0
    4814:	00030700 	andeq	r0, r3, r0, lsl #14
    4818:	50011900 	andpl	r1, r1, r0, lsl #18
    481c:	01193a01 	tsteq	r9, r1, lsl #20
    4820:	d0910351 	addsle	r0, r1, r1, asr r3
    4824:	5201197d 	andpl	r1, r1, #2048000	; 0x1f4000
    4828:	19800802 	stmibne	r0, {r1, fp}
    482c:	77025301 	strvc	r5, [r2, -r1, lsl #6]
    4830:	7d021900 	vstrvc.16	s2, [r2, #-0]	; <UNPREDICTABLE>
    4834:	00750200 	rsbseq	r0, r5, r0, lsl #4
    4838:	047d0219 	ldrbteq	r0, [sp], #-537	; 0xfffffde7
    483c:	00007602 	andeq	r7, r0, r2, lsl #12
    4840:	00989c18 	addseq	r9, r8, r8, lsl ip
    4844:	0006a000 	andeq	sl, r6, r0
    4848:	00033b00 	andeq	r3, r3, r0, lsl #22
    484c:	50011900 	andpl	r1, r1, r0, lsl #18
    4850:	01193a01 	tsteq	r9, r1, lsl #20
    4854:	d0910351 	addsle	r0, r1, r1, asr r3
    4858:	5201197e 	andpl	r1, r1, #2064384	; 0x1f8000
    485c:	19800802 	stmibne	r0, {r1, fp}
    4860:	7a025301 	bvc	9946c <__bss_end__+0x8e914>
    4864:	7d021900 	vstrvc.16	s2, [r2, #-0]	; <UNPREDICTABLE>
    4868:	00750200 	rsbseq	r0, r5, r0, lsl #4
    486c:	047d0219 	ldrbteq	r0, [sp], #-537	; 0xfffffde7
    4870:	00007602 	andeq	r7, r0, r2, lsl #12
    4874:	0098a818 	addseq	sl, r8, r8, lsl r8
    4878:	0009fc00 	andeq	pc, r9, r0, lsl #24
    487c:	00035900 	andeq	r5, r3, r0, lsl #18
    4880:	50011900 	andpl	r1, r1, r0, lsl #18
    4884:	7dd09103 	ldfvcp	f1, [r0, #12]
    4888:	05510119 	ldrbeq	r0, [r1, #-281]	; 0xfffffee7
    488c:	00a55803 	adceq	r5, r5, r3, lsl #16
    4890:	bc180000 	ldclt	0, cr0, [r8], {-0}
    4894:	08000098 	stmdaeq	r0, {r3, r4, r7}
    4898:	7500000a 	strvc	r0, [r0, #-10]
    489c:	19000003 	stmdbne	r0, {r0, r1}
    48a0:	91035001 	tstls	r3, r1
    48a4:	01197dd0 			; <UNDEFINED> instruction: 0x01197dd0
    48a8:	d0910351 	addsle	r0, r1, r1, asr r3
    48ac:	e018007e 	ands	r0, r8, lr, ror r0
    48b0:	14000098 	strne	r0, [r0], #-152	; 0xffffff68
    48b4:	ae00000a 	cdpge	0, 0, cr0, cr0, cr10, {0}
    48b8:	19000003 	stmdbne	r0, {r0, r1}
    48bc:	03055001 	movweq	r5, #20481	; 0x5001
    48c0:	00009d18 	andeq	r9, r0, r8, lsl sp
    48c4:	05510119 	ldrbeq	r0, [r1, #-281]	; 0xfffffee7
    48c8:	00a54403 	adceq	r4, r5, r3, lsl #8
    48cc:	52011900 	andpl	r1, r1, #0, 18
    48d0:	a6900305 	ldrge	r0, [r0], r5, lsl #6
    48d4:	01190000 	tsteq	r9, r0
    48d8:	9f080253 	svcls	0x00080253
    48dc:	007d0219 	rsbseq	r0, sp, r9, lsl r2
    48e0:	a59c0305 	ldrge	r0, [ip, #773]	; 0x305
    48e4:	1a000000 	bne	48ec <__code_start__-0x3714>
    48e8:	000098e4 	andeq	r9, r0, r4, ror #17
    48ec:	00000a20 	andeq	r0, r0, r0, lsr #20
    48f0:	00990418 	addseq	r0, r9, r8, lsl r4
    48f4:	0006a000 	andeq	sl, r6, r0
    48f8:	0003eb00 	andeq	lr, r3, r0, lsl #22
    48fc:	50011900 	andpl	r1, r1, r0, lsl #18
    4900:	01194001 	tsteq	r9, r1
    4904:	d0910351 	addsle	r0, r1, r1, asr r3
    4908:	5201197d 	andpl	r1, r1, #2048000	; 0x1f4000
    490c:	19800802 	stmibne	r0, {r1, fp}
    4910:	77025301 	strvc	r5, [r2, -r1, lsl #6]
    4914:	7d021900 	vstrvc.16	s2, [r2, #-0]	; <UNPREDICTABLE>
    4918:	00750200 	rsbseq	r0, r5, r0, lsl #4
    491c:	047d0219 	ldrbteq	r0, [sp], #-537	; 0xfffffde7
    4920:	00007602 	andeq	r7, r0, r2, lsl #12
    4924:	00992418 	addseq	r2, r9, r8, lsl r4
    4928:	0006a000 	andeq	sl, r6, r0
    492c:	00041f00 	andeq	r1, r4, r0, lsl #30
    4930:	50011900 	andpl	r1, r1, r0, lsl #18
    4934:	01194001 	tsteq	r9, r1
    4938:	d0910351 	addsle	r0, r1, r1, asr r3
    493c:	5201197e 	andpl	r1, r1, #2064384	; 0x1f8000
    4940:	19800802 	stmibne	r0, {r1, fp}
    4944:	7a025301 	bvc	99550 <__bss_end__+0x8e9f8>
    4948:	7d021900 	vstrvc.16	s2, [r2, #-0]	; <UNPREDICTABLE>
    494c:	00750200 	rsbseq	r0, r5, r0, lsl #4
    4950:	047d0219 	ldrbteq	r0, [sp], #-537	; 0xfffffde7
    4954:	00007602 	andeq	r7, r0, r2, lsl #12
    4958:	00993018 	addseq	r3, r9, r8, lsl r0
    495c:	000a2c00 	andeq	r2, sl, r0, lsl #24
    4960:	00043b00 	andeq	r3, r4, r0, lsl #22
    4964:	50011900 	andpl	r1, r1, r0, lsl #18
    4968:	7dd09103 	ldfvcp	f1, [r0, #12]
    496c:	03510119 	cmpeq	r1, #1073741830	; 0x40000006
    4970:	007ed291 			; <UNDEFINED> instruction: 0x007ed291
    4974:	00994418 	addseq	r4, r9, r8, lsl r4
    4978:	000a2c00 	andeq	r2, sl, r0, lsl #24
    497c:	00045700 	andeq	r5, r4, r0, lsl #14
    4980:	50011900 	andpl	r1, r1, r0, lsl #18
    4984:	7dd09103 	ldfvcp	f1, [r0, #12]
    4988:	03510119 	cmpeq	r1, #1073741830	; 0x40000006
    498c:	007ed091 			; <UNDEFINED> instruction: 0x007ed091
    4990:	00996418 	addseq	r6, r9, r8, lsl r4
    4994:	000a1400 	andeq	r1, sl, r0, lsl #8
    4998:	00048d00 	andeq	r8, r4, r0, lsl #26
    499c:	50011900 	andpl	r1, r1, r0, lsl #18
    49a0:	a5d80305 	ldrbge	r0, [r8, #773]	; 0x305
    49a4:	01190000 	tsteq	r9, r0
    49a8:	44030551 	strmi	r0, [r3], #-1361	; 0xfffffaaf
    49ac:	190000a5 	stmdbne	r0, {r0, r2, r5, r7}
    49b0:	03055201 	movweq	r5, #20993	; 0x5201
    49b4:	0000a690 	muleq	r0, r0, r6
    49b8:	02530119 	subseq	r0, r3, #1073741830	; 0x40000006
    49bc:	0219b608 	andseq	fp, r9, #8, 12	; 0x800000
    49c0:	7602007d 			; <UNDEFINED> instruction: 0x7602007d
    49c4:	681a0000 	ldmdavs	sl, {}	; <UNPREDICTABLE>
    49c8:	20000099 	mulcs	r0, r9, r0
    49cc:	0000000a 	andeq	r0, r0, sl
    49d0:	00974018 	addseq	r4, r7, r8, lsl r0
    49d4:	00091e00 	andeq	r1, r9, r0, lsl #28
    49d8:	0004ab00 	andeq	sl, r4, r0, lsl #22
    49dc:	50011900 	andpl	r1, r1, r0, lsl #18
    49e0:	00007702 	andeq	r7, r0, r2, lsl #14
    49e4:	0097d818 	addseq	sp, r7, r8, lsl r8
    49e8:	000a1400 	andeq	r1, sl, r0, lsl #8
    49ec:	0004e400 	andeq	lr, r4, r0, lsl #8
    49f0:	50011900 	andpl	r1, r1, r0, lsl #18
    49f4:	9d180305 	ldcls	3, cr0, [r8, #-20]	; 0xffffffec
    49f8:	01190000 	tsteq	r9, r0
    49fc:	44030551 	strmi	r0, [r3], #-1361	; 0xfffffaaf
    4a00:	190000a5 	stmdbne	r0, {r0, r2, r5, r7}
    4a04:	03055201 	movweq	r5, #20993	; 0x5201
    4a08:	0000a690 	muleq	r0, r0, r6
    4a0c:	02530119 	subseq	r0, r3, #1073741830	; 0x40000006
    4a10:	02199808 	andseq	r9, r9, #8, 16	; 0x80000
    4a14:	0305007d 	movweq	r0, #20605	; 0x507d
    4a18:	0000a588 	andeq	sl, r0, r8, lsl #11
    4a1c:	97dc1a00 	ldrbls	r1, [ip, r0, lsl #20]
    4a20:	0a200000 	beq	804a28 <__bss_end__+0x7f9ed0>
    4a24:	7c180000 	ldcvc	0, cr0, [r8], {-0}
    4a28:	14000099 	strne	r0, [r0], #-153	; 0xffffff67
    4a2c:	1c00000a 	stcne	0, cr0, [r0], {10}
    4a30:	19000005 	stmdbne	r0, {r0, r2}
    4a34:	03055001 	movweq	r5, #20481	; 0x5001
    4a38:	0000a600 	andeq	sl, r0, r0, lsl #12
    4a3c:	05510119 	ldrbeq	r0, [r1, #-281]	; 0xfffffee7
    4a40:	00a54403 	adceq	r4, r5, r3, lsl #8
    4a44:	52011900 	andpl	r1, r1, #0, 18
    4a48:	a6900305 	ldrge	r0, [r0], r5, lsl #6
    4a4c:	01190000 	tsteq	r9, r0
    4a50:	be080253 	mcrlt	2, 0, r0, cr8, cr3, {2}
    4a54:	99801a00 	stmibls	r0, {r9, fp, ip}
    4a58:	0a200000 	beq	804a60 <__bss_end__+0x7f9f08>
    4a5c:	ac180000 	ldcge	0, cr0, [r8], {-0}
    4a60:	a0000099 	mulge	r0, r9, r0
    4a64:	52000006 	andpl	r0, r0, #6
    4a68:	19000005 	stmdbne	r0, {r0, r2}
    4a6c:	3a015001 	bcc	58a78 <__bss_end__+0x4df20>
    4a70:	03510119 	cmpeq	r1, #1073741830	; 0x40000006
    4a74:	197dd091 	ldmdbne	sp!, {r0, r4, r7, ip, lr, pc}^
    4a78:	08025201 	stmdaeq	r2, {r0, r9, ip, lr}
    4a7c:	7d021980 	vstrvc.16	s2, [r2, #-256]	; 0xffffff00	; <UNPREDICTABLE>
    4a80:	00750200 	rsbseq	r0, r5, r0, lsl #4
    4a84:	047d0219 	ldrbteq	r0, [sp], #-537	; 0xfffffde7
    4a88:	18003101 	stmdane	r0, {r0, r8, ip, sp}
    4a8c:	000099e4 	andeq	r9, r0, r4, ror #19
    4a90:	000006a0 	andeq	r0, r0, r0, lsr #13
    4a94:	0000057f 	andeq	r0, r0, pc, ror r5
    4a98:	01500119 	cmpeq	r0, r9, lsl r1
    4a9c:	5101193a 	tstpl	r1, sl, lsr r9
    4aa0:	7dd09103 	ldfvcp	f1, [r0, #12]
    4aa4:	02520119 	subseq	r0, r2, #1073741830	; 0x40000006
    4aa8:	02198008 	andseq	r8, r9, #8
    4aac:	7502007d 	strvc	r0, [r2, #-125]	; 0xffffff83
    4ab0:	7d021900 	vstrvc.16	s2, [r2, #-0]	; <UNPREDICTABLE>
    4ab4:	00300104 	eorseq	r0, r0, r4, lsl #2
    4ab8:	009a1818 	addseq	r1, sl, r8, lsl r8
    4abc:	0006a000 	andeq	sl, r6, r0
    4ac0:	0005ac00 	andeq	sl, r5, r0, lsl #24
    4ac4:	50011900 	andpl	r1, r1, r0, lsl #18
    4ac8:	01194001 	tsteq	r9, r1
    4acc:	d0910351 	addsle	r0, r1, r1, asr r3
    4ad0:	5201197d 	andpl	r1, r1, #2048000	; 0x1f4000
    4ad4:	19800802 	stmibne	r0, {r1, fp}
    4ad8:	02007d02 	andeq	r7, r0, #2, 26	; 0x80
    4adc:	02190075 	andseq	r0, r9, #117	; 0x75
    4ae0:	3001047d 	andcc	r0, r1, sp, ror r4
    4ae4:	9a4c1800 	bls	130aaec <__bss_end__+0x12fff94>
    4ae8:	06a00000 	strteq	r0, [r0], r0
    4aec:	05d90000 	ldrbeq	r0, [r9]
    4af0:	01190000 	tsteq	r9, r0
    4af4:	19320150 	ldmdbne	r2!, {r4, r6, r8}
    4af8:	91035101 	tstls	r3, r1, lsl #2
    4afc:	01197dd0 			; <UNDEFINED> instruction: 0x01197dd0
    4b00:	80080252 	andhi	r0, r8, r2, asr r2
    4b04:	007d0219 	rsbseq	r0, sp, r9, lsl r2
    4b08:	19007502 	stmdbne	r0, {r1, r8, sl, ip, sp, lr}
    4b0c:	01047d02 	tsteq	r4, r2, lsl #26
    4b10:	94180030 	ldrls	r0, [r8], #-48	; 0xffffffd0
    4b14:	a000009a 	mulge	r0, sl, r0
    4b18:	06000006 	streq	r0, [r0], -r6
    4b1c:	19000006 	stmdbne	r0, {r1, r2}
    4b20:	38015001 	stmdacc	r1, {r0, ip, lr}
    4b24:	03510119 	cmpeq	r1, #1073741830	; 0x40000006
    4b28:	197dd091 	ldmdbne	sp!, {r0, r4, r7, ip, lr, pc}^
    4b2c:	08025201 	stmdaeq	r2, {r0, r9, ip, lr}
    4b30:	7d021980 	vstrvc.16	s2, [r2, #-256]	; 0xffffff00	; <UNPREDICTABLE>
    4b34:	00750200 	rsbseq	r0, r5, r0, lsl #4
    4b38:	047d0219 	ldrbteq	r0, [sp], #-537	; 0xfffffde7
    4b3c:	18003001 	stmdane	r0, {r0, ip, sp}
    4b40:	00009ab4 			; <UNDEFINED> instruction: 0x00009ab4
    4b44:	00000a14 	andeq	r0, r0, r4, lsl sl
    4b48:	00000629 	andeq	r0, r0, r9, lsr #12
    4b4c:	05500119 	ldrbeq	r0, [r0, #-281]	; 0xfffffee7
    4b50:	00a62803 	adceq	r2, r6, r3, lsl #16
    4b54:	51011900 	tstpl	r1, r0, lsl #18
    4b58:	19007702 	stmdbne	r0, {r1, r8, r9, sl, ip, sp, lr}
    4b5c:	77025201 	strvc	r5, [r2, -r1, lsl #4]
    4b60:	c41b0000 	ldrgt	r0, [fp], #-0
    4b64:	3b00009a 	blcc	4dd4 <__code_start__-0x322c>
    4b68:	19000006 	stmdbne	r0, {r1, r2}
    4b6c:	91045001 	tstls	r4, r1
    4b70:	00067dc8 	andeq	r7, r6, r8, asr #27
    4b74:	009ad818 	addseq	sp, sl, r8, lsl r8
    4b78:	000a1400 	andeq	r1, sl, r0, lsl #8
    4b7c:	00066a00 	andeq	r6, r6, r0, lsl #20
    4b80:	50011900 	andpl	r1, r1, r0, lsl #18
    4b84:	a6580305 	ldrbge	r0, [r8], -r5, lsl #6
    4b88:	01190000 	tsteq	r9, r0
    4b8c:	44030551 	strmi	r0, [r3], #-1361	; 0xfffffaaf
    4b90:	190000a5 	stmdbne	r0, {r0, r2, r5, r7}
    4b94:	03055201 	movweq	r5, #20993	; 0x5201
    4b98:	0000a690 	muleq	r0, r0, r6
    4b9c:	02530119 	subseq	r0, r3, #1073741830	; 0x40000006
    4ba0:	1a00e208 	bne	3d3c8 <__bss_end__+0x32870>
    4ba4:	00009adc 	ldrdeq	r9, [r0], -ip
    4ba8:	00000a20 	andeq	r0, r0, r0, lsr #20
    4bac:	04080000 	streq	r0, [r8], #-0
    4bb0:	000000b9 	strheq	r0, [r0], -r9
    4bb4:	0000c01c 	andeq	ip, r0, ip, lsl r0
    4bb8:	00068b00 	andeq	r8, r6, r0, lsl #22
    4bbc:	002c1d00 	eoreq	r1, ip, r0, lsl #26
    4bc0:	00090000 	andeq	r0, r9, r0
    4bc4:	00067b09 	andeq	r7, r6, r9, lsl #22
    4bc8:	00b91c00 	adcseq	r1, r9, r0, lsl #24
    4bcc:	06a00000 	strteq	r0, [r0], r0
    4bd0:	2c1d0000 	ldccs	0, cr0, [sp], {-0}
    4bd4:	7f000000 	svcvc	0x00000000
    4bd8:	0d621e00 	stcleq	14, cr1, [r2, #-0]
    4bdc:	49010000 	stmdbmi	r1, {}	; <UNPREDICTABLE>
    4be0:	00067501 	andeq	r7, r6, r1, lsl #10
    4be4:	00949400 	addseq	r9, r4, r0, lsl #8
    4be8:	0001b400 	andeq	fp, r1, r0, lsl #8
    4bec:	099c0100 	ldmibeq	ip, {r8}
    4bf0:	1f000008 	svcne	0x00000008
    4bf4:	000000a4 	andeq	r0, r0, r4, lsr #1
    4bf8:	2c0f4901 			; <UNDEFINED> instruction: 0x2c0f4901
    4bfc:	94000000 	strls	r0, [r0], #-0
    4c00:	8e000019 	mcrhi	0, 0, r0, cr0, cr9, {0}
    4c04:	0e000019 	mcreq	0, 0, r0, cr0, cr9, {0}
    4c08:	00747364 	rsbseq	r7, r4, r4, ror #6
    4c0c:	751b4901 	ldrvc	r4, [fp, #-2305]	; 0xfffff6ff
    4c10:	d2000006 	andle	r0, r0, #6
    4c14:	c2000019 	andgt	r0, r0, #25
    4c18:	0e000019 	mcreq	0, 0, r0, cr0, cr9, {0}
    4c1c:	4901006e 	stmdbmi	r1, {r1, r2, r3, r5, r6}
    4c20:	00002524 	andeq	r2, r0, r4, lsr #10
    4c24:	001a3600 	andseq	r3, sl, r0, lsl #12
    4c28:	001a3200 	andseq	r3, sl, r0, lsl #4
    4c2c:	61760e00 	cmnvs	r6, r0, lsl #28
    4c30:	4901006c 	stmdbmi	r1, {r2, r3, r5, r6}
    4c34:	0000252b 	andeq	r2, r0, fp, lsr #10
    4c38:	001a6000 	andseq	r6, sl, r0
    4c3c:	001a5400 	andseq	r5, sl, r0, lsl #8
    4c40:	0d2e1f00 	stceq	15, cr1, [lr, #-0]
    4c44:	49010000 	stmdbmi	r1, {}	; <UNPREDICTABLE>
    4c48:	00002534 	andeq	r2, r0, r4, lsr r5
    4c4c:	001ab600 	andseq	fp, sl, r0, lsl #12
    4c50:	001ab000 	andseq	fp, sl, r0
    4c54:	0d8b0f00 	stceq	15, cr0, [fp]
    4c58:	49010000 	stmdbmi	r1, {}	; <UNPREDICTABLE>
    4c5c:	0000253f 	andeq	r2, r0, pc, lsr r5
    4c60:	04910200 	ldreq	r0, [r1], #512	; 0x200
    4c64:	66756215 			; <UNDEFINED> instruction: 0x66756215
    4c68:	074e0100 	strbeq	r0, [lr, -r0, lsl #2]
    4c6c:	00000809 	andeq	r0, r0, r9, lsl #16
    4c70:	7fa89103 	svcvc	0x00a89103
    4c74:	01007010 	tsteq	r0, r0, lsl r0
    4c78:	0675114e 	ldrbteq	r1, [r5], -lr, asr #2
    4c7c:	1afe0000 	bne	fff84c84 <__bss_end__+0xfff7a12c>
    4c80:	1ae00000 	bne	ff804c88 <__bss_end__+0xff7fa130>
    4c84:	75100000 	ldrvc	r0, [r0, #-0]
    4c88:	0b4f0100 	bleq	13c5090 <__bss_end__+0x13ba538>
    4c8c:	0000002c 	andeq	r0, r0, ip, lsr #32
    4c90:	00001bd9 	ldrdeq	r1, [r0], -r9
    4c94:	00001bc5 	andeq	r1, r0, r5, asr #23
    4c98:	0000d613 	andeq	sp, r0, r3, lsl r6
    4c9c:	00082900 	andeq	r2, r8, r0, lsl #18
    4ca0:	78030500 	stmdavc	r3, {r8, sl}
    4ca4:	170000a6 	strne	r0, [r0, -r6, lsr #1]
    4ca8:	00009500 	andeq	r9, r0, r0, lsl #10
    4cac:	00000078 	andeq	r0, r0, r8, ror r0
    4cb0:	00000790 	muleq	r0, r0, r7
    4cb4:	000d5c12 	andeq	r5, sp, r2, lsl ip
    4cb8:	0d540100 	ldfeqe	f0, [r4, #-0]
    4cbc:	0000002c 	andeq	r0, r0, ip, lsr #32
    4cc0:	00001c5a 	andeq	r1, r0, sl, asr ip
    4cc4:	00001c52 	andeq	r1, r0, r2, asr ip
    4cc8:	95b81800 	ldrls	r1, [r8, #2048]!	; 0x800
    4ccc:	08bb0000 	ldmeq	fp!, {}	; <UNPREDICTABLE>
    4cd0:	07a50000 	streq	r0, [r5, r0]!
    4cd4:	01190000 	tsteq	r9, r0
    4cd8:	a0910351 	addsge	r0, r1, r1, asr r3
    4cdc:	cc18007f 	ldcgt	0, cr0, [r8], {127}	; 0x7f
    4ce0:	2e000095 	mcrcs	0, 0, r0, cr0, cr5, {4}
    4ce4:	c6000008 	strgt	r0, [r0], -r8
    4ce8:	19000007 	stmdbne	r0, {r0, r1, r2}
    4cec:	75025001 	strvc	r5, [r2, #-1]
    4cf0:	51011900 	tstpl	r1, r0, lsl #18
    4cf4:	19007402 	stmdbne	r0, {r1, sl, ip, sp, lr}
    4cf8:	91035301 	tstls	r3, r1, lsl #6
    4cfc:	18007fa0 	stmdane	r0, {r5, r7, r8, r9, sl, fp, ip, sp, lr}
    4d00:	00009624 	andeq	r9, r0, r4, lsr #12
    4d04:	00000a14 	andeq	r0, r0, r4, lsl sl
    4d08:	000007ff 	strdeq	r0, [r0], -pc	; <UNPREDICTABLE>
    4d0c:	05500119 	ldrbeq	r0, [r0, #-281]	; 0xfffffee7
    4d10:	009d1803 	addseq	r1, sp, r3, lsl #16
    4d14:	51011900 	tstpl	r1, r0, lsl #18
    4d18:	a5440305 	strbge	r0, [r4, #-773]	; 0xfffffcfb
    4d1c:	01190000 	tsteq	r9, r0
    4d20:	78030552 	stmdavc	r3, {r1, r4, r6, r8, sl}
    4d24:	190000a6 	stmdbne	r0, {r1, r2, r5, r7}
    4d28:	08025301 	stmdaeq	r2, {r0, r8, r9, ip, lr}
    4d2c:	7d021979 	vstrvc.16	s2, [r2, #-242]	; 0xffffff0e	; <UNPREDICTABLE>
    4d30:	58030500 	stmdapl	r3, {r8, sl}
    4d34:	000000a5 	andeq	r0, r0, r5, lsr #1
    4d38:	0096281a 	addseq	r2, r6, sl, lsl r8
    4d3c:	000a2000 	andeq	r2, sl, r0
    4d40:	b91c0000 	ldmdblt	ip, {}	; <UNPREDICTABLE>
    4d44:	19000000 	stmdbne	r0, {}	; <UNPREDICTABLE>
    4d48:	1d000008 	stcne	0, cr0, [r0, #-32]	; 0xffffffe0
    4d4c:	0000002c 	andeq	r0, r0, ip, lsr #32
    4d50:	c01c003f 	andsgt	r0, ip, pc, lsr r0
    4d54:	29000000 	stmdbcs	r0, {}	; <UNPREDICTABLE>
    4d58:	1d000008 	stcne	0, cr0, [r0, #-32]	; 0xffffffe0
    4d5c:	0000002c 	andeq	r0, r0, ip, lsr #32
    4d60:	19090004 	stmdbne	r9, {r2}
    4d64:	1e000008 	cdpne	0, 0, cr0, cr0, cr8, {0}
    4d68:	00000d6f 	andeq	r0, r0, pc, ror #26
    4d6c:	750e3801 	strvc	r3, [lr, #-2049]	; 0xfffff7ff
    4d70:	58000006 	stmdapl	r0, {r1, r2}
    4d74:	3c000094 	stccc	0, cr0, [r0], {148}	; 0x94
    4d78:	01000000 	mrseq	r0, (UNDEF: 0)
    4d7c:	0008bb9c 	muleq	r8, ip, fp
    4d80:	73640e00 	cmnvc	r4, #0, 28
    4d84:	38010074 	stmdacc	r1, {r2, r4, r5, r6}
    4d88:	0006751c 	andeq	r7, r6, ip, lsl r5
    4d8c:	001c9b00 	andseq	r9, ip, r0, lsl #22
    4d90:	001c9100 	andseq	r9, ip, r0, lsl #2
    4d94:	006e0e00 	rsbeq	r0, lr, r0, lsl #28
    4d98:	25253801 	strcs	r3, [r5, #-2049]!	; 0xfffff7ff
    4d9c:	e2000000 	and	r0, r0, #0
    4da0:	de00001c 	mcrle	0, 0, r0, cr0, cr12, {0}
    4da4:	0e00001c 	mcreq	0, 0, r0, cr0, cr12, {0}
    4da8:	38010070 	stmdacc	r1, {r4, r5, r6}
    4dac:	0006752e 	andeq	r7, r6, lr, lsr #10
    4db0:	001d0b00 	andseq	r0, sp, r0, lsl #22
    4db4:	001d0300 	andseq	r0, sp, r0, lsl #6
    4db8:	03df1f00 	bicseq	r1, pc, #0, 30
    4dbc:	38010000 	stmdacc	r1, {}	; <UNPREDICTABLE>
    4dc0:	00067537 	andeq	r7, r6, r7, lsr r5
    4dc4:	001d4500 	andseq	r4, sp, r0, lsl #10
    4dc8:	001d4100 	andseq	r4, sp, r0, lsl #2
    4dcc:	656c1000 	strbvs	r1, [ip, #-0]!
    4dd0:	3a01006e 	bcc	44f90 <__bss_end__+0x3a438>
    4dd4:	00002506 	andeq	r2, r0, r6, lsl #10
    4dd8:	001d6d00 	andseq	r6, sp, r0, lsl #26
    4ddc:	001d6300 	andseq	r6, sp, r0, lsl #6
    4de0:	00731000 	rsbseq	r1, r3, r0
    4de4:	75083e01 	strvc	r3, [r8, #-3585]	; 0xfffff1ff
    4de8:	ce000006 	cdpgt	0, 0, cr0, cr0, cr6, {0}
    4dec:	cc00001d 	stcgt	0, cr0, [r0], {29}
    4df0:	0000001d 	andeq	r0, r0, sp, lsl r0
    4df4:	64617020 	strbtvs	r7, [r1], #-32	; 0xffffffe0
    4df8:	0e2e0100 	sufeqe	f0, f6, f0
    4dfc:	00000675 	andeq	r0, r0, r5, ror r6
    4e00:	00009430 	andeq	r9, r0, r0, lsr r4
    4e04:	00000028 	andeq	r0, r0, r8, lsr #32
    4e08:	091e9c01 	ldmdbeq	lr, {r0, sl, fp, ip, pc}
    4e0c:	700e0000 	andvc	r0, lr, r0
    4e10:	182e0100 	stmdane	lr!, {r8}
    4e14:	00000675 	andeq	r0, r0, r5, ror r6
    4e18:	00001de7 	andeq	r1, r0, r7, ror #27
    4e1c:	00001de1 	andeq	r1, r0, r1, ror #27
    4e20:	0000a41f 	andeq	sl, r0, pc, lsl r4
    4e24:	222e0100 	eorcs	r0, lr, #0, 2
    4e28:	00000675 	andeq	r0, r0, r5, ror r6
    4e2c:	00001e16 	andeq	r1, r0, r6, lsl lr
    4e30:	00001e12 	andeq	r1, r0, r2, lsl lr
    4e34:	000d2e0f 	andeq	r2, sp, pc, lsl #28
    4e38:	2c2e0100 	stfcss	f0, [lr], #-0
    4e3c:	00000025 	andeq	r0, r0, r5, lsr #32
    4e40:	6c105201 	lfmvs	f5, 4, [r0], {1}
    4e44:	01006e65 	tsteq	r0, r5, ror #28
    4e48:	0025062f 	eoreq	r0, r5, pc, lsr #12
    4e4c:	1e390000 	cdpne	0, 3, cr0, cr9, cr0, {0}
    4e50:	1e370000 	cdpne	0, 3, cr0, cr7, cr0, {0}
    4e54:	1e000000 	cdpne	0, 0, cr0, cr0, cr0, {0}
    4e58:	00000d0a 	andeq	r0, r0, sl, lsl #26
    4e5c:	250c2701 	strcs	r2, [ip, #-1793]	; 0xfffff8ff
    4e60:	1c000000 	stcne	0, cr0, [r0], {-0}
    4e64:	14000094 	strne	r0, [r0], #-148	; 0xffffff6c
    4e68:	01000000 	mrseq	r0, (UNDEF: 0)
    4e6c:	00094b9c 	muleq	r9, ip, fp
    4e70:	00630e00 	rsbeq	r0, r3, r0, lsl #28
    4e74:	25182701 	ldrcs	r2, [r8, #-1793]	; 0xfffff8ff
    4e78:	52000000 	andpl	r0, r0, #0
    4e7c:	4c00001e 	stcmi	0, cr0, [r0], {30}
    4e80:	0000001e 	andeq	r0, r0, lr, lsl r0
    4e84:	000d3c21 	andeq	r3, sp, r1, lsr #24
    4e88:	061f0100 	ldreq	r0, [pc], -r0, lsl #2
    4e8c:	00009648 	andeq	r9, r0, r8, asr #12
    4e90:	00000064 	andeq	r0, r0, r4, rrx
    4e94:	09db9c01 	ldmibeq	fp, {r0, sl, fp, ip, pc}^
    4e98:	341f0000 	ldrcc	r0, [pc], #-0	; 4ea0 <__code_start__-0x3160>
    4e9c:	0100000d 	tsteq	r0, sp
    4ea0:	009e1b1f 	addseq	r1, lr, pc, lsl fp
    4ea4:	1e840000 	cdpne	0, 8, cr0, cr4, cr0, {0}
    4ea8:	1e800000 	cdpne	0, 8, cr0, cr0, cr0, {0}
    4eac:	671f0000 	ldrvs	r0, [pc, -r0]
    4eb0:	0100000d 	tsteq	r0, sp
    4eb4:	00d1301f 	sbcseq	r3, r1, pc, lsl r0
    4eb8:	1ea90000 	cdpne	0, 10, cr0, cr9, cr0, {0}
    4ebc:	1ea50000 	cdpne	0, 10, cr0, cr5, cr0, {0}
    4ec0:	d6130000 	ldrle	r0, [r3], -r0
    4ec4:	eb000000 	bl	4ecc <__code_start__-0x3134>
    4ec8:	05000009 	streq	r0, [r0, #-9]
    4ecc:	00a68003 	adceq	r8, r6, r3
    4ed0:	96901800 	ldrls	r1, [r0], r0, lsl #16
    4ed4:	0a140000 	beq	504edc <__bss_end__+0x4fa384>
    4ed8:	09d10000 	ldmibeq	r1, {}^	; <UNPREDICTABLE>
    4edc:	01190000 	tsteq	r9, r0
    4ee0:	18030550 	stmdane	r3, {r4, r6, r8, sl}
    4ee4:	1900009d 	stmdbne	r0, {r0, r2, r3, r4, r7}
    4ee8:	03055101 	movweq	r5, #20737	; 0x5101
    4eec:	0000a544 	andeq	sl, r0, r4, asr #10
    4ef0:	05520119 	ldrbeq	r0, [r2, #-281]	; 0xfffffee7
    4ef4:	00a68003 	adceq	r8, r6, r3
    4ef8:	53011900 	movwpl	r1, #6400	; 0x1900
    4efc:	19200802 	stmdbne	r0!, {r1, fp}
    4f00:	05007d02 	streq	r7, [r0, #-3330]	; 0xfffff2fe
    4f04:	00a58003 	adceq	r8, r5, r3
    4f08:	941a0000 	ldrls	r0, [sl], #-0
    4f0c:	20000096 	mulcs	r0, r6, r0
    4f10:	0000000a 	andeq	r0, r0, sl
    4f14:	0000c01c 	andeq	ip, r0, ip, lsl r0
    4f18:	0009eb00 	andeq	lr, r9, r0, lsl #22
    4f1c:	002c1d00 	eoreq	r1, ip, r0, lsl #26
    4f20:	000e0000 	andeq	r0, lr, r0
    4f24:	0009db09 	andeq	sp, r9, r9, lsl #22
    4f28:	0d832200 	sfmeq	f2, 4, [r3]
    4f2c:	0d830000 	stceq	0, cr0, [r3]
    4f30:	eb030000 	bl	c4f38 <__bss_end__+0xba3e0>
    4f34:	0d772205 	lfmeq	f2, 2, [r7, #-20]!	; 0xffffffec
    4f38:	0d770000 	ldcleq	0, cr0, [r7, #-0]
    4f3c:	ea030000 	b	c4f44 <__bss_end__+0xba3ec>
    4f40:	02ec2205 	rsceq	r2, ip, #1342177280	; 0x50000000
    4f44:	02ec0000 	rsceq	r0, ip, #0
    4f48:	ed030000 	stc	0, cr0, [r3, #-0]
    4f4c:	08252207 	stmdaeq	r5!, {r0, r1, r2, r9, sp}
    4f50:	08250000 	stmdaeq	r5!, {}	; <UNPREDICTABLE>
    4f54:	28030000 	stmdacs	r3, {}	; <UNPREDICTABLE>
    4f58:	00f92206 	rscseq	r2, r9, r6, lsl #4
    4f5c:	00f90000 	rscseq	r0, r9, r0
    4f60:	6e030000 	cdpvs	0, 0, cr0, cr3, cr0, {0}
    4f64:	0d552206 	lfmeq	f2, 2, [r5, #-24]	; 0xffffffe8
    4f68:	0d550000 	ldcleq	0, cr0, [r5, #-0]
    4f6c:	ee030000 	cdp	0, 0, cr0, cr3, cr0, {0}
    4f70:	00b50007 	adcseq	r0, r5, r7
    4f74:	00040000 	andeq	r0, r4, r0
    4f78:	00001a3e 	andeq	r1, r0, lr, lsr sl
    4f7c:	01220104 			; <UNDEFINED> instruction: 0x01220104
    4f80:	940c0000 	strls	r0, [ip], #-0
    4f84:	2c00000d 	stccs	0, cr0, [r0], {13}
    4f88:	44000008 	strmi	r0, [r0], #-8
    4f8c:	3000009b 	mulcc	r0, fp, r0
    4f90:	96000000 	strls	r0, [r0], -r0
    4f94:	02000025 	andeq	r0, r0, #37	; 0x25
    4f98:	6e690504 	cdpvs	5, 6, cr0, cr9, cr4, {0}
    4f9c:	04030074 	streq	r0, [r3], #-116	; 0xffffff8c
    4fa0:	0001bf07 	andeq	fp, r1, r7, lsl #30
    4fa4:	06010300 	streq	r0, [r1], -r0, lsl #6
    4fa8:	00000116 	andeq	r0, r0, r6, lsl r1
    4fac:	3d050203 	sfmcc	f0, 4, [r5, #-12]
    4fb0:	03000000 	movweq	r0, #0
    4fb4:	00c80504 	sbceq	r0, r8, r4, lsl #10
    4fb8:	08030000 	stmdaeq	r3, {}	; <UNPREDICTABLE>
    4fbc:	0000c305 	andeq	ip, r0, r5, lsl #6
    4fc0:	08010300 	stmdaeq	r1, {r8, r9}
    4fc4:	00000114 	andeq	r0, r0, r4, lsl r1
    4fc8:	f6070203 			; <UNDEFINED> instruction: 0xf6070203
    4fcc:	03000001 	movweq	r0, #1
    4fd0:	01ba0704 			; <UNDEFINED> instruction: 0x01ba0704
    4fd4:	08030000 	stmdaeq	r3, {}	; <UNPREDICTABLE>
    4fd8:	0001b507 	andeq	fp, r1, r7, lsl #10
    4fdc:	78040400 	stmdavc	r4, {sl}
    4fe0:	03000000 	movweq	r0, #0
    4fe4:	011d0801 	tsteq	sp, r1, lsl #16
    4fe8:	71050000 	mrsvc	r0, (UNDEF: 5)
    4fec:	06000000 	streq	r0, [r0], -r0
    4ff0:	00000d77 	andeq	r0, r0, r7, ror sp
    4ff4:	25050301 	strcs	r0, [r5, #-769]	; 0xfffffcff
    4ff8:	44000000 	strmi	r0, [r0], #-0
    4ffc:	3000009b 	mulcc	r0, fp, r0
    5000:	01000000 	mrseq	r0, (UNDEF: 0)
    5004:	0061079c 	mlseq	r1, ip, r7, r0
    5008:	6b180301 	blvs	605c14 <__bss_end__+0x5fb0bc>
    500c:	ce000000 	cdpgt	0, 0, cr0, cr0, cr0, {0}
    5010:	ca00001e 	bgt	5090 <__code_start__-0x2f70>
    5014:	0700001e 	smladeq	r0, lr, r0, r0
    5018:	03010062 	movweq	r0, #4194	; 0x1062
    501c:	00006b27 	andeq	r6, r0, r7, lsr #22
    5020:	001ef000 	andseq	pc, lr, r0
    5024:	001eec00 	andseq	lr, lr, r0, lsl #24
    5028:	f5000000 			; <UNDEFINED> instruction: 0xf5000000
    502c:	04000000 	streq	r0, [r0], #-0
    5030:	001aa800 	andseq	sl, sl, r0, lsl #16
    5034:	22010400 	andcs	r0, r1, #0, 8
    5038:	0c000001 	stceq	0, cr0, [r0], {1}
    503c:	00000da9 	andeq	r0, r0, r9, lsr #27
    5040:	0000082c 	andeq	r0, r0, ip, lsr #16
    5044:	00009b74 	andeq	r9, r0, r4, ror fp
    5048:	00000034 	andeq	r0, r0, r4, lsr r0
    504c:	00002608 	andeq	r2, r0, r8, lsl #12
    5050:	69050402 	stmdbvs	r5, {r1, sl}
    5054:	0300746e 	movweq	r7, #1134	; 0x46e
    5058:	01bf0704 			; <UNDEFINED> instruction: 0x01bf0704
    505c:	01030000 	mrseq	r0, (UNDEF: 3)
    5060:	00011606 	andeq	r1, r1, r6, lsl #12
    5064:	05020300 	streq	r0, [r2, #-768]	; 0xfffffd00
    5068:	0000003d 	andeq	r0, r0, sp, lsr r0
    506c:	c8050403 	stmdagt	r5, {r0, r1, sl}
    5070:	03000000 	movweq	r0, #0
    5074:	00c30508 	sbceq	r0, r3, r8, lsl #10
    5078:	01030000 	mrseq	r0, (UNDEF: 3)
    507c:	00011408 	andeq	r1, r1, r8, lsl #8
    5080:	07020300 	streq	r0, [r2, -r0, lsl #6]
    5084:	000001f6 	strdeq	r0, [r0], -r6
    5088:	ba070403 	blt	1c609c <__bss_end__+0x1bb544>
    508c:	03000001 	movweq	r0, #1
    5090:	01b50708 			; <UNDEFINED> instruction: 0x01b50708
    5094:	04040000 	streq	r0, [r4], #-0
    5098:	00000078 	andeq	r0, r0, r8, ror r0
    509c:	1d080103 	stfnes	f0, [r8, #-12]
    50a0:	05000001 	streq	r0, [r0, #-1]
    50a4:	00000071 	andeq	r0, r0, r1, ror r0
    50a8:	000d5506 	andeq	r5, sp, r6, lsl #10
    50ac:	07040100 	streq	r0, [r4, -r0, lsl #2]
    50b0:	000000f2 	strdeq	r0, [r0], -r2
    50b4:	00009b74 	andeq	r9, r0, r4, ror fp
    50b8:	00000034 	andeq	r0, r0, r4, lsr r0
    50bc:	00f29c01 	rscseq	r9, r2, r1, lsl #24
    50c0:	a4070000 	strge	r0, [r7], #-0
    50c4:	0100000d 	tsteq	r0, sp
    50c8:	00f21504 	rscseq	r1, r2, r4, lsl #10
    50cc:	50010000 	andpl	r0, r1, r0
    50d0:	63727308 	cmnvs	r2, #8, 6	; 0x20000000
    50d4:	27040100 	strcs	r0, [r4, -r0, lsl #2]
    50d8:	0000006b 	andeq	r0, r0, fp, rrx
    50dc:	00001f12 	andeq	r1, r0, r2, lsl pc
    50e0:	00001f0e 	andeq	r1, r0, lr, lsl #30
    50e4:	00317309 	eorseq	r7, r1, r9, lsl #6
    50e8:	f20b0501 	vrshl.s8	d0, d1, d11
    50ec:	3d000000 	stccc	0, cr0, [r0, #-0]
    50f0:	3300001f 	movwcc	r0, #31
    50f4:	0900001f 	stmdbeq	r0, {r0, r1, r2, r3, r4}
    50f8:	01003273 	tsteq	r0, r3, ror r2
    50fc:	006b1106 	rsbeq	r1, fp, r6, lsl #2
    5100:	1f820000 	svcne	0x00820000
    5104:	1f7e0000 	svcne	0x007e0000
    5108:	63090000 	movwvs	r0, #36864	; 0x9000
    510c:	0a070100 	beq	1c5514 <__bss_end__+0x1ba9bc>
    5110:	00000071 	andeq	r0, r0, r1, ror r0
    5114:	00001fa6 	andeq	r1, r0, r6, lsr #31
    5118:	00001fa2 	andeq	r1, r0, r2, lsr #31
    511c:	71040400 	tstvc	r4, r0, lsl #8
    5120:	00000000 	andeq	r0, r0, r0
    5124:	0000010c 	andeq	r0, r0, ip, lsl #2
    5128:	1b390004 	blne	e45140 <__bss_end__+0xe3a5e8>
    512c:	01040000 	mrseq	r0, (UNDEF: 4)
    5130:	00000122 	andeq	r0, r0, r2, lsr #2
    5134:	000db90c 	andeq	fp, sp, ip, lsl #18
    5138:	00082c00 	andeq	r2, r8, r0, lsl #24
    513c:	0001b000 	andeq	fp, r1, r0
    5140:	00000000 	andeq	r0, r0, r0
    5144:	0026bd00 	eoreq	fp, r6, r0, lsl #26
    5148:	05040200 	streq	r0, [r4, #-512]	; 0xfffffe00
    514c:	00746e69 	rsbseq	r6, r4, r9, ror #28
    5150:	00088003 	andeq	r8, r8, r3
    5154:	17d10200 	ldrbne	r0, [r1, r0, lsl #4]
    5158:	00000038 	andeq	r0, r0, r8, lsr r0
    515c:	bf070404 	svclt	0x00070404
    5160:	04000001 	streq	r0, [r0], #-1
    5164:	01160601 	tsteq	r6, r1, lsl #12
    5168:	02040000 	andeq	r0, r4, #0
    516c:	00003d05 	andeq	r3, r0, r5, lsl #26
    5170:	05040400 	streq	r0, [r4, #-1024]	; 0xfffffc00
    5174:	000000c8 	andeq	r0, r0, r8, asr #1
    5178:	c3050804 	movwgt	r0, #22532	; 0x5804
    517c:	04000000 	streq	r0, [r0], #-0
    5180:	01140801 	tsteq	r4, r1, lsl #16
    5184:	5b050000 	blpl	14518c <__bss_end__+0x13a634>
    5188:	04000000 	streq	r0, [r0], #-0
    518c:	01f60702 	mvnseq	r0, r2, lsl #14
    5190:	04040000 	streq	r0, [r4], #-0
    5194:	0001ba07 	andeq	fp, r1, r7, lsl #20
    5198:	07080400 	streq	r0, [r8, -r0, lsl #8]
    519c:	000001b5 			; <UNDEFINED> instruction: 0x000001b5
    51a0:	00890406 	addeq	r0, r9, r6, lsl #8
    51a4:	01040000 	mrseq	r0, (UNDEF: 4)
    51a8:	00011d08 	andeq	r1, r1, r8, lsl #26
    51ac:	00820500 	addeq	r0, r2, r0, lsl #10
    51b0:	83070000 	movwhi	r0, #28672	; 0x7000
    51b4:	0100000d 	tsteq	r0, sp
    51b8:	00250504 	eoreq	r0, r5, r4, lsl #10
    51bc:	9ba80000 	blls	fea051c4 <__bss_end__+0xfe9fa66c>
    51c0:	002c0000 	eoreq	r0, ip, r0
    51c4:	9c010000 	stcls	0, cr0, [r1], {-0}
    51c8:	00000109 	andeq	r0, r0, r9, lsl #2
    51cc:	31735f08 	cmncc	r3, r8, lsl #30
    51d0:	19040100 	stmdbne	r4, {r8}
    51d4:	0000007c 	andeq	r0, r0, ip, ror r0
    51d8:	00001fc8 	andeq	r1, r0, r8, asr #31
    51dc:	00001fc4 	andeq	r1, r0, r4, asr #31
    51e0:	32735f08 	rsbscc	r5, r3, #8, 30
    51e4:	2a040100 	bcs	1055ec <__bss_end__+0xfaa94>
    51e8:	0000007c 	andeq	r0, r0, ip, ror r0
    51ec:	00001fed 	andeq	r1, r0, sp, ror #31
    51f0:	00001fe9 	andeq	r1, r0, r9, ror #31
    51f4:	01006e08 	tsteq	r0, r8, lsl #28
    51f8:	002c3604 	eoreq	r3, ip, r4, lsl #12
    51fc:	20140000 	andscs	r0, r4, r0
    5200:	200e0000 	andcs	r0, lr, r0
    5204:	73090000 	movwvc	r0, #36864	; 0x9000
    5208:	05010031 	streq	r0, [r1, #-49]	; 0xffffffcf
    520c:	0001091a 	andeq	r0, r1, sl, lsl r9
    5210:	00204700 	eoreq	r4, r0, r0, lsl #14
    5214:	00203f00 	eoreq	r3, r0, r0, lsl #30
    5218:	32730900 	rsbscc	r0, r3, #0, 18
    521c:	2c050100 	stfcss	f0, [r5], {-0}
    5220:	00000109 	andeq	r0, r0, r9, lsl #2
    5224:	00002083 	andeq	r2, r0, r3, lsl #1
    5228:	0000207d 	andeq	r2, r0, sp, ror r0
    522c:	62040600 	andvs	r0, r4, #0, 12
    5230:	00000000 	andeq	r0, r0, r0
    5234:	000003a5 	andeq	r0, r0, r5, lsr #7
    5238:	1bc80004 	blne	ff205250 <__bss_end__+0xff1fa6f8>
    523c:	01040000 	mrseq	r0, (UNDEF: 4)
    5240:	00000122 	andeq	r0, r0, r2, lsr #2
    5244:	000e490c 	andeq	r4, lr, ip, lsl #18
    5248:	000ca500 	andeq	sl, ip, r0, lsl #10
    524c:	009bec00 	addseq	lr, fp, r0, lsl #24
    5250:	00011c00 	andeq	r1, r1, r0, lsl #24
    5254:	00277f00 	eoreq	r7, r7, r0, lsl #30
    5258:	05040200 	streq	r0, [r4, #-512]	; 0xfffffe00
    525c:	00746e69 	rsbseq	r6, r4, r9, ror #28
    5260:	bf070403 	svclt	0x00070403
    5264:	04000001 	streq	r0, [r0], #-1
    5268:	0000002c 	andeq	r0, r0, ip, lsr #32
    526c:	16060103 	strne	r0, [r6], -r3, lsl #2
    5270:	03000001 	movweq	r0, #1
    5274:	003d0502 	eorseq	r0, sp, r2, lsl #10
    5278:	04030000 	streq	r0, [r3], #-0
    527c:	0000c805 	andeq	ip, r0, r5, lsl #16
    5280:	05080300 	streq	r0, [r8, #-768]	; 0xfffffd00
    5284:	000000c3 	andeq	r0, r0, r3, asr #1
    5288:	14080103 	strne	r0, [r8], #-259	; 0xfffffefd
    528c:	03000001 	movweq	r0, #1
    5290:	01f60702 	mvnseq	r0, r2, lsl #14
    5294:	94050000 	strls	r0, [r5], #-0
    5298:	03000000 	movweq	r0, #0
    529c:	006e1934 	rsbeq	r1, lr, r4, lsr r9
    52a0:	04030000 	streq	r0, [r3], #-0
    52a4:	0001ba07 	andeq	fp, r1, r7, lsl #20
    52a8:	07080300 	streq	r0, [r8, -r0, lsl #6]
    52ac:	000001b5 			; <UNDEFINED> instruction: 0x000001b5
    52b0:	1d080103 	stfnes	f0, [r8, #-12]
    52b4:	06000001 	streq	r0, [r0], -r1
    52b8:	00540107 	subseq	r0, r4, r7, lsl #2
    52bc:	0c040000 	stceq	0, cr0, [r4], {-0}
    52c0:	0000c20e 	andeq	ip, r0, lr, lsl #4
    52c4:	0ce20700 	stcleq	7, cr0, [r2]
    52c8:	07000000 	streq	r0, [r0, -r0]
    52cc:	00000bb2 			; <UNDEFINED> instruction: 0x00000bb2
    52d0:	0bee0701 	bleq	ffb86edc <__bss_end__+0xffb7c384>
    52d4:	07040000 	streq	r0, [r4, -r0]
    52d8:	00000bfd 	strdeq	r0, [r0], -sp
    52dc:	0c0c0705 	stceq	7, cr0, [ip], {5}
    52e0:	07060000 	streq	r0, [r6, -r0]
    52e4:	00000c1b 	andeq	r0, r0, fp, lsl ip
    52e8:	0c7a0707 	ldcleq	7, cr0, [sl], #-28	; 0xffffffe4
    52ec:	07030000 	streq	r0, [r3, -r0]
    52f0:	00000c2a 	andeq	r0, r0, sl, lsr #24
    52f4:	2e050002 	cdpcs	0, 0, cr0, cr5, cr2, {0}
    52f8:	0400000e 	streq	r0, [r0], #-14
    52fc:	00830315 	addeq	r0, r3, r5, lsl r3
    5300:	d4080000 	strle	r0, [r8], #-0
    5304:	0100000d 	tsteq	r0, sp
    5308:	0033171d 	eorseq	r1, r3, sp, lsl r7
    530c:	001c0000 	andseq	r0, ip, r0
    5310:	ca082020 	bgt	20d398 <__bss_end__+0x202840>
    5314:	0100000d 	tsteq	r0, sp
    5318:	0033171e 	eorseq	r1, r3, lr, lsl r7
    531c:	00280000 	eoreq	r0, r8, r0
    5320:	3a082020 	bcc	20d3a8 <__bss_end__+0x202850>
    5324:	0100000e 	tsteq	r0, lr
    5328:	0033171f 	eorseq	r1, r3, pc, lsl r7
    532c:	00340000 	eorseq	r0, r4, r0
    5330:	f3092020 	vhadd.u8	d2, d9, d16
    5334:	0100000d 	tsteq	r0, sp
    5338:	00250555 	eoreq	r0, r5, r5, asr r5
    533c:	9cd40000 	ldclls	0, cr0, [r4], {0}
    5340:	00340000 	eorseq	r0, r4, r0
    5344:	9c010000 	stcls	0, cr0, [r1], {-0}
    5348:	0000016e 	andeq	r0, r0, lr, ror #2
    534c:	6e69700a 	cdpvs	0, 6, cr7, cr9, cr10, {0}
    5350:	18550100 	ldmdane	r5, {r8}^
    5354:	0000002c 	andeq	r0, r0, ip, lsr #32
    5358:	000020b6 	strheq	r2, [r0], -r6
    535c:	000020ae 	andeq	r2, r0, lr, lsr #1
    5360:	000e440b 	andeq	r4, lr, fp, lsl #8
    5364:	0e580100 	rdfeqe	f0, f0, f0
    5368:	0000002c 	andeq	r0, r0, ip, lsr #32
    536c:	000020f6 	strdeq	r2, [r0], -r6
    5370:	000020f0 	strdeq	r2, [r0], -r0
    5374:	66666f0c 	strbtvs	r6, [r6], -ip, lsl #30
    5378:	0e590100 	rdfeqe	f0, f1, f0
    537c:	0000002c 	andeq	r0, r0, ip, lsr #32
    5380:	00002136 	andeq	r2, r0, r6, lsr r1
    5384:	00002134 	andeq	r2, r0, r4, lsr r1
    5388:	009cf00d 	addseq	pc, ip, sp
    538c:	00039000 	andeq	r9, r3, r0
    5390:	50010e00 	andpl	r0, r1, r0, lsl #28
    5394:	5001f30b 	andpl	pc, r1, fp, lsl #6
    5398:	b4232535 	strtlt	r2, [r3], #-1333	; 0xfffffacb
    539c:	02818080 	addeq	r8, r1, #128	; 0x80
    53a0:	de0f0000 	cdple	0, 0, cr0, cr15, cr0, {0}
    53a4:	0100000d 	tsteq	r0, sp
    53a8:	9cb8064e 	ldcls	6, cr0, [r8], #312	; 0x138
    53ac:	001c0000 	andseq	r0, ip, r0
    53b0:	9c010000 	stcls	0, cr0, [r1], {-0}
    53b4:	000001c9 	andeq	r0, r0, r9, asr #3
    53b8:	6e69700a 	cdpvs	0, 6, cr7, cr9, cr10, {0}
    53bc:	1a4e0100 	bne	13857c4 <__bss_end__+0x137ac6c>
    53c0:	0000002c 	andeq	r0, r0, ip, lsr #32
    53c4:	00002151 	andeq	r2, r0, r1, asr r1
    53c8:	00002149 	andeq	r2, r0, r9, asr #2
    53cc:	0100760a 	tsteq	r0, sl, lsl #12
    53d0:	002c284e 	eoreq	r2, ip, lr, asr #16
    53d4:	21930000 	orrscs	r0, r3, r0
    53d8:	218b0000 	orrcs	r0, fp, r0
    53dc:	c8100000 	ldmdagt	r0, {}	; <UNPREDICTABLE>
    53e0:	5100009c 	swppl	r0, ip, [r0]	; <UNPREDICTABLE>
    53e4:	bf000002 	svclt	0x00000002
    53e8:	0e000001 	cdpeq	0, 0, cr0, cr0, cr1, {0}
    53ec:	f3035001 	vhadd.u8	d5, d3, d1
    53f0:	11005001 	tstne	r0, r1
    53f4:	00009cd0 	ldrdeq	r9, [r0], -r0
    53f8:	0000020a 	andeq	r0, r0, sl, lsl #4
    53fc:	0dfd0f00 	ldcleq	15, cr0, [sp]
    5400:	49010000 	stmdbmi	r1, {}	; <UNPREDICTABLE>
    5404:	009ca806 	addseq	sl, ip, r6, lsl #16
    5408:	00001000 	andeq	r1, r0, r0
    540c:	0a9c0100 	beq	fe705814 <__bss_end__+0xfe6facbc>
    5410:	0a000002 	beq	5420 <__code_start__-0x2be0>
    5414:	006e6970 	rsbeq	r6, lr, r0, ror r9
    5418:	2c1e4901 			; <UNDEFINED> instruction: 0x2c1e4901
    541c:	d1000000 	mrsle	r0, (UNDEF: 0)
    5420:	cd000021 	stcgt	0, cr0, [r0, #-132]	; 0xffffff7c
    5424:	0d000021 	stceq	0, cr0, [r0, #-132]	; 0xffffff7c
    5428:	00009cb4 			; <UNDEFINED> instruction: 0x00009cb4
    542c:	000002d9 	ldrdeq	r0, [r0], -r9
    5430:	0350010e 	cmpeq	r0, #-2147483645	; 0x80000003
    5434:	0e5001f3 	mrceq	1, 2, r0, cr0, cr3, {7}
    5438:	30015101 	andcc	r5, r1, r1, lsl #2
    543c:	0c0f0000 	stceq	0, cr0, [pc], {-0}
    5440:	0100000e 	tsteq	r0, lr
    5444:	9c840642 	stcls	6, cr0, [r4], {66}	; 0x42
    5448:	00240000 	eoreq	r0, r4, r0
    544c:	9c010000 	stcls	0, cr0, [r1], {-0}
    5450:	00000251 	andeq	r0, r0, r1, asr r2
    5454:	6e69700a 	cdpvs	0, 6, cr7, cr9, cr10, {0}
    5458:	1c420100 	stfnee	f0, [r2], {-0}
    545c:	0000002c 	andeq	r0, r0, ip, lsr #32
    5460:	000021f6 	strdeq	r2, [r0], -r6
    5464:	000021f2 	strdeq	r2, [r0], -r2	; <UNPREDICTABLE>
    5468:	009ca00d 	addseq	sl, ip, sp
    546c:	00039c00 	andeq	r9, r3, r0, lsl #24
    5470:	50010e00 	andpl	r0, r1, r0, lsl #28
    5474:	00280c05 	eoreq	r0, r8, r5, lsl #24
    5478:	010e2020 	tsteq	lr, r0, lsr #32
    547c:	f3310551 	vqrshl.u64	q0, <illegal reg q0.5>, <illegal reg q0.5>
    5480:	00245001 	eoreq	r5, r4, r1
    5484:	0e500f00 	cdpeq	15, 5, cr0, cr0, cr0, {0}
    5488:	3b010000 	blcc	45490 <__bss_end__+0x3a938>
    548c:	009c6006 	addseq	r6, ip, r6
    5490:	00002400 	andeq	r2, r0, r0, lsl #8
    5494:	989c0100 	ldmls	ip, {r8}
    5498:	0a000002 	beq	54a8 <__code_start__-0x2b58>
    549c:	006e6970 	rsbeq	r6, lr, r0, ror r9
    54a0:	2c1b3b01 			; <UNDEFINED> instruction: 0x2c1b3b01
    54a4:	1b000000 	blne	54ac <__code_start__-0x2b54>
    54a8:	17000022 	strne	r0, [r0, -r2, lsr #32]
    54ac:	0d000022 	stceq	0, cr0, [r0, #-136]	; 0xffffff78
    54b0:	00009c7c 	andeq	r9, r0, ip, ror ip
    54b4:	0000039c 	muleq	r0, ip, r3
    54b8:	0550010e 	ldrbeq	r0, [r0, #-270]	; 0xfffffef2
    54bc:	20001c0c 	andcs	r1, r0, ip, lsl #24
    54c0:	51010e20 	tstpl	r1, r0, lsr #28
    54c4:	01f33105 	mvnseq	r3, r5, lsl #2
    54c8:	00002450 	andeq	r2, r0, r0, asr r4
    54cc:	000e190f 	andeq	r1, lr, pc, lsl #18
    54d0:	06360100 	ldrteq	r0, [r6], -r0, lsl #2
    54d4:	00009c50 	andeq	r9, r0, r0, asr ip
    54d8:	00000010 	andeq	r0, r0, r0, lsl r0
    54dc:	02d99c01 	sbcseq	r9, r9, #256	; 0x100
    54e0:	700a0000 	andvc	r0, sl, r0
    54e4:	01006e69 	tsteq	r0, r9, ror #28
    54e8:	002c1f36 	eoreq	r1, ip, r6, lsr pc
    54ec:	22400000 	subcs	r0, r0, #0
    54f0:	223c0000 	eorscs	r0, ip, #0
    54f4:	5c0d0000 	stcpl	0, cr0, [sp], {-0}
    54f8:	d900009c 	stmdble	r0, {r2, r3, r4, r7}
    54fc:	0e000002 	cdpeq	0, 0, cr0, cr0, cr2, {0}
    5500:	f3035001 	vhadd.u8	d5, d3, d1
    5504:	010e5001 	tsteq	lr, r1
    5508:	00310151 	eorseq	r0, r1, r1, asr r1
    550c:	0cf20f00 	ldcleq	15, cr0, [r2]
    5510:	28010000 	stmdacs	r1, {}	; <UNPREDICTABLE>
    5514:	009bec06 	addseq	lr, fp, r6, lsl #24
    5518:	00006400 	andeq	r6, r0, r0, lsl #8
    551c:	749c0100 	ldrvc	r0, [ip], #256	; 0x100
    5520:	0a000003 	beq	5534 <__code_start__-0x2acc>
    5524:	006e6970 	rsbeq	r6, lr, r0, ror r9
    5528:	2c212801 	stccs	8, cr2, [r1], #-4
    552c:	65000000 	strvs	r0, [r0, #-0]
    5530:	61000022 	tstvs	r0, r2, lsr #32
    5534:	12000022 	andne	r0, r0, #34	; 0x22
    5538:	00000e29 	andeq	r0, r0, r9, lsr #28
    553c:	c2322801 	eorsgt	r2, r2, #65536	; 0x10000
    5540:	8a000000 	bhi	5548 <__code_start__-0x2ab8>
    5544:	86000022 	strhi	r0, [r0], -r2, lsr #32
    5548:	0c000022 	stceq	0, cr0, [r0], {34}	; 0x22
    554c:	0066666f 	rsbeq	r6, r6, pc, ror #12
    5550:	2c0e2d01 	stccs	13, cr2, [lr], {1}
    5554:	ad000000 	stcge	0, cr0, [r0, #-0]
    5558:	ab000022 	blge	55e8 <__code_start__-0x2a18>
    555c:	0c000022 	stceq	0, cr0, [r0], {34}	; 0x22
    5560:	2e010067 	cdpcs	0, 0, cr0, cr1, cr7, {3}
    5564:	00002c0e 	andeq	r2, r0, lr, lsl #24
    5568:	0022c200 	eoreq	ip, r2, r0, lsl #4
    556c:	0022c000 	eoreq	ip, r2, r0
    5570:	00760c00 	rsbseq	r0, r6, r0, lsl #24
    5574:	2c0e3001 	stccs	0, cr3, [lr], {1}
    5578:	dd000000 	stcle	0, cr0, [r0, #-0]
    557c:	d5000022 	strle	r0, [r0, #-34]	; 0xffffffde
    5580:	10000022 	andne	r0, r0, r2, lsr #32
    5584:	00009c34 	andeq	r9, r0, r4, lsr ip
    5588:	00000390 	muleq	r0, r0, r3
    558c:	00000363 	andeq	r0, r0, r3, ror #6
    5590:	0250010e 	subseq	r0, r0, #-2147483645	; 0x80000003
    5594:	0d000076 	stceq	0, cr0, [r0, #-472]	; 0xfffffe28
    5598:	00009c48 	andeq	r9, r0, r8, asr #24
    559c:	0000039c 	muleq	r0, ip, r3
    55a0:	0250010e 	subseq	r0, r0, #-2147483645	; 0x80000003
    55a4:	00000076 	andeq	r0, r0, r6, ror r0
    55a8:	000de913 	andeq	lr, sp, r3, lsl r9
    55ac:	18b10200 	ldmne	r1!, {r9}
    55b0:	00000062 	andeq	r0, r0, r2, rrx
    55b4:	00039003 	andeq	r9, r3, r3
    55b8:	00781400 	rsbseq	r1, r8, r0, lsl #8
    55bc:	622bb102 	eorvs	fp, fp, #-2147483648	; 0x80000000
    55c0:	00000000 	andeq	r0, r0, r0
    55c4:	000b5115 	andeq	r5, fp, r5, lsl r1
    55c8:	000b5100 	andeq	r5, fp, r0, lsl #2
    55cc:	0ac20200 	beq	ff085dd4 <__bss_end__+0xff07b27c>
    55d0:	000ab315 	andeq	fp, sl, r5, lsl r3
    55d4:	000ab300 	andeq	fp, sl, r0, lsl #6
    55d8:	06ad0200 	strteq	r0, [sp], r0, lsl #4
	...

Disassembly of section .debug_abbrev:

00000000 <.debug_abbrev>:
       0:	25011101 	strcs	r1, [r1, #-257]	; 0xfffffeff
       4:	030b130e 	movweq	r1, #45838	; 0xb30e
       8:	110e1b0e 	tstne	lr, lr, lsl #22
       c:	10061201 	andne	r1, r6, r1, lsl #4
      10:	02000017 	andeq	r0, r0, #23
      14:	0b0b0024 	bleq	2c00ac <__bss_end__+0x2b5554>
      18:	08030b3e 	stmdaeq	r3, {r1, r2, r3, r4, r5, r8, r9, fp}
      1c:	24030000 	strcs	r0, [r3], #-0
      20:	3e0b0b00 	vmlacc.f64	d0, d11, d0
      24:	000e030b 	andeq	r0, lr, fp, lsl #6
      28:	00160400 	andseq	r0, r6, r0, lsl #8
      2c:	0b3a0e03 	bleq	e83840 <__bss_end__+0xe78ce8>
      30:	0b390b3b 	bleq	e42d24 <__bss_end__+0xe381cc>
      34:	00001349 	andeq	r1, r0, r9, asr #6
      38:	0b000f05 	bleq	3c54 <__code_start__-0x43ac>
      3c:	0013490b 	andseq	r4, r3, fp, lsl #18
      40:	00260600 	eoreq	r0, r6, r0, lsl #12
      44:	00001349 	andeq	r1, r0, r9, asr #6
      48:	03011307 	movweq	r1, #4871	; 0x1307
      4c:	3a0b0b0e 	bcc	2c2c8c <__bss_end__+0x2b8134>
      50:	390b3b0b 	stmdbcc	fp, {r0, r1, r3, r8, r9, fp, ip, sp}
      54:	0013010b 	andseq	r0, r3, fp, lsl #2
      58:	000d0800 	andeq	r0, sp, r0, lsl #16
      5c:	0b3a0e03 	bleq	e83870 <__bss_end__+0xe78d18>
      60:	0b390b3b 	bleq	e42d54 <__bss_end__+0xe381fc>
      64:	0b381349 	bleq	e04d90 <__bss_end__+0xdfa238>
      68:	15090000 	strne	r0, [r9, #-0]
      6c:	00192700 	andseq	r2, r9, r0, lsl #14
      70:	00340a00 	eorseq	r0, r4, r0, lsl #20
      74:	0b3a0e03 	bleq	e83888 <__bss_end__+0xe78d30>
      78:	0b390b3b 	bleq	e42d6c <__bss_end__+0xe38214>
      7c:	193f1349 	ldmdbne	pc!, {r0, r3, r6, r8, r9, ip}	; <UNPREDICTABLE>
      80:	0000193c 	andeq	r1, r0, ip, lsr r9
      84:	3e01040b 	cdpcc	4, 0, cr0, cr1, cr11, {0}
      88:	490b0b0b 	stmdbmi	fp, {r0, r1, r3, r8, r9, fp}
      8c:	3b0b3a13 	blcc	2ce8e0 <__bss_end__+0x2c3d88>
      90:	010b390b 	tsteq	fp, fp, lsl #18
      94:	0c000013 	stceq	0, cr0, [r0], {19}
      98:	0e030028 	cdpeq	0, 0, cr0, cr3, cr8, {1}
      9c:	00000b1c 	andeq	r0, r0, ip, lsl fp
      a0:	0300340d 	movweq	r3, #1037	; 0x40d
      a4:	3b0b3a0e 	blcc	2ce8e4 <__bss_end__+0x2c3d8c>
      a8:	490b390b 	stmdbmi	fp, {r0, r1, r3, r8, fp, ip, sp}
      ac:	0e000013 	mcreq	0, 0, r0, cr0, cr3, {0}
      b0:	13470034 	movtne	r0, #28724	; 0x7034
      b4:	0b3b0b3a 	bleq	ec2da4 <__bss_end__+0xeb824c>
      b8:	18020b39 	stmdane	r2, {r0, r3, r4, r5, r8, r9, fp}
      bc:	340f0000 	strcc	r0, [pc], #-0	; c4 <__code_start__-0x7f3c>
      c0:	3a0e0300 	bcc	380cc8 <__bss_end__+0x376170>
      c4:	390b3b0b 	stmdbcc	fp, {r0, r1, r3, r8, r9, fp, ip, sp}
      c8:	0213490b 	andseq	r4, r3, #180224	; 0x2c000
      cc:	10000018 	andne	r0, r0, r8, lsl r0
      d0:	193f012e 	ldmdbne	pc!, {r1, r2, r3, r5, r8}	; <UNPREDICTABLE>
      d4:	0b3a0e03 	bleq	e838e8 <__bss_end__+0xe78d90>
      d8:	0b390b3b 	bleq	e42dcc <__bss_end__+0xe38274>
      dc:	01111927 	tsteq	r1, r7, lsr #18
      e0:	18400612 	stmdane	r0, {r1, r4, r9, sl}^
      e4:	01194297 			; <UNDEFINED> instruction: 0x01194297
      e8:	11000013 	tstne	r0, r3, lsl r0
      ec:	08030034 	stmdaeq	r3, {r2, r4, r5}
      f0:	0b3b0b3a 	bleq	ec2de0 <__bss_end__+0xeb8288>
      f4:	13490b39 	movtne	r0, #39737	; 0x9b39
      f8:	00001802 	andeq	r1, r0, r2, lsl #16
      fc:	03003412 	movweq	r3, #1042	; 0x412
     100:	3b0b3a0e 	blcc	2ce940 <__bss_end__+0x2c3de8>
     104:	490b390b 	stmdbmi	fp, {r0, r1, r3, r8, fp, ip, sp}
     108:	b7170213 			; <UNDEFINED> instruction: 0xb7170213
     10c:	00001742 	andeq	r1, r0, r2, asr #14
     110:	03003413 	movweq	r3, #1043	; 0x413
     114:	3413490e 	ldrcc	r4, [r3], #-2318	; 0xfffff6f2
     118:	00180219 	andseq	r0, r8, r9, lsl r2
     11c:	011d1400 	tsteq	sp, r0, lsl #8
     120:	01521331 	cmpeq	r2, r1, lsr r3
     124:	110b42b8 			; <UNDEFINED> instruction: 0x110b42b8
     128:	58061201 	stmdapl	r6, {r0, r9, ip}
     12c:	570b590b 	strpl	r5, [fp, -fp, lsl #18]
     130:	0013010b 	andseq	r0, r3, fp, lsl #2
     134:	00341500 	eorseq	r1, r4, r0, lsl #10
     138:	17021331 	smladxne	r2, r1, r3, r1
     13c:	001742b7 			; <UNDEFINED> instruction: 0x001742b7
     140:	82891600 	addhi	r1, r9, #0, 12
     144:	01110101 	tsteq	r1, r1, lsl #2
     148:	13011331 	movwne	r1, #4913	; 0x1331
     14c:	8a170000 	bhi	5c0154 <__bss_end__+0x5b55fc>
     150:	02000182 	andeq	r0, r0, #-2147483616	; 0x80000020
     154:	18429118 	stmdane	r2, {r3, r4, r8, ip, pc}^
     158:	89180000 	ldmdbhi	r8, {}	; <UNPREDICTABLE>
     15c:	11000182 	smlabbne	r0, r2, r1, r0
     160:	00133101 	andseq	r3, r3, r1, lsl #2
     164:	82891900 	addhi	r1, r9, #0, 18
     168:	01110001 	tsteq	r1, r1
     16c:	00184293 	mulseq	r8, r3, r2
     170:	00151a00 	andseq	r1, r5, r0, lsl #20
     174:	13491927 	movtne	r1, #39207	; 0x9927
     178:	011b0000 	tsteq	fp, r0
     17c:	01134901 	tsteq	r3, r1, lsl #18
     180:	1c000013 	stcne	0, cr0, [r0], {19}
     184:	13490021 	movtne	r0, #36897	; 0x9021
     188:	00000b2f 	andeq	r0, r0, pc, lsr #22
     18c:	3f012e1d 	svccc	0x00012e1d
     190:	3a0e0319 	bcc	380dfc <__bss_end__+0x3762a4>
     194:	390b3b0b 	stmdbcc	fp, {r0, r1, r3, r8, r9, fp, ip, sp}
     198:	4919270b 	ldmdbmi	r9, {r0, r1, r3, r8, r9, sl, sp}
     19c:	12011113 	andne	r1, r1, #-1073741820	; 0xc0000004
     1a0:	97184006 	ldrls	r4, [r8, -r6]
     1a4:	13011942 	movwne	r1, #6466	; 0x1942
     1a8:	051e0000 	ldreq	r0, [lr, #-0]
     1ac:	3a0e0300 	bcc	380db4 <__bss_end__+0x37625c>
     1b0:	390b3b0b 	stmdbcc	fp, {r0, r1, r3, r8, r9, fp, ip, sp}
     1b4:	0213490b 	andseq	r4, r3, #180224	; 0x2c000
     1b8:	1742b717 	smlaldne	fp, r2, r7, r7
     1bc:	051f0000 	ldreq	r0, [pc, #-0]	; 1c4 <__code_start__-0x7e3c>
     1c0:	3a080300 	bcc	200dc8 <__bss_end__+0x1f6270>
     1c4:	390b3b0b 	stmdbcc	fp, {r0, r1, r3, r8, r9, fp, ip, sp}
     1c8:	0213490b 	andseq	r4, r3, #180224	; 0x2c000
     1cc:	1742b717 	smlaldne	fp, r2, r7, r7
     1d0:	2e200000 	cdpcs	0, 2, cr0, cr0, cr0, {0}
     1d4:	3a0e0301 	bcc	380de0 <__bss_end__+0x376288>
     1d8:	390b3b0b 	stmdbcc	fp, {r0, r1, r3, r8, r9, fp, ip, sp}
     1dc:	4919270b 	ldmdbmi	r9, {r0, r1, r3, r8, r9, sl, sp}
     1e0:	010b2013 	tsteq	fp, r3, lsl r0
     1e4:	21000013 	tstcs	r0, r3, lsl r0
     1e8:	08030034 	stmdaeq	r3, {r2, r4, r5}
     1ec:	0b3b0b3a 	bleq	ec2edc <__bss_end__+0xeb8384>
     1f0:	13490b39 	movtne	r0, #39737	; 0x9b39
     1f4:	2e220000 	cdpcs	0, 2, cr0, cr2, cr0, {0}
     1f8:	3a0e0301 	bcc	380e04 <__bss_end__+0x3762ac>
     1fc:	390b3b0b 	stmdbcc	fp, {r0, r1, r3, r8, r9, fp, ip, sp}
     200:	1119270b 	tstne	r9, fp, lsl #14
     204:	40061201 	andmi	r1, r6, r1, lsl #4
     208:	19429718 	stmdbne	r2, {r3, r4, r8, r9, sl, ip, pc}^
     20c:	00001301 	andeq	r1, r0, r1, lsl #6
     210:	03003423 	movweq	r3, #1059	; 0x423
     214:	3b0b3a08 	blcc	2cea3c <__bss_end__+0x2c3ee4>
     218:	490b390b 	stmdbmi	fp, {r0, r1, r3, r8, fp, ip, sp}
     21c:	b7170213 			; <UNDEFINED> instruction: 0xb7170213
     220:	00001742 	andeq	r1, r0, r2, asr #14
     224:	31000524 	tstcc	r0, r4, lsr #10
     228:	b7170213 			; <UNDEFINED> instruction: 0xb7170213
     22c:	00001742 	andeq	r1, r0, r2, asr #14
     230:	31011d25 	tstcc	r1, r5, lsr #26
     234:	b8015213 	stmdalt	r1, {r0, r1, r4, r9, ip, lr}
     238:	01110b42 	tsteq	r1, r2, asr #22
     23c:	0b580612 	bleq	1601a8c <__bss_end__+0x15f6f34>
     240:	0b570b59 	bleq	15c2fac <__bss_end__+0x15b8454>
     244:	0f260000 	svceq	0x00260000
     248:	000b0b00 	andeq	r0, fp, r0, lsl #22
     24c:	002e2700 	eoreq	r2, lr, r0, lsl #14
     250:	0b3a0e03 	bleq	e83a64 <__bss_end__+0xe78f0c>
     254:	0b390b3b 	bleq	e42f48 <__bss_end__+0xe383f0>
     258:	13491927 	movtne	r1, #39207	; 0x9927
     25c:	00000b20 	andeq	r0, r0, r0, lsr #22
     260:	03012e28 	movweq	r2, #7720	; 0x1e28
     264:	3b0b3a0e 	blcc	2ceaa4 <__bss_end__+0x2c3f4c>
     268:	270b390b 	strcs	r3, [fp, -fp, lsl #18]
     26c:	010b2019 	tsteq	fp, r9, lsl r0
     270:	29000013 	stmdbcs	r0, {r0, r1, r4}
     274:	08030005 	stmdaeq	r3, {r0, r2}
     278:	0b3b0b3a 	bleq	ec2f68 <__bss_end__+0xeb8410>
     27c:	13490b39 	movtne	r0, #39737	; 0x9b39
     280:	342a0000 	strtcc	r0, [sl], #-0
     284:	490e0300 	stmdbmi	lr, {r8, r9}
     288:	00193413 	andseq	r3, r9, r3, lsl r4
     28c:	00052b00 	andeq	r2, r5, r0, lsl #22
     290:	0b3a0e03 	bleq	e83aa4 <__bss_end__+0xe78f4c>
     294:	0b390b3b 	bleq	e42f88 <__bss_end__+0xe38430>
     298:	00001349 	andeq	r1, r0, r9, asr #6
     29c:	3f002e2c 	svccc	0x00002e2c
     2a0:	6e193c19 	mrcvs	12, 0, r3, cr9, cr9, {0}
     2a4:	3a0e030e 	bcc	380ee4 <__bss_end__+0x37638c>
     2a8:	390b3b0b 	stmdbcc	fp, {r0, r1, r3, r8, r9, fp, ip, sp}
     2ac:	0000000b 	andeq	r0, r0, fp
     2b0:	25011101 	strcs	r1, [r1, #-257]	; 0xfffffeff
     2b4:	030b130e 	movweq	r1, #45838	; 0xb30e
     2b8:	110e1b0e 	tstne	lr, lr, lsl #22
     2bc:	10061201 	andne	r1, r6, r1, lsl #4
     2c0:	02000017 	andeq	r0, r0, #23
     2c4:	0b0b0024 	bleq	2c035c <__bss_end__+0x2b5804>
     2c8:	08030b3e 	stmdaeq	r3, {r1, r2, r3, r4, r5, r8, r9, fp}
     2cc:	24030000 	strcs	r0, [r3], #-0
     2d0:	3e0b0b00 	vmlacc.f64	d0, d11, d0
     2d4:	000e030b 	andeq	r0, lr, fp, lsl #6
     2d8:	00160400 	andseq	r0, r6, r0, lsl #8
     2dc:	0b3a0e03 	bleq	e83af0 <__bss_end__+0xe78f98>
     2e0:	0b390b3b 	bleq	e42fd4 <__bss_end__+0xe3847c>
     2e4:	00001349 	andeq	r1, r0, r9, asr #6
     2e8:	0b000f05 	bleq	3f04 <__code_start__-0x40fc>
     2ec:	0013490b 	andseq	r4, r3, fp, lsl #18
     2f0:	00260600 	eoreq	r0, r6, r0, lsl #12
     2f4:	00001349 	andeq	r1, r0, r9, asr #6
     2f8:	03011307 	movweq	r1, #4871	; 0x1307
     2fc:	3a0b0b0e 	bcc	2c2f3c <__bss_end__+0x2b83e4>
     300:	390b3b0b 	stmdbcc	fp, {r0, r1, r3, r8, r9, fp, ip, sp}
     304:	0013010b 	andseq	r0, r3, fp, lsl #2
     308:	000d0800 	andeq	r0, sp, r0, lsl #16
     30c:	0b3a0e03 	bleq	e83b20 <__bss_end__+0xe78fc8>
     310:	0b390b3b 	bleq	e43004 <__bss_end__+0xe384ac>
     314:	0b381349 	bleq	e05040 <__bss_end__+0xdfa4e8>
     318:	15090000 	strne	r0, [r9, #-0]
     31c:	00192700 	andseq	r2, r9, r0, lsl #14
     320:	01010a00 	tsteq	r1, r0, lsl #20
     324:	13011349 	movwne	r1, #4937	; 0x1349
     328:	210b0000 	mrscs	r0, (UNDEF: 11)
     32c:	2f134900 	svccs	0x00134900
     330:	0c00000b 	stceq	0, cr0, [r0], {11}
     334:	0e030034 	mcreq	0, 0, r0, cr3, cr4, {1}
     338:	0b3b0b3a 	bleq	ec3028 <__bss_end__+0xeb84d0>
     33c:	13490b39 	movtne	r0, #39737	; 0x9b39
     340:	00001802 	andeq	r1, r0, r2, lsl #16
     344:	3f012e0d 	svccc	0x00012e0d
     348:	3a0e0319 	bcc	380fb4 <__bss_end__+0x37645c>
     34c:	390b3b0b 	stmdbcc	fp, {r0, r1, r3, r8, r9, fp, ip, sp}
     350:	4919270b 	ldmdbmi	r9, {r0, r1, r3, r8, r9, sl, sp}
     354:	12011113 	andne	r1, r1, #-1073741820	; 0xc0000004
     358:	97184006 	ldrls	r4, [r8, -r6]
     35c:	13011942 	movwne	r1, #6466	; 0x1942
     360:	340e0000 	strcc	r0, [lr], #-0
     364:	490e0300 	stmdbmi	lr, {r8, r9}
     368:	02193413 	andseq	r3, r9, #318767104	; 0x13000000
     36c:	0f000018 	svceq	0x00000018
     370:	01018289 	smlabbeq	r1, r9, r2, r8
     374:	13310111 	teqne	r1, #1073741828	; 0x40000004
     378:	00001301 	andeq	r1, r0, r1, lsl #6
     37c:	01828a10 	orreq	r8, r2, r0, lsl sl
     380:	91180200 	tstls	r8, r0, lsl #4
     384:	00001842 	andeq	r1, r0, r2, asr #16
     388:	01828911 	orreq	r8, r2, r1, lsl r9
     38c:	31011100 	mrscc	r1, (UNDEF: 17)
     390:	12000013 	andne	r0, r0, #19
     394:	193f012e 	ldmdbne	pc!, {r1, r2, r3, r5, r8}	; <UNPREDICTABLE>
     398:	0b3a0e03 	bleq	e83bac <__bss_end__+0xe79054>
     39c:	0b390b3b 	bleq	e43090 <__bss_end__+0xe38538>
     3a0:	01111927 	tsteq	r1, r7, lsr #18
     3a4:	18400612 	stmdane	r0, {r1, r4, r9, sl}^
     3a8:	01194297 			; <UNDEFINED> instruction: 0x01194297
     3ac:	13000013 	movwne	r0, #19
     3b0:	0e030034 	mcreq	0, 0, r0, cr3, cr4, {1}
     3b4:	0b3b0b3a 	bleq	ec30a4 <__bss_end__+0xeb854c>
     3b8:	13490b39 	movtne	r0, #39737	; 0x9b39
     3bc:	193c193f 	ldmdbne	ip!, {r0, r1, r2, r3, r4, r5, r8, fp, ip}
     3c0:	34140000 	ldrcc	r0, [r4], #-0
     3c4:	3a080300 	bcc	200fcc <__bss_end__+0x1f6474>
     3c8:	390b3b0b 	stmdbcc	fp, {r0, r1, r3, r8, r9, fp, ip, sp}
     3cc:	0013490b 	andseq	r4, r3, fp, lsl #18
     3d0:	00341500 	eorseq	r1, r4, r0, lsl #10
     3d4:	0b3a0e03 	bleq	e83be8 <__bss_end__+0xe79090>
     3d8:	0b390b3b 	bleq	e430cc <__bss_end__+0xe38574>
     3dc:	17021349 	strne	r1, [r2, -r9, asr #6]
     3e0:	001742b7 			; <UNDEFINED> instruction: 0x001742b7
     3e4:	00341600 	eorseq	r1, r4, r0, lsl #12
     3e8:	0b3a0803 	bleq	e823fc <__bss_end__+0xe778a4>
     3ec:	0b390b3b 	bleq	e430e0 <__bss_end__+0xe38588>
     3f0:	17021349 	strne	r1, [r2, -r9, asr #6]
     3f4:	001742b7 			; <UNDEFINED> instruction: 0x001742b7
     3f8:	002e1700 	eoreq	r1, lr, r0, lsl #14
     3fc:	193c193f 	ldmdbne	ip!, {r0, r1, r2, r3, r4, r5, r8, fp, ip}
     400:	0e030e6e 	cdpeq	14, 0, cr0, cr3, cr14, {3}
     404:	0b3b0b3a 	bleq	ec30f4 <__bss_end__+0xeb859c>
     408:	00000b39 	andeq	r0, r0, r9, lsr fp
     40c:	01110100 	tsteq	r1, r0, lsl #2
     410:	0b130e25 	bleq	4c3cac <__bss_end__+0x4b9154>
     414:	0e1b0e03 	cdpeq	14, 1, cr0, cr11, cr3, {0}
     418:	06120111 			; <UNDEFINED> instruction: 0x06120111
     41c:	00001710 	andeq	r1, r0, r0, lsl r7
     420:	0b002402 	bleq	9430 <pad>
     424:	030b3e0b 	movweq	r3, #48651	; 0xbe0b
     428:	03000008 	movweq	r0, #8
     42c:	0b0b0024 	bleq	2c04c4 <__bss_end__+0x2b596c>
     430:	0e030b3e 	vmoveq.16	d3[0], r0
     434:	16040000 	strne	r0, [r4], -r0
     438:	3a0e0300 	bcc	381040 <__bss_end__+0x3764e8>
     43c:	390b3b0b 	stmdbcc	fp, {r0, r1, r3, r8, r9, fp, ip, sp}
     440:	0013490b 	andseq	r4, r3, fp, lsl #18
     444:	00340500 	eorseq	r0, r4, r0, lsl #10
     448:	0b3a0e03 	bleq	e83c5c <__bss_end__+0xe79104>
     44c:	0b390b3b 	bleq	e43140 <__bss_end__+0xe385e8>
     450:	18021349 	stmdane	r2, {r0, r3, r6, r8, r9, ip}
     454:	2e060000 	cdpcs	0, 0, cr0, cr6, cr0, {0}
     458:	03193f00 	tsteq	r9, #0, 30
     45c:	3b0b3a0e 	blcc	2cec9c <__bss_end__+0x2c4144>
     460:	270b390b 	strcs	r3, [fp, -fp, lsl #18]
     464:	11134919 	tstne	r3, r9, lsl r9
     468:	40061201 	andmi	r1, r6, r1, lsl #4
     46c:	19429718 	stmdbne	r2, {r3, r4, r8, r9, sl, ip, pc}^
     470:	2e070000 	cdpcs	0, 0, cr0, cr7, cr0, {0}
     474:	03193f01 	tsteq	r9, #1, 30
     478:	3b0b3a0e 	blcc	2cecb8 <__bss_end__+0x2c4160>
     47c:	270b390b 	strcs	r3, [fp, -fp, lsl #18]
     480:	11134919 	tstne	r3, r9, lsl r9
     484:	40061201 	andmi	r1, r6, r1, lsl #4
     488:	19429718 	stmdbne	r2, {r3, r4, r8, r9, sl, ip, pc}^
     48c:	00001301 	andeq	r1, r0, r1, lsl #6
     490:	03000508 	movweq	r0, #1288	; 0x508
     494:	3b0b3a0e 	blcc	2cecd4 <__bss_end__+0x2c417c>
     498:	490b390b 	stmdbmi	fp, {r0, r1, r3, r8, fp, ip, sp}
     49c:	b7170213 			; <UNDEFINED> instruction: 0xb7170213
     4a0:	00001742 	andeq	r1, r0, r2, asr #14
     4a4:	03000509 	movweq	r0, #1289	; 0x509
     4a8:	3b0b3a08 	blcc	2cecd0 <__bss_end__+0x2c4178>
     4ac:	490b390b 	stmdbmi	fp, {r0, r1, r3, r8, fp, ip, sp}
     4b0:	b7170213 			; <UNDEFINED> instruction: 0xb7170213
     4b4:	00001742 	andeq	r1, r0, r2, asr #14
     4b8:	0300340a 	movweq	r3, #1034	; 0x40a
     4bc:	3b0b3a08 	blcc	2cece4 <__bss_end__+0x2c418c>
     4c0:	490b390b 	stmdbmi	fp, {r0, r1, r3, r8, fp, ip, sp}
     4c4:	b7170213 			; <UNDEFINED> instruction: 0xb7170213
     4c8:	00001742 	andeq	r1, r0, r2, asr #14
     4cc:	0182890b 	orreq	r8, r2, fp, lsl #18
     4d0:	31011100 	mrscc	r1, (UNDEF: 17)
     4d4:	0c000013 	stceq	0, cr0, [r0], {19}
     4d8:	01018289 	smlabbeq	r1, r9, r2, r8
     4dc:	13310111 	teqne	r1, #1073741828	; 0x40000004
     4e0:	00001301 	andeq	r1, r0, r1, lsl #6
     4e4:	01828a0d 	orreq	r8, r2, sp, lsl #20
     4e8:	91180200 	tstls	r8, r0, lsl #4
     4ec:	00001842 	andeq	r1, r0, r2, asr #16
     4f0:	2700150e 	strcs	r1, [r0, -lr, lsl #10]
     4f4:	00134919 	andseq	r4, r3, r9, lsl r9
     4f8:	000f0f00 	andeq	r0, pc, r0, lsl #30
     4fc:	13490b0b 	movtne	r0, #39691	; 0x9b0b
     500:	2e100000 	cdpcs	0, 1, cr0, cr0, cr0, {0}
     504:	03193f01 	tsteq	r9, #1, 30
     508:	3b0b3a0e 	blcc	2ced48 <__bss_end__+0x2c41f0>
     50c:	270b390b 	strcs	r3, [fp, -fp, lsl #18]
     510:	12011119 	andne	r1, r1, #1073741830	; 0x40000006
     514:	97184006 	ldrls	r4, [r8, -r6]
     518:	13011942 	movwne	r1, #6466	; 0x1942
     51c:	89110000 	ldmdbhi	r1, {}	; <UNPREDICTABLE>
     520:	11010182 	smlabbne	r1, r2, r1, r0
     524:	00133101 	andseq	r3, r3, r1, lsl #2
     528:	002e1200 	eoreq	r1, lr, r0, lsl #4
     52c:	193c193f 	ldmdbne	ip!, {r0, r1, r2, r3, r4, r5, r8, fp, ip}
     530:	0e030e6e 	cdpeq	14, 0, cr0, cr3, cr14, {3}
     534:	0b3b0b3a 	bleq	ec3224 <__bss_end__+0xeb86cc>
     538:	00000b39 	andeq	r0, r0, r9, lsr fp
     53c:	01110100 	tsteq	r1, r0, lsl #2
     540:	0b130e25 	bleq	4c3ddc <__bss_end__+0x4b9284>
     544:	0e1b0e03 	cdpeq	14, 1, cr0, cr11, cr3, {0}
     548:	06120111 			; <UNDEFINED> instruction: 0x06120111
     54c:	00001710 	andeq	r1, r0, r0, lsl r7
     550:	0b002402 	bleq	9560 <emit+0xcc>
     554:	030b3e0b 	movweq	r3, #48651	; 0xbe0b
     558:	03000008 	movweq	r0, #8
     55c:	0b0b0024 	bleq	2c05f4 <__bss_end__+0x2b5a9c>
     560:	0e030b3e 	vmoveq.16	d3[0], r0
     564:	16040000 	strne	r0, [r4], -r0
     568:	3a0e0300 	bcc	381170 <__bss_end__+0x376618>
     56c:	390b3b0b 	stmdbcc	fp, {r0, r1, r3, r8, r9, fp, ip, sp}
     570:	0013490b 	andseq	r4, r3, fp, lsl #18
     574:	000f0500 	andeq	r0, pc, r0, lsl #10
     578:	13490b0b 	movtne	r0, #39691	; 0x9b0b
     57c:	26060000 	strcs	r0, [r6], -r0
     580:	00134900 	andseq	r4, r3, r0, lsl #18
     584:	01130700 	tsteq	r3, r0, lsl #14
     588:	0b3a0b0b 	bleq	e831bc <__bss_end__+0xe78664>
     58c:	0b390b3b 	bleq	e43280 <__bss_end__+0xe38728>
     590:	00001301 	andeq	r1, r0, r1, lsl #6
     594:	03000d08 	movweq	r0, #3336	; 0xd08
     598:	3b0b3a0e 	blcc	2cedd8 <__bss_end__+0x2c4280>
     59c:	490b390b 	stmdbmi	fp, {r0, r1, r3, r8, fp, ip, sp}
     5a0:	000b3813 	andeq	r3, fp, r3, lsl r8
     5a4:	00340900 	eorseq	r0, r4, r0, lsl #18
     5a8:	0b3a0e03 	bleq	e83dbc <__bss_end__+0xe79264>
     5ac:	0b390b3b 	bleq	e432a0 <__bss_end__+0xe38748>
     5b0:	18021349 	stmdane	r2, {r0, r3, r6, r8, r9, ip}
     5b4:	2e0a0000 	cdpcs	0, 0, cr0, cr10, cr0, {0}
     5b8:	03193f01 	tsteq	r9, #1, 30
     5bc:	3b0b3a0e 	blcc	2cedfc <__bss_end__+0x2c42a4>
     5c0:	270b390b 	strcs	r3, [fp, -fp, lsl #18]
     5c4:	12011119 	andne	r1, r1, #1073741830	; 0x40000006
     5c8:	97184006 	ldrls	r4, [r8, -r6]
     5cc:	13011942 	movwne	r1, #6466	; 0x1942
     5d0:	050b0000 	streq	r0, [fp, #-0]
     5d4:	3a080300 	bcc	2011dc <__bss_end__+0x1f6684>
     5d8:	390b3b0b 	stmdbcc	fp, {r0, r1, r3, r8, r9, fp, ip, sp}
     5dc:	0213490b 	andseq	r4, r3, #180224	; 0x2c000
     5e0:	1742b717 	smlaldne	fp, r2, r7, r7
     5e4:	340c0000 	strcc	r0, [ip], #-0
     5e8:	3a080300 	bcc	2011f0 <__bss_end__+0x1f6698>
     5ec:	390b3b0b 	stmdbcc	fp, {r0, r1, r3, r8, r9, fp, ip, sp}
     5f0:	0213490b 	andseq	r4, r3, #180224	; 0x2c000
     5f4:	0d000018 	stceq	0, cr0, [r0, #-96]	; 0xffffffa0
     5f8:	01018289 	smlabbeq	r1, r9, r2, r8
     5fc:	13310111 	teqne	r1, #1073741828	; 0x40000004
     600:	00001301 	andeq	r1, r0, r1, lsl #6
     604:	01828a0e 	orreq	r8, r2, lr, lsl #20
     608:	91180200 	tstls	r8, r0, lsl #4
     60c:	00001842 	andeq	r1, r0, r2, asr #16
     610:	0182890f 	orreq	r8, r2, pc, lsl #18
     614:	31011101 	tstcc	r1, r1, lsl #2
     618:	10000013 	andne	r0, r0, r3, lsl r0
     61c:	193f012e 	ldmdbne	pc!, {r1, r2, r3, r5, r8}	; <UNPREDICTABLE>
     620:	0b3a0e03 	bleq	e83e34 <__bss_end__+0xe792dc>
     624:	0b390b3b 	bleq	e43318 <__bss_end__+0xe387c0>
     628:	13491927 	movtne	r1, #39207	; 0x9927
     62c:	06120111 			; <UNDEFINED> instruction: 0x06120111
     630:	42971840 	addsmi	r1, r7, #64, 16	; 0x400000
     634:	00130119 	andseq	r0, r3, r9, lsl r1
     638:	00051100 	andeq	r1, r5, r0, lsl #2
     63c:	0b3a0e03 	bleq	e83e50 <__bss_end__+0xe792f8>
     640:	0b390b3b 	bleq	e43334 <__bss_end__+0xe387dc>
     644:	17021349 	strne	r1, [r2, -r9, asr #6]
     648:	001742b7 			; <UNDEFINED> instruction: 0x001742b7
     64c:	00341200 	eorseq	r1, r4, r0, lsl #4
     650:	13490e03 	movtne	r0, #40451	; 0x9e03
     654:	18021934 	stmdane	r2, {r2, r4, r5, r8, fp, ip}
     658:	34130000 	ldrcc	r0, [r3], #-0
     65c:	3a080300 	bcc	201264 <__bss_end__+0x1f670c>
     660:	390b3b0b 	stmdbcc	fp, {r0, r1, r3, r8, r9, fp, ip, sp}
     664:	0013490b 	andseq	r4, r3, fp, lsl #18
     668:	011d1400 	tsteq	sp, r0, lsl #8
     66c:	01521331 	cmpeq	r2, r1, lsr r3
     670:	550b42b8 	strpl	r4, [fp, #-696]	; 0xfffffd48
     674:	590b5817 	stmdbpl	fp, {r0, r1, r2, r4, fp, ip, lr}
     678:	010b570b 	tsteq	fp, fp, lsl #14
     67c:	15000013 	strne	r0, [r0, #-19]	; 0xffffffed
     680:	1331011d 	teqne	r1, #1073741831	; 0x40000007
     684:	42b80152 	adcsmi	r0, r8, #-2147483628	; 0x80000014
     688:	5817550b 	ldmdapl	r7, {r0, r1, r3, r8, sl, ip, lr}
     68c:	570b590b 	strpl	r5, [fp, -fp, lsl #18]
     690:	1600000b 	strne	r0, [r0], -fp
     694:	13310005 	teqne	r1, #5
     698:	42b71702 	adcsmi	r1, r7, #524288	; 0x80000
     69c:	17000017 	smladne	r0, r7, r0, r0
     6a0:	1331011d 	teqne	r1, #1073741831	; 0x40000007
     6a4:	42b80152 	adcsmi	r0, r8, #-2147483628	; 0x80000014
     6a8:	1201110b 	andne	r1, r1, #-1073741822	; 0xc0000002
     6ac:	590b5806 	stmdbpl	fp, {r1, r2, fp, ip, lr}
     6b0:	010b570b 	tsteq	fp, fp, lsl #14
     6b4:	18000013 	stmdane	r0, {r0, r1, r4}
     6b8:	13310034 	teqne	r1, #52	; 0x34
     6bc:	42b71702 	adcsmi	r1, r7, #524288	; 0x80000
     6c0:	19000017 	stmdbne	r0, {r0, r1, r2, r4}
     6c4:	1755010b 	ldrbne	r0, [r5, -fp, lsl #2]
     6c8:	0b1a0000 	bleq	6806d0 <__bss_end__+0x675b78>
     6cc:	00175500 	andseq	r5, r7, r0, lsl #10
     6d0:	82891b00 	addhi	r1, r9, #0, 22
     6d4:	01110001 	tsteq	r1, r1
     6d8:	00001331 	andeq	r1, r0, r1, lsr r3
     6dc:	2700151c 	smladcs	r0, ip, r5, r1
     6e0:	00134919 	andseq	r4, r3, r9, lsl r9
     6e4:	01011d00 	tsteq	r1, r0, lsl #26
     6e8:	13011349 	movwne	r1, #4937	; 0x1349
     6ec:	211e0000 	tstcs	lr, r0
     6f0:	2f134900 	svccs	0x00134900
     6f4:	1f00000b 	svcne	0x0000000b
     6f8:	0e03002e 	cdpeq	0, 0, cr0, cr3, cr14, {1}
     6fc:	0b3b0b3a 	bleq	ec33ec <__bss_end__+0xeb8894>
     700:	19270b39 	stmdbne	r7!, {r0, r3, r4, r5, r8, r9, fp}
     704:	0b201349 	bleq	805430 <__bss_end__+0x7fa8d8>
     708:	2e200000 	cdpcs	0, 2, cr0, cr0, cr0, {0}
     70c:	3a0e0301 	bcc	381318 <__bss_end__+0x3767c0>
     710:	390b3b0b 	stmdbcc	fp, {r0, r1, r3, r8, r9, fp, ip, sp}
     714:	4919270b 	ldmdbmi	r9, {r0, r1, r3, r8, r9, sl, sp}
     718:	010b2013 	tsteq	fp, r3, lsl r0
     71c:	21000013 	tstcs	r0, r3, lsl r0
     720:	0e030005 	cdpeq	0, 0, cr0, cr3, cr5, {0}
     724:	0b3b0b3a 	bleq	ec3414 <__bss_end__+0xeb88bc>
     728:	13490b39 	movtne	r0, #39737	; 0x9b39
     72c:	34220000 	strtcc	r0, [r2], #-0
     730:	3a0e0300 	bcc	381338 <__bss_end__+0x3767e0>
     734:	390b3b0b 	stmdbcc	fp, {r0, r1, r3, r8, r9, fp, ip, sp}
     738:	0013490b 	andseq	r4, r3, fp, lsl #18
     73c:	00342300 	eorseq	r2, r4, r0, lsl #6
     740:	13490e03 	movtne	r0, #40451	; 0x9e03
     744:	00001934 	andeq	r1, r0, r4, lsr r9
     748:	03000524 	movweq	r0, #1316	; 0x524
     74c:	3b0b3a08 	blcc	2cef74 <__bss_end__+0x2c441c>
     750:	490b390b 	stmdbmi	fp, {r0, r1, r3, r8, fp, ip, sp}
     754:	25000013 	strcs	r0, [r0, #-19]	; 0xffffffed
     758:	193f002e 	ldmdbne	pc!, {r1, r2, r3, r5}	; <UNPREDICTABLE>
     75c:	0e6e193c 			; <UNDEFINED> instruction: 0x0e6e193c
     760:	0b3a0e03 	bleq	e83f74 <__bss_end__+0xe7941c>
     764:	0b390b3b 	bleq	e43458 <__bss_end__+0xe38900>
     768:	01000000 	mrseq	r0, (UNDEF: 0)
     76c:	0e250111 	mcreq	1, 1, r0, cr5, cr1, {0}
     770:	0e030b13 	vmoveq.32	d3[0], r0
     774:	01110e1b 	tsteq	r1, fp, lsl lr
     778:	17100612 			; <UNDEFINED> instruction: 0x17100612
     77c:	24020000 	strcs	r0, [r2], #-0
     780:	3e0b0b00 	vmlacc.f64	d0, d11, d0
     784:	0008030b 	andeq	r0, r8, fp, lsl #6
     788:	00240300 	eoreq	r0, r4, r0, lsl #6
     78c:	0b3e0b0b 	bleq	f833c0 <__bss_end__+0xf78868>
     790:	00000e03 	andeq	r0, r0, r3, lsl #28
     794:	03001604 	movweq	r1, #1540	; 0x604
     798:	3b0b3a0e 	blcc	2cefd8 <__bss_end__+0x2c4480>
     79c:	490b390b 	stmdbmi	fp, {r0, r1, r3, r8, fp, ip, sp}
     7a0:	05000013 	streq	r0, [r0, #-19]	; 0xffffffed
     7a4:	19270115 	stmdbne	r7!, {r0, r2, r4, r8}
     7a8:	13011349 	movwne	r1, #4937	; 0x1349
     7ac:	05060000 	streq	r0, [r6, #-0]
     7b0:	00134900 	andseq	r4, r3, r0, lsl #18
     7b4:	00340700 	eorseq	r0, r4, r0, lsl #14
     7b8:	0b3a0e03 	bleq	e83fcc <__bss_end__+0xe79474>
     7bc:	0b390b3b 	bleq	e434b0 <__bss_end__+0xe38958>
     7c0:	193f1349 	ldmdbne	pc!, {r0, r3, r6, r8, r9, ip}	; <UNPREDICTABLE>
     7c4:	0000193c 	andeq	r1, r0, ip, lsr r9
     7c8:	0b000f08 	bleq	43f0 <__code_start__-0x3c10>
     7cc:	0013490b 	andseq	r4, r3, fp, lsl #18
     7d0:	00260900 	eoreq	r0, r6, r0, lsl #18
     7d4:	00001349 	andeq	r1, r0, r9, asr #6
     7d8:	2701150a 	strcs	r1, [r1, -sl, lsl #10]
     7dc:	00130119 	andseq	r0, r3, r9, lsl r1
     7e0:	00340b00 	eorseq	r0, r4, r0, lsl #22
     7e4:	0b3a0e03 	bleq	e83ff8 <__bss_end__+0xe794a0>
     7e8:	0b390b3b 	bleq	e434dc <__bss_end__+0xe38984>
     7ec:	18021349 	stmdane	r2, {r0, r3, r6, r8, r9, ip}
     7f0:	340c0000 	strcc	r0, [ip], #-0
     7f4:	3a134700 	bcc	4d23fc <__bss_end__+0x4c78a4>
     7f8:	390b3b0b 	stmdbcc	fp, {r0, r1, r3, r8, r9, fp, ip, sp}
     7fc:	0018020b 	andseq	r0, r8, fp, lsl #4
     800:	012e0d00 			; <UNDEFINED> instruction: 0x012e0d00
     804:	0e03193f 			; <UNDEFINED> instruction: 0x0e03193f
     808:	0b3b0b3a 	bleq	ec34f8 <__bss_end__+0xeb89a0>
     80c:	19270b39 	stmdbne	r7!, {r0, r3, r4, r5, r8, r9, fp}
     810:	06120111 			; <UNDEFINED> instruction: 0x06120111
     814:	42971840 	addsmi	r1, r7, #64, 16	; 0x400000
     818:	00130119 	andseq	r0, r3, r9, lsl r1
     81c:	82890e00 	addhi	r0, r9, #0, 28
     820:	01110101 	tsteq	r1, r1, lsl #2
     824:	00001331 	andeq	r1, r0, r1, lsr r3
     828:	01828a0f 	orreq	r8, r2, pc, lsl #20
     82c:	91180200 	tstls	r8, r0, lsl #4
     830:	00001842 	andeq	r1, r0, r2, asr #16
     834:	03000510 	movweq	r0, #1296	; 0x510
     838:	3b0b3a0e 	blcc	2cf078 <__bss_end__+0x2c4520>
     83c:	490b390b 	stmdbmi	fp, {r0, r1, r3, r8, fp, ip, sp}
     840:	b7170213 			; <UNDEFINED> instruction: 0xb7170213
     844:	00001742 	andeq	r1, r0, r2, asr #14
     848:	03003411 	movweq	r3, #1041	; 0x411
     84c:	3b0b3a0e 	blcc	2cf08c <__bss_end__+0x2c4534>
     850:	490b390b 	stmdbmi	fp, {r0, r1, r3, r8, fp, ip, sp}
     854:	000b1c13 	andeq	r1, fp, r3, lsl ip
     858:	82891200 	addhi	r1, r9, #0, 4
     85c:	01110001 	tsteq	r1, r1
     860:	00001331 	andeq	r1, r0, r1, lsr r3
     864:	03003413 	movweq	r3, #1043	; 0x413
     868:	3413490e 	ldrcc	r4, [r3], #-2318	; 0xfffff6f2
     86c:	00180219 	andseq	r0, r8, r9, lsl r2
     870:	82891400 	addhi	r1, r9, #0, 8
     874:	01110101 	tsteq	r1, r1, lsl #2
     878:	13011331 	movwne	r1, #4913	; 0x1331
     87c:	01150000 	tsteq	r5, r0
     880:	01134901 	tsteq	r3, r1, lsl #18
     884:	16000013 			; <UNDEFINED> instruction: 0x16000013
     888:	13490021 	movtne	r0, #36897	; 0x9021
     88c:	00000b2f 	andeq	r0, r0, pc, lsr #22
     890:	03000517 	movweq	r0, #1303	; 0x517
     894:	3b0b3a08 	blcc	2cf0bc <__bss_end__+0x2c4564>
     898:	490b390b 	stmdbmi	fp, {r0, r1, r3, r8, fp, ip, sp}
     89c:	b7170213 			; <UNDEFINED> instruction: 0xb7170213
     8a0:	00001742 	andeq	r1, r0, r2, asr #14
     8a4:	31011d18 	tstcc	r1, r8, lsl sp
     8a8:	b8015213 	stmdalt	r1, {r0, r1, r4, r9, ip, lr}
     8ac:	17550b42 	ldrbne	r0, [r5, -r2, asr #22]
     8b0:	0b590b58 	bleq	1643618 <__bss_end__+0x1638ac0>
     8b4:	13010b57 	movwne	r0, #6999	; 0x1b57
     8b8:	1d190000 	ldcne	0, cr0, [r9, #-0]
     8bc:	52133101 	andspl	r3, r3, #1073741824	; 0x40000000
     8c0:	0b42b801 	bleq	10ae8cc <__bss_end__+0x10a3d74>
     8c4:	06120111 			; <UNDEFINED> instruction: 0x06120111
     8c8:	0b590b58 	bleq	1643630 <__bss_end__+0x1638ad8>
     8cc:	13010b57 	movwne	r0, #6999	; 0x1b57
     8d0:	341a0000 	ldrcc	r0, [sl], #-0
     8d4:	02133100 	andseq	r3, r3, #0, 2
     8d8:	1742b717 	smlaldne	fp, r2, r7, r7
     8dc:	051b0000 	ldreq	r0, [fp, #-0]
     8e0:	02133100 	andseq	r3, r3, #0, 2
     8e4:	1742b717 	smlaldne	fp, r2, r7, r7
     8e8:	1d1c0000 	ldcne	0, cr0, [ip, #-0]
     8ec:	52133101 	andspl	r3, r3, #1073741824	; 0x40000000
     8f0:	0b42b801 	bleq	10ae8fc <__bss_end__+0x10a3da4>
     8f4:	0b581755 	bleq	1606650 <__bss_end__+0x15fbaf8>
     8f8:	0b570b59 	bleq	15c3664 <__bss_end__+0x15b8b0c>
     8fc:	0b1d0000 	bleq	740904 <__bss_end__+0x735dac>
     900:	00175500 	andseq	r5, r7, r0, lsl #10
     904:	82891e00 	addhi	r1, r9, #0, 28
     908:	01110101 	tsteq	r1, r1, lsl #2
     90c:	00001301 	andeq	r1, r0, r1, lsl #6
     910:	03012e1f 	movweq	r2, #7711	; 0x1e1f
     914:	3b0b3a0e 	blcc	2cf154 <__bss_end__+0x2c45fc>
     918:	270b390b 	strcs	r3, [fp, -fp, lsl #18]
     91c:	12011119 	andne	r1, r1, #1073741830	; 0x40000006
     920:	97184006 	ldrls	r4, [r8, -r6]
     924:	13011942 	movwne	r1, #6466	; 0x1942
     928:	34200000 	strtcc	r0, [r0], #-0
     92c:	3a080300 	bcc	201534 <__bss_end__+0x1f69dc>
     930:	390b3b0b 	stmdbcc	fp, {r0, r1, r3, r8, r9, fp, ip, sp}
     934:	0213490b 	andseq	r4, r3, #180224	; 0x2c000
     938:	1742b717 	smlaldne	fp, r2, r7, r7
     93c:	1d210000 	stcne	0, cr0, [r1, #-0]
     940:	52133101 	andspl	r3, r3, #1073741824	; 0x40000000
     944:	0b42b801 	bleq	10ae950 <__bss_end__+0x10a3df8>
     948:	06120111 			; <UNDEFINED> instruction: 0x06120111
     94c:	0b590b58 	bleq	16436b4 <__bss_end__+0x1638b5c>
     950:	00000b57 	andeq	r0, r0, r7, asr fp
     954:	31003422 	tstcc	r0, r2, lsr #8
     958:	000b1c13 	andeq	r1, fp, r3, lsl ip
     95c:	010b2300 	mrseq	r2, (UNDEF: 59)
     960:	00001755 	andeq	r1, r0, r5, asr r7
     964:	03012e24 	movweq	r2, #7716	; 0x1e24
     968:	3b0b3a0e 	blcc	2cf1a8 <__bss_end__+0x2c4650>
     96c:	270b390b 	strcs	r3, [fp, -fp, lsl #18]
     970:	20134919 	andscs	r4, r3, r9, lsl r9
     974:	0013010b 	andseq	r0, r3, fp, lsl #2
     978:	00052500 	andeq	r2, r5, r0, lsl #10
     97c:	0b3a0e03 	bleq	e84190 <__bss_end__+0xe79638>
     980:	0b390b3b 	bleq	e43674 <__bss_end__+0xe38b1c>
     984:	00001349 	andeq	r1, r0, r9, asr #6
     988:	03003426 	movweq	r3, #1062	; 0x426
     98c:	3b0b3a08 	blcc	2cf1b4 <__bss_end__+0x2c465c>
     990:	490b390b 	stmdbmi	fp, {r0, r1, r3, r8, fp, ip, sp}
     994:	27000013 	smladcs	r0, r3, r0, r0
     998:	0e03012e 	adfeqsp	f0, f3, #0.5
     99c:	0b3b0b3a 	bleq	ec368c <__bss_end__+0xeb8b34>
     9a0:	19270b39 	stmdbne	r7!, {r0, r3, r4, r5, r8, r9, fp}
     9a4:	13010b20 	movwne	r0, #6944	; 0x1b20
     9a8:	05280000 	streq	r0, [r8, #-0]!
     9ac:	3a080300 	bcc	2015b4 <__bss_end__+0x1f6a5c>
     9b0:	390b3b0b 	stmdbcc	fp, {r0, r1, r3, r8, r9, fp, ip, sp}
     9b4:	0013490b 	andseq	r4, r3, fp, lsl #18
     9b8:	00342900 	eorseq	r2, r4, r0, lsl #18
     9bc:	0b3a0e03 	bleq	e841d0 <__bss_end__+0xe79678>
     9c0:	0b390b3b 	bleq	e436b4 <__bss_end__+0xe38b5c>
     9c4:	17021349 	strne	r1, [r2, -r9, asr #6]
     9c8:	001742b7 			; <UNDEFINED> instruction: 0x001742b7
     9cc:	000f2a00 	andeq	r2, pc, r0, lsl #20
     9d0:	00000b0b 	andeq	r0, r0, fp, lsl #22
     9d4:	03002e2b 	movweq	r2, #3627	; 0xe2b
     9d8:	3b0b3a0e 	blcc	2cf218 <__bss_end__+0x2c46c0>
     9dc:	270b390b 	strcs	r3, [fp, -fp, lsl #18]
     9e0:	20134919 	andscs	r4, r3, r9, lsl r9
     9e4:	2c00000b 	stccs	0, cr0, [r0], {11}
     9e8:	0e030034 	mcreq	0, 0, r0, cr3, cr4, {1}
     9ec:	19341349 	ldmdbne	r4!, {r0, r3, r6, r8, r9, ip}
     9f0:	342d0000 	strtcc	r0, [sp], #-0
     9f4:	490e0300 	stmdbmi	lr, {r8, r9}
     9f8:	1c193413 	cfldrsne	mvf3, [r9], {19}
     9fc:	2e00000e 	cdpcs	0, 0, cr0, cr0, cr14, {0}
     a00:	193f002e 	ldmdbne	pc!, {r1, r2, r3, r5}	; <UNPREDICTABLE>
     a04:	0e6e193c 			; <UNDEFINED> instruction: 0x0e6e193c
     a08:	0b3a0e03 	bleq	e8421c <__bss_end__+0xe796c4>
     a0c:	0b390b3b 	bleq	e43700 <__bss_end__+0xe38ba8>
     a10:	01000000 	mrseq	r0, (UNDEF: 0)
     a14:	0e250111 	mcreq	1, 1, r0, cr5, cr1, {0}
     a18:	0e030b13 	vmoveq.32	d3[0], r0
     a1c:	01110e1b 	tsteq	r1, fp, lsl lr
     a20:	17100612 			; <UNDEFINED> instruction: 0x17100612
     a24:	16020000 	strne	r0, [r2], -r0
     a28:	3a0e0300 	bcc	381630 <__bss_end__+0x376ad8>
     a2c:	390b3b0b 	stmdbcc	fp, {r0, r1, r3, r8, r9, fp, ip, sp}
     a30:	0013490b 	andseq	r4, r3, fp, lsl #18
     a34:	01130300 	tsteq	r3, r0, lsl #6
     a38:	0b0b0e03 	bleq	2c424c <__bss_end__+0x2b96f4>
     a3c:	0b3b0b3a 	bleq	ec372c <__bss_end__+0xeb8bd4>
     a40:	00001301 	andeq	r1, r0, r1, lsl #6
     a44:	03000d04 	movweq	r0, #3332	; 0xd04
     a48:	3813490e 	ldmdacc	r3, {r1, r2, r3, r8, fp, lr}
     a4c:	0019340b 	andseq	r3, r9, fp, lsl #8
     a50:	000f0500 	andeq	r0, pc, r0, lsl #10
     a54:	00000b0b 	andeq	r0, r0, fp, lsl #22
     a58:	0b002406 	bleq	9a78 <va_printk+0x3cc>
     a5c:	030b3e0b 	movweq	r3, #48651	; 0xbe0b
     a60:	07000008 	streq	r0, [r0, -r8]
     a64:	0b0b0024 	bleq	2c0afc <__bss_end__+0x2b5fa4>
     a68:	0e030b3e 	vmoveq.16	d3[0], r0
     a6c:	15080000 	strne	r0, [r8, #-0]
     a70:	49192701 	ldmdbmi	r9, {r0, r8, r9, sl, sp}
     a74:	00130113 	andseq	r0, r3, r3, lsl r1
     a78:	00050900 	andeq	r0, r5, r0, lsl #18
     a7c:	00001349 	andeq	r1, r0, r9, asr #6
     a80:	0b000f0a 	bleq	46b0 <__code_start__-0x3950>
     a84:	0013490b 	andseq	r4, r3, fp, lsl #18
     a88:	00260b00 	eoreq	r0, r6, r0, lsl #22
     a8c:	00001349 	andeq	r1, r0, r9, asr #6
     a90:	0300340c 	movweq	r3, #1036	; 0x40c
     a94:	3b0b3a0e 	blcc	2cf2d4 <__bss_end__+0x2c477c>
     a98:	490b390b 	stmdbmi	fp, {r0, r1, r3, r8, fp, ip, sp}
     a9c:	3c193f13 	ldccc	15, cr3, [r9], {19}
     aa0:	0d000019 	stceq	0, cr0, [r0, #-100]	; 0xffffff9c
     aa4:	193f012e 	ldmdbne	pc!, {r1, r2, r3, r5, r8}	; <UNPREDICTABLE>
     aa8:	0b3a0e03 	bleq	e842bc <__bss_end__+0xe79764>
     aac:	0b390b3b 	bleq	e437a0 <__bss_end__+0xe38c48>
     ab0:	13491927 	movtne	r1, #39207	; 0x9927
     ab4:	06120111 			; <UNDEFINED> instruction: 0x06120111
     ab8:	42971840 	addsmi	r1, r7, #64, 16	; 0x400000
     abc:	00130119 	andseq	r0, r3, r9, lsl r1
     ac0:	00050e00 	andeq	r0, r5, r0, lsl #28
     ac4:	0b3a0803 	bleq	e82ad8 <__bss_end__+0xe77f80>
     ac8:	0b390b3b 	bleq	e437bc <__bss_end__+0xe38c64>
     acc:	18021349 	stmdane	r2, {r0, r3, r6, r8, r9, ip}
     ad0:	180f0000 	stmdane	pc, {}	; <UNPREDICTABLE>
     ad4:	10000000 	andne	r0, r0, r0
     ad8:	08030034 	stmdaeq	r3, {r2, r4, r5}
     adc:	0b3b0b3a 	bleq	ec37cc <__bss_end__+0xeb8c74>
     ae0:	13490b39 	movtne	r0, #39737	; 0x9b39
     ae4:	00001802 	andeq	r1, r0, r2, lsl #16
     ae8:	03003411 	movweq	r3, #1041	; 0x411
     aec:	3b0b3a0e 	blcc	2cf32c <__bss_end__+0x2c47d4>
     af0:	490b390b 	stmdbmi	fp, {r0, r1, r3, r8, fp, ip, sp}
     af4:	00180213 	andseq	r0, r8, r3, lsl r2
     af8:	00341200 	eorseq	r1, r4, r0, lsl #4
     afc:	0b3a0803 	bleq	e82b10 <__bss_end__+0xe77fb8>
     b00:	0b390b3b 	bleq	e437f4 <__bss_end__+0xe38c9c>
     b04:	17021349 	strne	r1, [r2, -r9, asr #6]
     b08:	001742b7 			; <UNDEFINED> instruction: 0x001742b7
     b0c:	82891300 	addhi	r1, r9, #0, 6
     b10:	01110101 	tsteq	r1, r1, lsl #2
     b14:	13011331 	movwne	r1, #4913	; 0x1331
     b18:	8a140000 	bhi	500b20 <__bss_end__+0x4f5fc8>
     b1c:	02000182 	andeq	r0, r0, #-2147483616	; 0x80000020
     b20:	18429118 	stmdane	r2, {r3, r4, r8, ip, pc}^
     b24:	89150000 	ldmdbhi	r5, {}	; <UNPREDICTABLE>
     b28:	11010182 	smlabbne	r1, r2, r1, r0
     b2c:	16000001 	strne	r0, [r0], -r1
     b30:	13490101 	movtne	r0, #37121	; 0x9101
     b34:	00001301 	andeq	r1, r0, r1, lsl #6
     b38:	49002117 	stmdbmi	r0, {r0, r1, r2, r4, r8, sp}
     b3c:	00052f13 	andeq	r2, r5, r3, lsl pc
     b40:	002e1800 	eoreq	r1, lr, r0, lsl #16
     b44:	193c193f 	ldmdbne	ip!, {r0, r1, r2, r3, r4, r5, r8, fp, ip}
     b48:	0e030e6e 	cdpeq	14, 0, cr0, cr3, cr14, {3}
     b4c:	0b3b0b3a 	bleq	ec383c <__bss_end__+0xeb8ce4>
     b50:	00000b39 	andeq	r0, r0, r9, lsr fp
     b54:	01110100 	tsteq	r1, r0, lsl #2
     b58:	0b130e25 	bleq	4c43f4 <__bss_end__+0x4b989c>
     b5c:	0e1b0e03 	cdpeq	14, 1, cr0, cr11, cr3, {0}
     b60:	06120111 			; <UNDEFINED> instruction: 0x06120111
     b64:	00001710 	andeq	r1, r0, r0, lsl r7
     b68:	0b002402 	bleq	9b78 <strcat+0x4>
     b6c:	030b3e0b 	movweq	r3, #48651	; 0xbe0b
     b70:	03000008 	movweq	r0, #8
     b74:	0e030016 	mcreq	0, 0, r0, cr3, cr6, {0}
     b78:	0b3b0b3a 	bleq	ec3868 <__bss_end__+0xeb8d10>
     b7c:	13490b39 	movtne	r0, #39737	; 0x9b39
     b80:	24040000 	strcs	r0, [r4], #-0
     b84:	3e0b0b00 	vmlacc.f64	d0, d11, d0
     b88:	000e030b 	andeq	r0, lr, fp, lsl #6
     b8c:	000f0500 	andeq	r0, pc, r0, lsl #10
     b90:	13490b0b 	movtne	r0, #39691	; 0x9b0b
     b94:	26060000 	strcs	r0, [r6], -r0
     b98:	00134900 	andseq	r4, r3, r0, lsl #18
     b9c:	012e0700 			; <UNDEFINED> instruction: 0x012e0700
     ba0:	0e03193f 			; <UNDEFINED> instruction: 0x0e03193f
     ba4:	0b3b0b3a 	bleq	ec3894 <__bss_end__+0xeb8d3c>
     ba8:	19270b39 	stmdbne	r7!, {r0, r3, r4, r5, r8, r9, fp}
     bac:	01111349 	tsteq	r1, r9, asr #6
     bb0:	18400612 	stmdane	r0, {r1, r4, r9, sl}^
     bb4:	00194297 	mulseq	r9, r7, r2
     bb8:	00050800 	andeq	r0, r5, r0, lsl #16
     bbc:	0b3a0803 	bleq	e82bd0 <__bss_end__+0xe78078>
     bc0:	0b390b3b 	bleq	e438b4 <__bss_end__+0xe38d5c>
     bc4:	17021349 	strne	r1, [r2, -r9, asr #6]
     bc8:	001742b7 			; <UNDEFINED> instruction: 0x001742b7
     bcc:	00340900 	eorseq	r0, r4, r0, lsl #18
     bd0:	0b3a0803 	bleq	e82be4 <__bss_end__+0xe7808c>
     bd4:	0b390b3b 	bleq	e438c8 <__bss_end__+0xe38d70>
     bd8:	17021349 	strne	r1, [r2, -r9, asr #6]
     bdc:	001742b7 			; <UNDEFINED> instruction: 0x001742b7
     be0:	11010000 	mrsne	r0, (UNDEF: 1)
     be4:	130e2501 	movwne	r2, #58625	; 0xe501
     be8:	1b0e030b 	blne	38181c <__bss_end__+0x376cc4>
     bec:	1201110e 	andne	r1, r1, #-2147483645	; 0x80000003
     bf0:	00171006 	andseq	r1, r7, r6
     bf4:	00240200 	eoreq	r0, r4, r0, lsl #4
     bf8:	0b3e0b0b 	bleq	f8382c <__bss_end__+0xf78cd4>
     bfc:	00000803 	andeq	r0, r0, r3, lsl #16
     c00:	0b002403 	bleq	9c14 <gpio_set_function+0x28>
     c04:	030b3e0b 	movweq	r3, #48651	; 0xbe0b
     c08:	0400000e 	streq	r0, [r0], #-14
     c0c:	0b0b000f 	bleq	2c0c50 <__bss_end__+0x2b60f8>
     c10:	00001349 	andeq	r1, r0, r9, asr #6
     c14:	49002605 	stmdbmi	r0, {r0, r2, r9, sl, sp}
     c18:	06000013 			; <UNDEFINED> instruction: 0x06000013
     c1c:	193f012e 	ldmdbne	pc!, {r1, r2, r3, r5, r8}	; <UNPREDICTABLE>
     c20:	0b3a0e03 	bleq	e84434 <__bss_end__+0xe798dc>
     c24:	0b390b3b 	bleq	e43918 <__bss_end__+0xe38dc0>
     c28:	13491927 	movtne	r1, #39207	; 0x9927
     c2c:	06120111 			; <UNDEFINED> instruction: 0x06120111
     c30:	42971840 	addsmi	r1, r7, #64, 16	; 0x400000
     c34:	00130119 	andseq	r0, r3, r9, lsl r1
     c38:	00050700 	andeq	r0, r5, r0, lsl #14
     c3c:	0b3a0803 	bleq	e82c50 <__bss_end__+0xe780f8>
     c40:	0b390b3b 	bleq	e43934 <__bss_end__+0xe38ddc>
     c44:	18021349 	stmdane	r2, {r0, r3, r6, r8, r9, ip}
     c48:	05080000 	streq	r0, [r8, #-0]
     c4c:	3a080300 	bcc	201854 <__bss_end__+0x1f6cfc>
     c50:	390b3b0b 	stmdbcc	fp, {r0, r1, r3, r8, r9, fp, ip, sp}
     c54:	0213490b 	andseq	r4, r3, #180224	; 0x2c000
     c58:	1742b717 	smlaldne	fp, r2, r7, r7
     c5c:	34090000 	strcc	r0, [r9], #-0
     c60:	3a080300 	bcc	201868 <__bss_end__+0x1f6d10>
     c64:	390b3b0b 	stmdbcc	fp, {r0, r1, r3, r8, r9, fp, ip, sp}
     c68:	0213490b 	andseq	r4, r3, #180224	; 0x2c000
     c6c:	1742b717 	smlaldne	fp, r2, r7, r7
     c70:	01000000 	mrseq	r0, (UNDEF: 0)
     c74:	0e250111 	mcreq	1, 1, r0, cr5, cr1, {0}
     c78:	0e030b13 	vmoveq.32	d3[0], r0
     c7c:	01110e1b 	tsteq	r1, fp, lsl lr
     c80:	17100612 			; <UNDEFINED> instruction: 0x17100612
     c84:	24020000 	strcs	r0, [r2], #-0
     c88:	3e0b0b00 	vmlacc.f64	d0, d11, d0
     c8c:	0008030b 	andeq	r0, r8, fp, lsl #6
     c90:	00160300 	andseq	r0, r6, r0, lsl #6
     c94:	0b3a0e03 	bleq	e844a8 <__bss_end__+0xe79950>
     c98:	0b390b3b 	bleq	e4398c <__bss_end__+0xe38e34>
     c9c:	00001349 	andeq	r1, r0, r9, asr #6
     ca0:	0b002404 	bleq	9cb8 <gpio_write>
     ca4:	030b3e0b 	movweq	r3, #48651	; 0xbe0b
     ca8:	0500000e 	streq	r0, [r0, #-14]
     cac:	13490026 	movtne	r0, #36902	; 0x9026
     cb0:	2e060000 	cdpcs	0, 0, cr0, cr6, cr0, {0}
     cb4:	03193f01 	tsteq	r9, #1, 30
     cb8:	3b0b3a0e 	blcc	2cf4f8 <__bss_end__+0x2c49a0>
     cbc:	270b390b 	strcs	r3, [fp, -fp, lsl #18]
     cc0:	11134919 	tstne	r3, r9, lsl r9
     cc4:	40061201 	andmi	r1, r6, r1, lsl #4
     cc8:	19429718 	stmdbne	r2, {r3, r4, r8, r9, sl, ip, pc}^
     ccc:	00001301 	andeq	r1, r0, r1, lsl #6
     cd0:	03000507 	movweq	r0, #1287	; 0x507
     cd4:	3b0b3a08 	blcc	2cf4fc <__bss_end__+0x2c49a4>
     cd8:	490b390b 	stmdbmi	fp, {r0, r1, r3, r8, fp, ip, sp}
     cdc:	00180213 	andseq	r0, r8, r3, lsl r2
     ce0:	00050800 	andeq	r0, r5, r0, lsl #16
     ce4:	0b3a0e03 	bleq	e844f8 <__bss_end__+0xe799a0>
     ce8:	0b390b3b 	bleq	e439dc <__bss_end__+0xe38e84>
     cec:	17021349 	strne	r1, [r2, -r9, asr #6]
     cf0:	001742b7 			; <UNDEFINED> instruction: 0x001742b7
     cf4:	00340900 	eorseq	r0, r4, r0, lsl #18
     cf8:	13490e03 	movtne	r0, #40451	; 0x9e03
     cfc:	0e1c1934 			; <UNDEFINED> instruction: 0x0e1c1934
     d00:	0b0a0000 	bleq	280d08 <__bss_end__+0x2761b0>
     d04:	12011101 	andne	r1, r1, #1073741824	; 0x40000000
     d08:	00130106 	andseq	r0, r3, r6, lsl #2
     d0c:	00340b00 	eorseq	r0, r4, r0, lsl #22
     d10:	0b3a0803 	bleq	e82d24 <__bss_end__+0xe781cc>
     d14:	0b390b3b 	bleq	e43a08 <__bss_end__+0xe38eb0>
     d18:	17021349 	strne	r1, [r2, -r9, asr #6]
     d1c:	001742b7 			; <UNDEFINED> instruction: 0x001742b7
     d20:	010b0c00 	tsteq	fp, r0, lsl #24
     d24:	06120111 			; <UNDEFINED> instruction: 0x06120111
     d28:	340d0000 	strcc	r0, [sp], #-0
     d2c:	3a080300 	bcc	201934 <__bss_end__+0x1f6ddc>
     d30:	390b3b0b 	stmdbcc	fp, {r0, r1, r3, r8, r9, fp, ip, sp}
     d34:	0013490b 	andseq	r4, r3, fp, lsl #18
     d38:	000f0e00 	andeq	r0, pc, r0, lsl #28
     d3c:	00000b0b 	andeq	r0, r0, fp, lsl #22
     d40:	0b000f0f 	bleq	4984 <__code_start__-0x367c>
     d44:	0013490b 	andseq	r4, r3, fp, lsl #18
     d48:	00261000 	eoreq	r1, r6, r0
     d4c:	01110000 	tsteq	r1, r0
     d50:	01134901 	tsteq	r3, r1, lsl #18
     d54:	12000013 	andne	r0, r0, #19
     d58:	13490021 	movtne	r0, #36897	; 0x9021
     d5c:	00000b2f 	andeq	r0, r0, pc, lsr #22
     d60:	01110100 	tsteq	r1, r0, lsl #2
     d64:	0b130e25 	bleq	4c4600 <__bss_end__+0x4b9aa8>
     d68:	0e1b0e03 	cdpeq	14, 1, cr0, cr11, cr3, {0}
     d6c:	06120111 			; <UNDEFINED> instruction: 0x06120111
     d70:	00001710 	andeq	r1, r0, r0, lsl r7
     d74:	0b002402 	bleq	9d84 <__code_end__+0x7c>
     d78:	030b3e0b 	movweq	r3, #48651	; 0xbe0b
     d7c:	03000008 	movweq	r0, #8
     d80:	0b0b0024 	bleq	2c0e18 <__bss_end__+0x2b62c0>
     d84:	0e030b3e 	vmoveq.16	d3[0], r0
     d88:	15040000 	strne	r0, [r4, #-0]
     d8c:	49192701 	ldmdbmi	r9, {r0, r8, r9, sl, sp}
     d90:	00130113 	andseq	r0, r3, r3, lsl r1
     d94:	00050500 	andeq	r0, r5, r0, lsl #10
     d98:	00001349 	andeq	r1, r0, r9, asr #6
     d9c:	03003406 	movweq	r3, #1030	; 0x406
     da0:	3b0b3a0e 	blcc	2cf5e0 <__bss_end__+0x2c4a88>
     da4:	490b390b 	stmdbmi	fp, {r0, r1, r3, r8, fp, ip, sp}
     da8:	3c193f13 	ldccc	15, cr3, [r9], {19}
     dac:	07000019 	smladeq	r0, r9, r0, r0
     db0:	0b0b000f 	bleq	2c0df4 <__bss_end__+0x2b629c>
     db4:	00001349 	andeq	r1, r0, r9, asr #6
     db8:	49002608 	stmdbmi	r0, {r3, r9, sl, sp}
     dbc:	09000013 	stmdbeq	r0, {r0, r1, r4}
     dc0:	13470034 	movtne	r0, #28724	; 0x7034
     dc4:	0b3b0b3a 	bleq	ec3ab4 <__bss_end__+0xeb8f5c>
     dc8:	18020b39 	stmdane	r2, {r0, r3, r4, r5, r8, r9, fp}
     dcc:	2e0a0000 	cdpcs	0, 0, cr0, cr10, cr0, {0}
     dd0:	03193f01 	tsteq	r9, #1, 30
     dd4:	3b0b3a0e 	blcc	2cf614 <__bss_end__+0x2c4abc>
     dd8:	270b390b 	strcs	r3, [fp, -fp, lsl #18]
     ddc:	11134919 	tstne	r3, r9, lsl r9
     de0:	40061201 	andmi	r1, r6, r1, lsl #4
     de4:	19429618 	stmdbne	r2, {r3, r4, r9, sl, ip, pc}^
     de8:	050b0000 	streq	r0, [fp, #-0]
     dec:	3a080300 	bcc	2019f4 <__bss_end__+0x1f6e9c>
     df0:	390b3b0b 	stmdbcc	fp, {r0, r1, r3, r8, r9, fp, ip, sp}
     df4:	0213490b 	andseq	r4, r3, #180224	; 0x2c000
     df8:	1742b717 	smlaldne	fp, r2, r7, r7
     dfc:	01000000 	mrseq	r0, (UNDEF: 0)
     e00:	0e250111 	mcreq	1, 1, r0, cr5, cr1, {0}
     e04:	0e030b13 	vmoveq.32	d3[0], r0
     e08:	01110e1b 	tsteq	r1, fp, lsl lr
     e0c:	17100612 			; <UNDEFINED> instruction: 0x17100612
     e10:	24020000 	strcs	r0, [r2], #-0
     e14:	3e0b0b00 	vmlacc.f64	d0, d11, d0
     e18:	0008030b 	andeq	r0, r8, fp, lsl #6
     e1c:	00240300 	eoreq	r0, r4, r0, lsl #6
     e20:	0b3e0b0b 	bleq	f83a54 <__bss_end__+0xf78efc>
     e24:	00000e03 	andeq	r0, r0, r3, lsl #28
     e28:	27011504 	strcs	r1, [r1, -r4, lsl #10]
     e2c:	01134919 	tsteq	r3, r9, lsl r9
     e30:	05000013 	streq	r0, [r0, #-19]	; 0xffffffed
     e34:	13490005 	movtne	r0, #36869	; 0x9005
     e38:	34060000 	strcc	r0, [r6], #-0
     e3c:	3a0e0300 	bcc	381a44 <__bss_end__+0x376eec>
     e40:	390b3b0b 	stmdbcc	fp, {r0, r1, r3, r8, r9, fp, ip, sp}
     e44:	3f13490b 	svccc	0x0013490b
     e48:	00193c19 	andseq	r3, r9, r9, lsl ip
     e4c:	000f0700 	andeq	r0, pc, r0, lsl #14
     e50:	13490b0b 	movtne	r0, #39691	; 0x9b0b
     e54:	34080000 	strcc	r0, [r8], #-0
     e58:	3a134700 	bcc	4d2a60 <__bss_end__+0x4c7f08>
     e5c:	390b3b0b 	stmdbcc	fp, {r0, r1, r3, r8, r9, fp, ip, sp}
     e60:	0018020b 	andseq	r0, r8, fp, lsl #4
     e64:	012e0900 			; <UNDEFINED> instruction: 0x012e0900
     e68:	0e03193f 			; <UNDEFINED> instruction: 0x0e03193f
     e6c:	0b3b0b3a 	bleq	ec3b5c <__bss_end__+0xeb9004>
     e70:	19270b39 	stmdbne	r7!, {r0, r3, r4, r5, r8, r9, fp}
     e74:	06120111 			; <UNDEFINED> instruction: 0x06120111
     e78:	42971840 	addsmi	r1, r7, #64, 16	; 0x400000
     e7c:	00130119 	andseq	r0, r3, r9, lsl r1
     e80:	00050a00 	andeq	r0, r5, r0, lsl #20
     e84:	0b3a0803 	bleq	e82e98 <__bss_end__+0xe78340>
     e88:	0b390b3b 	bleq	e43b7c <__bss_end__+0xe39024>
     e8c:	18021349 	stmdane	r2, {r0, r3, r6, r8, r9, ip}
     e90:	2e0b0000 	cdpcs	0, 0, cr0, cr11, cr0, {0}
     e94:	03193f00 	tsteq	r9, #0, 30
     e98:	3b0b3a0e 	blcc	2cf6d8 <__bss_end__+0x2c4b80>
     e9c:	270b390b 	strcs	r3, [fp, -fp, lsl #18]
     ea0:	12011119 	andne	r1, r1, #1073741830	; 0x40000006
     ea4:	97184006 	ldrls	r4, [r8, -r6]
     ea8:	00001942 	andeq	r1, r0, r2, asr #18
     eac:	03012e0c 	movweq	r2, #7692	; 0x1e0c
     eb0:	3b0b3a0e 	blcc	2cf6f0 <__bss_end__+0x2c4b98>
     eb4:	270b390b 	strcs	r3, [fp, -fp, lsl #18]
     eb8:	11134919 	tstne	r3, r9, lsl r9
     ebc:	40061201 	andmi	r1, r6, r1, lsl #4
     ec0:	19429718 	stmdbne	r2, {r3, r4, r8, r9, sl, ip, pc}^
     ec4:	00001301 	andeq	r1, r0, r1, lsl #6
     ec8:	0300050d 	movweq	r0, #1293	; 0x50d
     ecc:	3b0b3a08 	blcc	2cf6f4 <__bss_end__+0x2c4b9c>
     ed0:	490b390b 	stmdbmi	fp, {r0, r1, r3, r8, fp, ip, sp}
     ed4:	b7170213 			; <UNDEFINED> instruction: 0xb7170213
     ed8:	00001742 	andeq	r1, r0, r2, asr #14
     edc:	0182890e 	orreq	r8, r2, lr, lsl #18
     ee0:	31011101 	tstcc	r1, r1, lsl #2
     ee4:	0f000013 	svceq	0x00000013
     ee8:	0001828a 	andeq	r8, r1, sl, lsl #5
     eec:	42911802 	addsmi	r1, r1, #131072	; 0x20000
     ef0:	10000018 	andne	r0, r0, r8, lsl r0
     ef4:	193f002e 	ldmdbne	pc!, {r1, r2, r3, r5}	; <UNPREDICTABLE>
     ef8:	0e6e193c 			; <UNDEFINED> instruction: 0x0e6e193c
     efc:	0b3a0e03 	bleq	e84710 <__bss_end__+0xe79bb8>
     f00:	0b390b3b 	bleq	e43bf4 <__bss_end__+0xe3909c>
     f04:	01000000 	mrseq	r0, (UNDEF: 0)
     f08:	0e250111 	mcreq	1, 1, r0, cr5, cr1, {0}
     f0c:	0e030b13 	vmoveq.32	d3[0], r0
     f10:	01110e1b 	tsteq	r1, fp, lsl lr
     f14:	17100612 			; <UNDEFINED> instruction: 0x17100612
     f18:	24020000 	strcs	r0, [r2], #-0
     f1c:	3e0b0b00 	vmlacc.f64	d0, d11, d0
     f20:	0008030b 	andeq	r0, r8, fp, lsl #6
     f24:	00160300 	andseq	r0, r6, r0, lsl #6
     f28:	0b3a0e03 	bleq	e8473c <__bss_end__+0xe79be4>
     f2c:	0b390b3b 	bleq	e43c20 <__bss_end__+0xe390c8>
     f30:	00001349 	andeq	r1, r0, r9, asr #6
     f34:	0b002404 	bleq	9f4c <__FUNCTION__.0+0x4>
     f38:	030b3e0b 	movweq	r3, #48651	; 0xbe0b
     f3c:	0500000e 	streq	r0, [r0, #-14]
     f40:	193f012e 	ldmdbne	pc!, {r1, r2, r3, r5, r8}	; <UNPREDICTABLE>
     f44:	0b3a0e03 	bleq	e84758 <__bss_end__+0xe79c00>
     f48:	0b390b3b 	bleq	e43c3c <__bss_end__+0xe390e4>
     f4c:	13491927 	movtne	r1, #39207	; 0x9927
     f50:	06120111 			; <UNDEFINED> instruction: 0x06120111
     f54:	42971840 	addsmi	r1, r7, #64, 16	; 0x400000
     f58:	00130119 	andseq	r0, r3, r9, lsl r1
     f5c:	00050600 	andeq	r0, r5, r0, lsl #12
     f60:	0b3a0803 	bleq	e82f74 <__bss_end__+0xe7841c>
     f64:	0b390b3b 	bleq	e43c58 <__bss_end__+0xe39100>
     f68:	18021349 	stmdane	r2, {r0, r3, r6, r8, r9, ip}
     f6c:	05070000 	streq	r0, [r7, #-0]
     f70:	3a080300 	bcc	201b78 <__bss_end__+0x1f7020>
     f74:	390b3b0b 	stmdbcc	fp, {r0, r1, r3, r8, r9, fp, ip, sp}
     f78:	0213490b 	andseq	r4, r3, #180224	; 0x2c000
     f7c:	1742b717 	smlaldne	fp, r2, r7, r7
     f80:	34080000 	strcc	r0, [r8], #-0
     f84:	3a080300 	bcc	201b8c <__bss_end__+0x1f7034>
     f88:	390b3b0b 	stmdbcc	fp, {r0, r1, r3, r8, r9, fp, ip, sp}
     f8c:	0213490b 	andseq	r4, r3, #180224	; 0x2c000
     f90:	1742b717 	smlaldne	fp, r2, r7, r7
     f94:	0f090000 	svceq	0x00090000
     f98:	000b0b00 	andeq	r0, fp, r0, lsl #22
     f9c:	000f0a00 	andeq	r0, pc, r0, lsl #20
     fa0:	13490b0b 	movtne	r0, #39691	; 0x9b0b
     fa4:	01000000 	mrseq	r0, (UNDEF: 0)
     fa8:	0e250111 	mcreq	1, 1, r0, cr5, cr1, {0}
     fac:	0e030b13 	vmoveq.32	d3[0], r0
     fb0:	01110e1b 	tsteq	r1, fp, lsl lr
     fb4:	17100612 			; <UNDEFINED> instruction: 0x17100612
     fb8:	24020000 	strcs	r0, [r2], #-0
     fbc:	3e0b0b00 	vmlacc.f64	d0, d11, d0
     fc0:	0008030b 	andeq	r0, r8, fp, lsl #6
     fc4:	00240300 	eoreq	r0, r4, r0, lsl #6
     fc8:	0b3e0b0b 	bleq	f83bfc <__bss_end__+0xf790a4>
     fcc:	00000e03 	andeq	r0, r0, r3, lsl #28
     fd0:	49002604 	stmdbmi	r0, {r2, r9, sl, sp}
     fd4:	05000013 	streq	r0, [r0, #-19]	; 0xffffffed
     fd8:	193f012e 	ldmdbne	pc!, {r1, r2, r3, r5, r8}	; <UNPREDICTABLE>
     fdc:	0b3a0e03 	bleq	e847f0 <__bss_end__+0xe79c98>
     fe0:	0b390b3b 	bleq	e43cd4 <__bss_end__+0xe3917c>
     fe4:	01111927 	tsteq	r1, r7, lsr #18
     fe8:	18400612 	stmdane	r0, {r1, r4, r9, sl}^
     fec:	01194297 			; <UNDEFINED> instruction: 0x01194297
     ff0:	06000013 			; <UNDEFINED> instruction: 0x06000013
     ff4:	08030005 	stmdaeq	r3, {r0, r2}
     ff8:	0b3b0b3a 	bleq	ec3ce8 <__bss_end__+0xeb9190>
     ffc:	13490b39 	movtne	r0, #39737	; 0x9b39
    1000:	42b71702 	adcsmi	r1, r7, #524288	; 0x80000
    1004:	07000017 	smladeq	r0, r7, r0, r0
    1008:	0e030034 	mcreq	0, 0, r0, cr3, cr4, {1}
    100c:	19341349 	ldmdbne	r4!, {r0, r3, r6, r8, r9, ip}
    1010:	00001802 	andeq	r1, r0, r2, lsl #16
    1014:	01828908 	orreq	r8, r2, r8, lsl #18
    1018:	31011101 	tstcc	r1, r1, lsl #2
    101c:	00130113 	andseq	r0, r3, r3, lsl r1
    1020:	828a0900 	addhi	r0, sl, #0, 18
    1024:	18020001 	stmdane	r2, {r0}
    1028:	00184291 	mulseq	r8, r1, r2
    102c:	82890a00 	addhi	r0, r9, #0, 20
    1030:	01110001 	tsteq	r1, r1
    1034:	00001331 	andeq	r1, r0, r1, lsr r3
    1038:	4901010b 	stmdbmi	r1, {r0, r1, r3, r8}
    103c:	00130113 	andseq	r0, r3, r3, lsl r1
    1040:	00210c00 	eoreq	r0, r1, r0, lsl #24
    1044:	0b2f1349 	bleq	bc5d70 <__bss_end__+0xbbb218>
    1048:	2e0d0000 	cdpcs	0, 0, cr0, cr13, cr0, {0}
    104c:	3c193f00 	ldccc	15, cr3, [r9], {-0}
    1050:	030e6e19 	movweq	r6, #60953	; 0xee19
    1054:	3b0b3a0e 	blcc	2cf894 <__bss_end__+0x2c4d3c>
    1058:	000b390b 	andeq	r3, fp, fp, lsl #18
    105c:	11010000 	mrsne	r0, (UNDEF: 1)
    1060:	130e2501 	movwne	r2, #58625	; 0xe501
    1064:	1b0e030b 	blne	381c98 <__bss_end__+0x377140>
    1068:	1201110e 	andne	r1, r1, #-2147483645	; 0x80000003
    106c:	00171006 	andseq	r1, r7, r6
    1070:	00240200 	eoreq	r0, r4, r0, lsl #4
    1074:	0b3e0b0b 	bleq	f83ca8 <__bss_end__+0xf79150>
    1078:	00000803 	andeq	r0, r0, r3, lsl #16
    107c:	0b002403 	bleq	a090 <__FUNCTION__.4+0x8>
    1080:	030b3e0b 	movweq	r3, #48651	; 0xbe0b
    1084:	0400000e 	streq	r0, [r0], #-14
    1088:	0e030016 	mcreq	0, 0, r0, cr3, cr6, {0}
    108c:	0b3b0b3a 	bleq	ec3d7c <__bss_end__+0xeb9224>
    1090:	13490b39 	movtne	r0, #39737	; 0x9b39
    1094:	26050000 	strcs	r0, [r5], -r0
    1098:	00134900 	andseq	r4, r3, r0, lsl #18
    109c:	012e0600 			; <UNDEFINED> instruction: 0x012e0600
    10a0:	0e03193f 			; <UNDEFINED> instruction: 0x0e03193f
    10a4:	0b3b0b3a 	bleq	ec3d94 <__bss_end__+0xeb923c>
    10a8:	19270b39 	stmdbne	r7!, {r0, r3, r4, r5, r8, r9, fp}
    10ac:	06120111 			; <UNDEFINED> instruction: 0x06120111
    10b0:	42971840 	addsmi	r1, r7, #64, 16	; 0x400000
    10b4:	00130119 	andseq	r0, r3, r9, lsl r1
    10b8:	00050700 	andeq	r0, r5, r0, lsl #14
    10bc:	0b3a0803 	bleq	e830d0 <__bss_end__+0xe78578>
    10c0:	0b390b3b 	bleq	e43db4 <__bss_end__+0xe3925c>
    10c4:	17021349 	strne	r1, [r2, -r9, asr #6]
    10c8:	001742b7 			; <UNDEFINED> instruction: 0x001742b7
    10cc:	00340800 	eorseq	r0, r4, r0, lsl #16
    10d0:	13490e03 	movtne	r0, #40451	; 0x9e03
    10d4:	18021934 	stmdane	r2, {r2, r4, r5, r8, fp, ip}
    10d8:	89090000 	stmdbhi	r9, {}	; <UNPREDICTABLE>
    10dc:	11010182 	smlabbne	r1, r2, r1, r0
    10e0:	01133101 	tsteq	r3, r1, lsl #2
    10e4:	0a000013 	beq	1138 <__code_start__-0x6ec8>
    10e8:	0001828a 	andeq	r8, r1, sl, lsl #5
    10ec:	42911802 	addsmi	r1, r1, #131072	; 0x20000
    10f0:	0b000018 	bleq	1158 <__code_start__-0x6ea8>
    10f4:	00018289 	andeq	r8, r1, r9, lsl #5
    10f8:	13310111 	teqne	r1, #1073741828	; 0x40000004
    10fc:	010c0000 	mrseq	r0, (UNDEF: 12)
    1100:	01134901 	tsteq	r3, r1, lsl #18
    1104:	0d000013 	stceq	0, cr0, [r0, #-76]	; 0xffffffb4
    1108:	13490021 	movtne	r0, #36897	; 0x9021
    110c:	00000b2f 	andeq	r0, r0, pc, lsr #22
    1110:	3f002e0e 	svccc	0x00002e0e
    1114:	6e193c19 	mrcvs	12, 0, r3, cr9, cr9, {0}
    1118:	3a0e030e 	bcc	381d58 <__bss_end__+0x377200>
    111c:	390b3b0b 	stmdbcc	fp, {r0, r1, r3, r8, r9, fp, ip, sp}
    1120:	0000000b 	andeq	r0, r0, fp
    1124:	25011101 	strcs	r1, [r1, #-257]	; 0xfffffeff
    1128:	030b130e 	movweq	r1, #45838	; 0xb30e
    112c:	110e1b0e 	tstne	lr, lr, lsl #22
    1130:	10061201 	andne	r1, r6, r1, lsl #4
    1134:	02000017 	andeq	r0, r0, #23
    1138:	0b0b0024 	bleq	2c11d0 <__bss_end__+0x2b6678>
    113c:	08030b3e 	stmdaeq	r3, {r1, r2, r3, r4, r5, r8, r9, fp}
    1140:	24030000 	strcs	r0, [r3], #-0
    1144:	3e0b0b00 	vmlacc.f64	d0, d11, d0
    1148:	000e030b 	andeq	r0, lr, fp, lsl #6
    114c:	00260400 	eoreq	r0, r6, r0, lsl #8
    1150:	00001349 	andeq	r1, r0, r9, asr #6
    1154:	3f012e05 	svccc	0x00012e05
    1158:	3a0e0319 	bcc	381dc4 <__bss_end__+0x37726c>
    115c:	390b3b0b 	stmdbcc	fp, {r0, r1, r3, r8, r9, fp, ip, sp}
    1160:	1119270b 	tstne	r9, fp, lsl #14
    1164:	40061201 	andmi	r1, r6, r1, lsl #4
    1168:	19429718 	stmdbne	r2, {r3, r4, r8, r9, sl, ip, pc}^
    116c:	00001301 	andeq	r1, r0, r1, lsl #6
    1170:	03000506 	movweq	r0, #1286	; 0x506
    1174:	3b0b3a08 	blcc	2cf99c <__bss_end__+0x2c4e44>
    1178:	490b390b 	stmdbmi	fp, {r0, r1, r3, r8, fp, ip, sp}
    117c:	b7170213 			; <UNDEFINED> instruction: 0xb7170213
    1180:	00001742 	andeq	r1, r0, r2, asr #14
    1184:	03003407 	movweq	r3, #1031	; 0x407
    1188:	3413490e 	ldrcc	r4, [r3], #-2318	; 0xfffff6f2
    118c:	00180219 	andseq	r0, r8, r9, lsl r2
    1190:	82890800 	addhi	r0, r9, #0, 16
    1194:	01110101 	tsteq	r1, r1, lsl #2
    1198:	13011331 	movwne	r1, #4913	; 0x1331
    119c:	8a090000 	bhi	2411a4 <__bss_end__+0x23664c>
    11a0:	02000182 	andeq	r0, r0, #-2147483616	; 0x80000020
    11a4:	18429118 	stmdane	r2, {r3, r4, r8, ip, pc}^
    11a8:	890a0000 	stmdbhi	sl, {}	; <UNPREDICTABLE>
    11ac:	11000182 	smlabbne	r0, r2, r1, r0
    11b0:	00133101 	andseq	r3, r3, r1, lsl #2
    11b4:	01010b00 	tsteq	r1, r0, lsl #22
    11b8:	13011349 	movwne	r1, #4937	; 0x1349
    11bc:	210c0000 	mrscs	r0, (UNDEF: 12)
    11c0:	2f134900 	svccs	0x00134900
    11c4:	0d00000b 	stceq	0, cr0, [r0, #-44]	; 0xffffffd4
    11c8:	193f002e 	ldmdbne	pc!, {r1, r2, r3, r5}	; <UNPREDICTABLE>
    11cc:	0e6e193c 			; <UNDEFINED> instruction: 0x0e6e193c
    11d0:	0b3a0e03 	bleq	e849e4 <__bss_end__+0xe79e8c>
    11d4:	0b390b3b 	bleq	e43ec8 <__bss_end__+0xe39370>
    11d8:	01000000 	mrseq	r0, (UNDEF: 0)
    11dc:	0e250111 	mcreq	1, 1, r0, cr5, cr1, {0}
    11e0:	0e030b13 	vmoveq.32	d3[0], r0
    11e4:	01110e1b 	tsteq	r1, fp, lsl lr
    11e8:	17100612 			; <UNDEFINED> instruction: 0x17100612
    11ec:	24020000 	strcs	r0, [r2], #-0
    11f0:	3e0b0b00 	vmlacc.f64	d0, d11, d0
    11f4:	0008030b 	andeq	r0, r8, fp, lsl #6
    11f8:	00240300 	eoreq	r0, r4, r0, lsl #6
    11fc:	0b3e0b0b 	bleq	f83e30 <__bss_end__+0xf792d8>
    1200:	00000e03 	andeq	r0, r0, r3, lsl #28
    1204:	49002604 	stmdbmi	r0, {r2, r9, sl, sp}
    1208:	05000013 	streq	r0, [r0, #-19]	; 0xffffffed
    120c:	193f012e 	ldmdbne	pc!, {r1, r2, r3, r5, r8}	; <UNPREDICTABLE>
    1210:	0b3a0e03 	bleq	e84a24 <__bss_end__+0xe79ecc>
    1214:	0b390b3b 	bleq	e43f08 <__bss_end__+0xe393b0>
    1218:	01111927 	tsteq	r1, r7, lsr #18
    121c:	18400612 	stmdane	r0, {r1, r4, r9, sl}^
    1220:	01194297 			; <UNDEFINED> instruction: 0x01194297
    1224:	06000013 			; <UNDEFINED> instruction: 0x06000013
    1228:	08030005 	stmdaeq	r3, {r0, r2}
    122c:	0b3b0b3a 	bleq	ec3f1c <__bss_end__+0xeb93c4>
    1230:	13490b39 	movtne	r0, #39737	; 0x9b39
    1234:	42b71702 	adcsmi	r1, r7, #524288	; 0x80000
    1238:	07000017 	smladeq	r0, r7, r0, r0
    123c:	0e030034 	mcreq	0, 0, r0, cr3, cr4, {1}
    1240:	19341349 	ldmdbne	r4!, {r0, r3, r6, r8, r9, ip}
    1244:	00001802 	andeq	r1, r0, r2, lsl #16
    1248:	01828908 	orreq	r8, r2, r8, lsl #18
    124c:	31011101 	tstcc	r1, r1, lsl #2
    1250:	00130113 	andseq	r0, r3, r3, lsl r1
    1254:	828a0900 	addhi	r0, sl, #0, 18
    1258:	18020001 	stmdane	r2, {r0}
    125c:	00184291 	mulseq	r8, r1, r2
    1260:	82890a00 	addhi	r0, r9, #0, 20
    1264:	01110001 	tsteq	r1, r1
    1268:	00001331 	andeq	r1, r0, r1, lsr r3
    126c:	4901010b 	stmdbmi	r1, {r0, r1, r3, r8}
    1270:	00130113 	andseq	r0, r3, r3, lsl r1
    1274:	00210c00 	eoreq	r0, r1, r0, lsl #24
    1278:	0b2f1349 	bleq	bc5fa4 <__bss_end__+0xbbb44c>
    127c:	2e0d0000 	cdpcs	0, 0, cr0, cr13, cr0, {0}
    1280:	3c193f00 	ldccc	15, cr3, [r9], {-0}
    1284:	030e6e19 	movweq	r6, #60953	; 0xee19
    1288:	3b0b3a0e 	blcc	2cfac8 <__bss_end__+0x2c4f70>
    128c:	000b390b 	andeq	r3, fp, fp, lsl #18
    1290:	11010000 	mrsne	r0, (UNDEF: 1)
    1294:	130e2501 	movwne	r2, #58625	; 0xe501
    1298:	1b0e030b 	blne	381ecc <__bss_end__+0x377374>
    129c:	1201110e 	andne	r1, r1, #-2147483645	; 0x80000003
    12a0:	00171006 	andseq	r1, r7, r6
    12a4:	00240200 	eoreq	r0, r4, r0, lsl #4
    12a8:	0b3e0b0b 	bleq	f83edc <__bss_end__+0xf79384>
    12ac:	00000803 	andeq	r0, r0, r3, lsl #16
    12b0:	0b002403 	bleq	a2c4 <__FUNCTION__.4238>
    12b4:	030b3e0b 	movweq	r3, #48651	; 0xbe0b
    12b8:	0400000e 	streq	r0, [r0], #-14
    12bc:	13490026 	movtne	r0, #36902	; 0x9026
    12c0:	2e050000 	cdpcs	0, 0, cr0, cr5, cr0, {0}
    12c4:	03193f01 	tsteq	r9, #1, 30
    12c8:	3b0b3a0e 	blcc	2cfb08 <__bss_end__+0x2c4fb0>
    12cc:	270b390b 	strcs	r3, [fp, -fp, lsl #18]
    12d0:	12011119 	andne	r1, r1, #1073741830	; 0x40000006
    12d4:	97184006 	ldrls	r4, [r8, -r6]
    12d8:	13011942 	movwne	r1, #6466	; 0x1942
    12dc:	05060000 	streq	r0, [r6, #-0]
    12e0:	3a080300 	bcc	201ee8 <__bss_end__+0x1f7390>
    12e4:	390b3b0b 	stmdbcc	fp, {r0, r1, r3, r8, r9, fp, ip, sp}
    12e8:	0213490b 	andseq	r4, r3, #180224	; 0x2c000
    12ec:	1742b717 	smlaldne	fp, r2, r7, r7
    12f0:	34070000 	strcc	r0, [r7], #-0
    12f4:	490e0300 	stmdbmi	lr, {r8, r9}
    12f8:	02193413 	andseq	r3, r9, #318767104	; 0x13000000
    12fc:	08000018 	stmdaeq	r0, {r3, r4}
    1300:	01018289 	smlabbeq	r1, r9, r2, r8
    1304:	13310111 	teqne	r1, #1073741828	; 0x40000004
    1308:	00001301 	andeq	r1, r0, r1, lsl #6
    130c:	01828a09 	orreq	r8, r2, r9, lsl #20
    1310:	91180200 	tstls	r8, r0, lsl #4
    1314:	00001842 	andeq	r1, r0, r2, asr #16
    1318:	0182890a 	orreq	r8, r2, sl, lsl #18
    131c:	31011100 	mrscc	r1, (UNDEF: 17)
    1320:	0b000013 	bleq	1374 <__code_start__-0x6c8c>
    1324:	13490101 	movtne	r0, #37121	; 0x9101
    1328:	00001301 	andeq	r1, r0, r1, lsl #6
    132c:	4900210c 	stmdbmi	r0, {r2, r3, r8, sp}
    1330:	000b2f13 	andeq	r2, fp, r3, lsl pc
    1334:	002e0d00 	eoreq	r0, lr, r0, lsl #26
    1338:	193c193f 	ldmdbne	ip!, {r0, r1, r2, r3, r4, r5, r8, fp, ip}
    133c:	0e030e6e 	cdpeq	14, 0, cr0, cr3, cr14, {3}
    1340:	0b3b0b3a 	bleq	ec4030 <__bss_end__+0xeb94d8>
    1344:	00000b39 	andeq	r0, r0, r9, lsr fp
    1348:	01110100 	tsteq	r1, r0, lsl #2
    134c:	0b130e25 	bleq	4c4be8 <__bss_end__+0x4ba090>
    1350:	0e1b0e03 	cdpeq	14, 1, cr0, cr11, cr3, {0}
    1354:	06120111 			; <UNDEFINED> instruction: 0x06120111
    1358:	00001710 	andeq	r1, r0, r0, lsl r7
    135c:	0b002402 	bleq	a36c <__FUNCTION__.4257+0x4c>
    1360:	030b3e0b 	movweq	r3, #48651	; 0xbe0b
    1364:	03000008 	movweq	r0, #8
    1368:	0b0b0024 	bleq	2c1400 <__bss_end__+0x2b68a8>
    136c:	0e030b3e 	vmoveq.16	d3[0], r0
    1370:	2e040000 	cdpcs	0, 0, cr0, cr4, cr0, {0}
    1374:	03193f01 	tsteq	r9, #1, 30
    1378:	3b0b3a0e 	blcc	2cfbb8 <__bss_end__+0x2c5060>
    137c:	110b390b 	tstne	fp, fp, lsl #18
    1380:	40061201 	andmi	r1, r6, r1, lsl #4
    1384:	19429718 	stmdbne	r2, {r3, r4, r8, r9, sl, ip, pc}^
    1388:	00001301 	andeq	r1, r0, r1, lsl #6
    138c:	03003405 	movweq	r3, #1029	; 0x405
    1390:	3b0b3a0e 	blcc	2cfbd0 <__bss_end__+0x2c5078>
    1394:	490b390b 	stmdbmi	fp, {r0, r1, r3, r8, fp, ip, sp}
    1398:	3c193f13 	ldccc	15, cr3, [r9], {19}
    139c:	06000019 			; <UNDEFINED> instruction: 0x06000019
    13a0:	193f002e 	ldmdbne	pc!, {r1, r2, r3, r5}	; <UNPREDICTABLE>
    13a4:	0b3a0e03 	bleq	e84bb8 <__bss_end__+0xe7a060>
    13a8:	0b390b3b 	bleq	e4409c <__bss_end__+0xe39544>
    13ac:	193c1927 	ldmdbne	ip!, {r0, r1, r2, r5, r8, fp, ip}
    13b0:	34070000 	strcc	r0, [r7], #-0
    13b4:	3a080300 	bcc	201fbc <__bss_end__+0x1f7464>
    13b8:	390b3b0b 	stmdbcc	fp, {r0, r1, r3, r8, r9, fp, ip, sp}
    13bc:	0213490b 	andseq	r4, r3, #180224	; 0x2c000
    13c0:	1742b717 	smlaldne	fp, r2, r7, r7
    13c4:	34080000 	strcc	r0, [r8], #-0
    13c8:	3a0e0300 	bcc	381fd0 <__bss_end__+0x377478>
    13cc:	390b3b0b 	stmdbcc	fp, {r0, r1, r3, r8, r9, fp, ip, sp}
    13d0:	0013490b 	andseq	r4, r3, fp, lsl #18
    13d4:	010b0900 	tsteq	fp, r0, lsl #18
    13d8:	06120111 			; <UNDEFINED> instruction: 0x06120111
    13dc:	00001301 	andeq	r1, r0, r1, lsl #6
    13e0:	0300340a 	movweq	r3, #1034	; 0x40a
    13e4:	3b0b3a08 	blcc	2cfc0c <__bss_end__+0x2c50b4>
    13e8:	490b390b 	stmdbmi	fp, {r0, r1, r3, r8, fp, ip, sp}
    13ec:	000b1c13 	andeq	r1, fp, r3, lsl ip
    13f0:	82890b00 	addhi	r0, r9, #0, 22
    13f4:	01110001 	tsteq	r1, r1
    13f8:	00001331 	andeq	r1, r0, r1, lsr r3
    13fc:	0b000f0c 	bleq	5034 <__code_start__-0x2fcc>
    1400:	0013490b 	andseq	r4, r3, fp, lsl #18
    1404:	002e0d00 	eoreq	r0, lr, r0, lsl #26
    1408:	193c193f 	ldmdbne	ip!, {r0, r1, r2, r3, r4, r5, r8, fp, ip}
    140c:	0e030e6e 	cdpeq	14, 0, cr0, cr3, cr14, {3}
    1410:	053b0b3a 	ldreq	r0, [fp, #-2874]!	; 0xfffff4c6
    1414:	00000b39 	andeq	r0, r0, r9, lsr fp
    1418:	3f002e0e 	svccc	0x00002e0e
    141c:	6e193c19 	mrcvs	12, 0, r3, cr9, cr9, {0}
    1420:	3a0e030e 	bcc	382060 <__bss_end__+0x377508>
    1424:	390b3b0b 	stmdbcc	fp, {r0, r1, r3, r8, r9, fp, ip, sp}
    1428:	0000000b 	andeq	r0, r0, fp
    142c:	25011101 	strcs	r1, [r1, #-257]	; 0xfffffeff
    1430:	030b130e 	movweq	r1, #45838	; 0xb30e
    1434:	550e1b0e 	strpl	r1, [lr, #-2830]	; 0xfffff4f2
    1438:	10011117 	andne	r1, r1, r7, lsl r1
    143c:	02000017 	andeq	r0, r0, #23
    1440:	0b0b0024 	bleq	2c14d8 <__bss_end__+0x2b6980>
    1444:	08030b3e 	stmdaeq	r3, {r1, r2, r3, r4, r5, r8, r9, fp}
    1448:	26030000 	strcs	r0, [r3], -r0
    144c:	00134900 	andseq	r4, r3, r0, lsl #18
    1450:	00240400 	eoreq	r0, r4, r0, lsl #8
    1454:	0b3e0b0b 	bleq	f84088 <__bss_end__+0xf79530>
    1458:	00000e03 	andeq	r0, r0, r3, lsl #28
    145c:	03003405 	movweq	r3, #1029	; 0x405
    1460:	3b0b3a0e 	blcc	2cfca0 <__bss_end__+0x2c5148>
    1464:	490b390b 	stmdbmi	fp, {r0, r1, r3, r8, fp, ip, sp}
    1468:	06000013 			; <UNDEFINED> instruction: 0x06000013
    146c:	193f012e 	ldmdbne	pc!, {r1, r2, r3, r5, r8}	; <UNPREDICTABLE>
    1470:	0b3a0e03 	bleq	e84c84 <__bss_end__+0xe7a12c>
    1474:	0b390b3b 	bleq	e44168 <__bss_end__+0xe39610>
    1478:	01871927 	orreq	r1, r7, r7, lsr #18
    147c:	12011119 	andne	r1, r1, #1073741830	; 0x40000006
    1480:	97184006 	ldrls	r4, [r8, -r6]
    1484:	13011942 	movwne	r1, #6466	; 0x1942
    1488:	34070000 	strcc	r0, [r7], #-0
    148c:	3a0e0300 	bcc	382094 <__bss_end__+0x37753c>
    1490:	390b3b0b 	stmdbcc	fp, {r0, r1, r3, r8, r9, fp, ip, sp}
    1494:	0213490b 	andseq	r4, r3, #180224	; 0x2c000
    1498:	1742b717 	smlaldne	fp, r2, r7, r7
    149c:	89080000 	stmdbhi	r8, {}	; <UNPREDICTABLE>
    14a0:	11000182 	smlabbne	r0, r2, r1, r0
    14a4:	00133101 	andseq	r3, r3, r1, lsl #2
    14a8:	82890900 	addhi	r0, r9, #0, 18
    14ac:	01110101 	tsteq	r1, r1, lsl #2
    14b0:	13011331 	movwne	r1, #4913	; 0x1331
    14b4:	8a0a0000 	bhi	2814bc <__bss_end__+0x276964>
    14b8:	02000182 	andeq	r0, r0, #-2147483616	; 0x80000020
    14bc:	18429118 	stmdane	r2, {r3, r4, r8, ip, pc}^
    14c0:	2e0b0000 	cdpcs	0, 0, cr0, cr11, cr0, {0}
    14c4:	03193f01 	tsteq	r9, #1, 30
    14c8:	3b0b3a0e 	blcc	2cfd08 <__bss_end__+0x2c51b0>
    14cc:	270b390b 	strcs	r3, [fp, -fp, lsl #18]
    14d0:	12011119 	andne	r1, r1, #1073741830	; 0x40000006
    14d4:	97184006 	ldrls	r4, [r8, -r6]
    14d8:	13011942 	movwne	r1, #6466	; 0x1942
    14dc:	2e0c0000 	cdpcs	0, 0, cr0, cr12, cr0, {0}
    14e0:	03193f01 	tsteq	r9, #1, 30
    14e4:	3b0b3a0e 	blcc	2cfd24 <__bss_end__+0x2c51cc>
    14e8:	270b390b 	strcs	r3, [fp, -fp, lsl #18]
    14ec:	11134919 	tstne	r3, r9, lsl r9
    14f0:	40061201 	andmi	r1, r6, r1, lsl #4
    14f4:	19429718 	stmdbne	r2, {r3, r4, r8, r9, sl, ip, pc}^
    14f8:	00001301 	andeq	r1, r0, r1, lsl #6
    14fc:	3f002e0d 	svccc	0x00002e0d
    1500:	6e193c19 	mrcvs	12, 0, r3, cr9, cr9, {0}
    1504:	3a0e030e 	bcc	382144 <__bss_end__+0x3775ec>
    1508:	390b3b0b 	stmdbcc	fp, {r0, r1, r3, r8, r9, fp, ip, sp}
    150c:	0000000b 	andeq	r0, r0, fp
    1510:	25011101 	strcs	r1, [r1, #-257]	; 0xfffffeff
    1514:	030b130e 	movweq	r1, #45838	; 0xb30e
    1518:	110e1b0e 	tstne	lr, lr, lsl #22
    151c:	10061201 	andne	r1, r6, r1, lsl #4
    1520:	02000017 	andeq	r0, r0, #23
    1524:	0b0b0024 	bleq	2c15bc <__bss_end__+0x2b6a64>
    1528:	08030b3e 	stmdaeq	r3, {r1, r2, r3, r4, r5, r8, r9, fp}
    152c:	24030000 	strcs	r0, [r3], #-0
    1530:	3e0b0b00 	vmlacc.f64	d0, d11, d0
    1534:	000e030b 	andeq	r0, lr, fp, lsl #6
    1538:	01150400 	tsteq	r5, r0, lsl #8
    153c:	13491927 	movtne	r1, #39207	; 0x9927
    1540:	00001301 	andeq	r1, r0, r1, lsl #6
    1544:	49000505 	stmdbmi	r0, {r0, r2, r8, sl}
    1548:	06000013 			; <UNDEFINED> instruction: 0x06000013
    154c:	0b0b000f 	bleq	2c1590 <__bss_end__+0x2b6a38>
    1550:	00001349 	andeq	r1, r0, r9, asr #6
    1554:	49002607 	stmdbmi	r0, {r0, r1, r2, r9, sl, sp}
    1558:	08000013 	stmdaeq	r0, {r0, r1, r4}
    155c:	0e030034 	mcreq	0, 0, r0, cr3, cr4, {1}
    1560:	0b3b0b3a 	bleq	ec4250 <__bss_end__+0xeb96f8>
    1564:	13490b39 	movtne	r0, #39737	; 0x9b39
    1568:	193c193f 	ldmdbne	ip!, {r0, r1, r2, r3, r4, r5, r8, fp, ip}
    156c:	2e090000 	cdpcs	0, 0, cr0, cr9, cr0, {0}
    1570:	03193f01 	tsteq	r9, #1, 30
    1574:	3b0b3a0e 	blcc	2cfdb4 <__bss_end__+0x2c525c>
    1578:	270b390b 	strcs	r3, [fp, -fp, lsl #18]
    157c:	19018719 	stmdbne	r1, {r0, r3, r4, r8, r9, sl, pc}
    1580:	06120111 			; <UNDEFINED> instruction: 0x06120111
    1584:	42971840 	addsmi	r1, r7, #64, 16	; 0x400000
    1588:	00130119 	andseq	r0, r3, r9, lsl r1
    158c:	82890a00 	addhi	r0, r9, #0, 20
    1590:	01110101 	tsteq	r1, r1, lsl #2
    1594:	00001301 	andeq	r1, r0, r1, lsl #6
    1598:	01828a0b 	orreq	r8, r2, fp, lsl #20
    159c:	91180200 	tstls	r8, r0, lsl #4
    15a0:	00001842 	andeq	r1, r0, r2, asr #16
    15a4:	0182890c 	orreq	r8, r2, ip, lsl #18
    15a8:	31011100 	mrscc	r1, (UNDEF: 17)
    15ac:	0d000013 	stceq	0, cr0, [r0, #-76]	; 0xffffffb4
    15b0:	01018289 	smlabbeq	r1, r9, r2, r8
    15b4:	13310111 	teqne	r1, #1073741828	; 0x40000004
    15b8:	00001301 	andeq	r1, r0, r1, lsl #6
    15bc:	3f002e0e 	svccc	0x00002e0e
    15c0:	6e193c19 	mrcvs	12, 0, r3, cr9, cr9, {0}
    15c4:	3a0e030e 	bcc	382204 <__bss_end__+0x3776ac>
    15c8:	390b3b0b 	stmdbcc	fp, {r0, r1, r3, r8, r9, fp, ip, sp}
    15cc:	0000000b 	andeq	r0, r0, fp
    15d0:	25011101 	strcs	r1, [r1, #-257]	; 0xfffffeff
    15d4:	030b130e 	movweq	r1, #45838	; 0xb30e
    15d8:	110e1b0e 	tstne	lr, lr, lsl #22
    15dc:	10061201 	andne	r1, r6, r1, lsl #4
    15e0:	02000017 	andeq	r0, r0, #23
    15e4:	0b0b0024 	bleq	2c167c <__bss_end__+0x2b6b24>
    15e8:	08030b3e 	stmdaeq	r3, {r1, r2, r3, r4, r5, r8, r9, fp}
    15ec:	24030000 	strcs	r0, [r3], #-0
    15f0:	3e0b0b00 	vmlacc.f64	d0, d11, d0
    15f4:	000e030b 	andeq	r0, lr, fp, lsl #6
    15f8:	012e0400 			; <UNDEFINED> instruction: 0x012e0400
    15fc:	0e03193f 			; <UNDEFINED> instruction: 0x0e03193f
    1600:	0b3b0b3a 	bleq	ec42f0 <__bss_end__+0xeb9798>
    1604:	19270b39 	stmdbne	r7!, {r0, r3, r4, r5, r8, r9, fp}
    1608:	06120111 			; <UNDEFINED> instruction: 0x06120111
    160c:	42971840 	addsmi	r1, r7, #64, 16	; 0x400000
    1610:	00130119 	andseq	r0, r3, r9, lsl r1
    1614:	00050500 	andeq	r0, r5, r0, lsl #10
    1618:	0b3a0803 	bleq	e8362c <__bss_end__+0xe78ad4>
    161c:	0b390b3b 	bleq	e44310 <__bss_end__+0xe397b8>
    1620:	17021349 	strne	r1, [r2, -r9, asr #6]
    1624:	001742b7 			; <UNDEFINED> instruction: 0x001742b7
    1628:	82890600 	addhi	r0, r9, #0, 12
    162c:	01110101 	tsteq	r1, r1, lsl #2
    1630:	00001331 	andeq	r1, r0, r1, lsr r3
    1634:	01828a07 	orreq	r8, r2, r7, lsl #20
    1638:	91180200 	tstls	r8, r0, lsl #4
    163c:	00001842 	andeq	r1, r0, r2, asr #16
    1640:	03003408 	movweq	r3, #1032	; 0x408
    1644:	3b0b3a08 	blcc	2cfe6c <__bss_end__+0x2c5314>
    1648:	490b390b 	stmdbmi	fp, {r0, r1, r3, r8, fp, ip, sp}
    164c:	b7170213 			; <UNDEFINED> instruction: 0xb7170213
    1650:	00001742 	andeq	r1, r0, r2, asr #14
    1654:	11010b09 	tstne	r1, r9, lsl #22
    1658:	01061201 	tsteq	r6, r1, lsl #4
    165c:	0a000013 	beq	16b0 <__code_start__-0x6950>
    1660:	00018289 	andeq	r8, r1, r9, lsl #5
    1664:	13310111 	teqne	r1, #1073741828	; 0x40000004
    1668:	2e0b0000 	cdpcs	0, 0, cr0, cr11, cr0, {0}
    166c:	03193f01 	tsteq	r9, #1, 30
    1670:	3b0b3a0e 	blcc	2cfeb0 <__bss_end__+0x2c5358>
    1674:	270b390b 	strcs	r3, [fp, -fp, lsl #18]
    1678:	11134919 	tstne	r3, r9, lsl r9
    167c:	40061201 	andmi	r1, r6, r1, lsl #4
    1680:	19429718 	stmdbne	r2, {r3, r4, r8, r9, sl, ip, pc}^
    1684:	00001301 	andeq	r1, r0, r1, lsl #6
    1688:	3f002e0c 	svccc	0x00002e0c
    168c:	6e193c19 	mrcvs	12, 0, r3, cr9, cr9, {0}
    1690:	3a0e030e 	bcc	3822d0 <__bss_end__+0x377778>
    1694:	390b3b0b 	stmdbcc	fp, {r0, r1, r3, r8, r9, fp, ip, sp}
    1698:	0000000b 	andeq	r0, r0, fp
    169c:	25011101 	strcs	r1, [r1, #-257]	; 0xfffffeff
    16a0:	030b130e 	movweq	r1, #45838	; 0xb30e
    16a4:	110e1b0e 	tstne	lr, lr, lsl #22
    16a8:	10061201 	andne	r1, r6, r1, lsl #4
    16ac:	02000017 	andeq	r0, r0, #23
    16b0:	0b0b0024 	bleq	2c1748 <__bss_end__+0x2b6bf0>
    16b4:	08030b3e 	stmdaeq	r3, {r1, r2, r3, r4, r5, r8, r9, fp}
    16b8:	24030000 	strcs	r0, [r3], #-0
    16bc:	3e0b0b00 	vmlacc.f64	d0, d11, d0
    16c0:	000e030b 	andeq	r0, lr, fp, lsl #6
    16c4:	00350400 	eorseq	r0, r5, r0, lsl #8
    16c8:	00001349 	andeq	r1, r0, r9, asr #6
    16cc:	03001605 	movweq	r1, #1541	; 0x605
    16d0:	3b0b3a0e 	blcc	2cff10 <__bss_end__+0x2c53b8>
    16d4:	490b390b 	stmdbmi	fp, {r0, r1, r3, r8, fp, ip, sp}
    16d8:	06000013 			; <UNDEFINED> instruction: 0x06000013
    16dc:	0b3e0104 	bleq	f81af4 <__bss_end__+0xf76f9c>
    16e0:	13490b0b 	movtne	r0, #39691	; 0x9b0b
    16e4:	0b3b0b3a 	bleq	ec43d4 <__bss_end__+0xeb987c>
    16e8:	13010b39 	movwne	r0, #6969	; 0x1b39
    16ec:	28070000 	stmdacs	r7, {}	; <UNPREDICTABLE>
    16f0:	1c0e0300 	stcne	3, cr0, [lr], {-0}
    16f4:	0800000b 	stmdaeq	r0, {r0, r1, r3}
    16f8:	0e030113 	mcreq	1, 0, r0, cr3, cr3, {0}
    16fc:	0b3a0b0b 	bleq	e84330 <__bss_end__+0xe797d8>
    1700:	0b390b3b 	bleq	e443f4 <__bss_end__+0xe3989c>
    1704:	00001301 	andeq	r1, r0, r1, lsl #6
    1708:	03000d09 	movweq	r0, #3337	; 0xd09
    170c:	3b0b3a08 	blcc	2cff34 <__bss_end__+0x2c53dc>
    1710:	490b390b 	stmdbmi	fp, {r0, r1, r3, r8, fp, ip, sp}
    1714:	000b3813 	andeq	r3, fp, r3, lsl r8
    1718:	000d0a00 	andeq	r0, sp, r0, lsl #20
    171c:	0b3a0e03 	bleq	e84f30 <__bss_end__+0xe7a3d8>
    1720:	0b390b3b 	bleq	e44414 <__bss_end__+0xe398bc>
    1724:	0b381349 	bleq	e06450 <__bss_end__+0xdfb8f8>
    1728:	340b0000 	strcc	r0, [fp], #-0
    172c:	3a0e0300 	bcc	382334 <__bss_end__+0x3777dc>
    1730:	390b3b0b 	stmdbcc	fp, {r0, r1, r3, r8, r9, fp, ip, sp}
    1734:	1c13490b 			; <UNDEFINED> instruction: 0x1c13490b
    1738:	0c000006 	stceq	0, cr0, [r0], {6}
    173c:	0b0b000f 	bleq	2c1780 <__bss_end__+0x2b6c28>
    1740:	00001349 	andeq	r1, r0, r9, asr #6
    1744:	4900260d 	stmdbmi	r0, {r0, r2, r3, r9, sl, sp}
    1748:	0e000013 	mcreq	0, 0, r0, cr0, cr3, {0}
    174c:	193f012e 	ldmdbne	pc!, {r1, r2, r3, r5, r8}	; <UNPREDICTABLE>
    1750:	0b3a0e03 	bleq	e84f64 <__bss_end__+0xe7a40c>
    1754:	0b390b3b 	bleq	e44448 <__bss_end__+0xe398f0>
    1758:	01111927 	tsteq	r1, r7, lsr #18
    175c:	18400612 	stmdane	r0, {r1, r4, r9, sl}^
    1760:	01194297 			; <UNDEFINED> instruction: 0x01194297
    1764:	0f000013 	svceq	0x00000013
    1768:	00018289 	andeq	r8, r1, r9, lsl #5
    176c:	13310111 	teqne	r1, #1073741828	; 0x40000004
    1770:	2e100000 	cdpcs	0, 1, cr0, cr0, cr0, {0}
    1774:	03193f01 	tsteq	r9, #1, 30
    1778:	3b0b3a0e 	blcc	2cffb8 <__bss_end__+0x2c5460>
    177c:	270b390b 	strcs	r3, [fp, -fp, lsl #18]
    1780:	11134919 	tstne	r3, r9, lsl r9
    1784:	40061201 	andmi	r1, r6, r1, lsl #4
    1788:	19429718 	stmdbne	r2, {r3, r4, r8, r9, sl, ip, pc}^
    178c:	00001301 	andeq	r1, r0, r1, lsl #6
    1790:	01828911 	orreq	r8, r2, r1, lsl r9
    1794:	31011101 	tstcc	r1, r1, lsl #2
    1798:	12000013 	andne	r0, r0, #19
    179c:	0001828a 	andeq	r8, r1, sl, lsl #5
    17a0:	42911802 	addsmi	r1, r1, #131072	; 0x20000
    17a4:	13000018 	movwne	r0, #24
    17a8:	08030005 	stmdaeq	r3, {r0, r2}
    17ac:	0b3b0b3a 	bleq	ec449c <__bss_end__+0xeb9944>
    17b0:	13490b39 	movtne	r0, #39737	; 0x9b39
    17b4:	42b71702 	adcsmi	r1, r7, #524288	; 0x80000
    17b8:	14000017 	strne	r0, [r0], #-23	; 0xffffffe9
    17bc:	01018289 	smlabbeq	r1, r9, r2, r8
    17c0:	13310111 	teqne	r1, #1073741828	; 0x40000004
    17c4:	00001301 	andeq	r1, r0, r1, lsl #6
    17c8:	03003415 	movweq	r3, #1045	; 0x415
    17cc:	3b0b3a08 	blcc	2cfff4 <__bss_end__+0x2c549c>
    17d0:	490b390b 	stmdbmi	fp, {r0, r1, r3, r8, fp, ip, sp}
    17d4:	b7170213 			; <UNDEFINED> instruction: 0xb7170213
    17d8:	00001742 	andeq	r1, r0, r2, asr #14
    17dc:	03003416 	movweq	r3, #1046	; 0x416
    17e0:	3b0b3a0e 	blcc	2d0020 <__bss_end__+0x2c54c8>
    17e4:	490b390b 	stmdbmi	fp, {r0, r1, r3, r8, fp, ip, sp}
    17e8:	00051c13 	andeq	r1, r5, r3, lsl ip
    17ec:	012e1700 			; <UNDEFINED> instruction: 0x012e1700
    17f0:	0b3a0e03 	bleq	e85004 <__bss_end__+0xe7a4ac>
    17f4:	0b390b3b 	bleq	e444e8 <__bss_end__+0xe39990>
    17f8:	01111927 	tsteq	r1, r7, lsr #18
    17fc:	18400612 	stmdane	r0, {r1, r4, r9, sl}^
    1800:	01194297 			; <UNDEFINED> instruction: 0x01194297
    1804:	18000013 	stmdane	r0, {r0, r1, r4}
    1808:	0e030005 	cdpeq	0, 0, cr0, cr3, cr5, {0}
    180c:	0b3b0b3a 	bleq	ec44fc <__bss_end__+0xeb99a4>
    1810:	13490b39 	movtne	r0, #39737	; 0x9b39
    1814:	42b71702 	adcsmi	r1, r7, #524288	; 0x80000
    1818:	19000017 	stmdbne	r0, {r0, r1, r2, r4}
    181c:	00000035 	andeq	r0, r0, r5, lsr r0
    1820:	3f002e1a 	svccc	0x00002e1a
    1824:	6e193c19 	mrcvs	12, 0, r3, cr9, cr9, {0}
    1828:	3a0e030e 	bcc	382468 <__bss_end__+0x377910>
    182c:	390b3b0b 	stmdbcc	fp, {r0, r1, r3, r8, r9, fp, ip, sp}
    1830:	0000000b 	andeq	r0, r0, fp
    1834:	25011101 	strcs	r1, [r1, #-257]	; 0xfffffeff
    1838:	030b130e 	movweq	r1, #45838	; 0xb30e
    183c:	110e1b0e 	tstne	lr, lr, lsl #22
    1840:	10061201 	andne	r1, r6, r1, lsl #4
    1844:	02000017 	andeq	r0, r0, #23
    1848:	0b0b0024 	bleq	2c18e0 <__bss_end__+0x2b6d88>
    184c:	08030b3e 	stmdaeq	r3, {r1, r2, r3, r4, r5, r8, r9, fp}
    1850:	24030000 	strcs	r0, [r3], #-0
    1854:	3e0b0b00 	vmlacc.f64	d0, d11, d0
    1858:	000e030b 	andeq	r0, lr, fp, lsl #6
    185c:	00160400 	andseq	r0, r6, r0, lsl #8
    1860:	0b3a0e03 	bleq	e85074 <__bss_end__+0xe7a51c>
    1864:	0b390b3b 	bleq	e44558 <__bss_end__+0xe39a00>
    1868:	00001349 	andeq	r1, r0, r9, asr #6
    186c:	27011505 	strcs	r1, [r1, -r5, lsl #10]
    1870:	01134919 	tsteq	r3, r9, lsl r9
    1874:	06000013 			; <UNDEFINED> instruction: 0x06000013
    1878:	13490005 	movtne	r0, #36869	; 0x9005
    187c:	34070000 	strcc	r0, [r7], #-0
    1880:	3a0e0300 	bcc	382488 <__bss_end__+0x377930>
    1884:	390b3b0b 	stmdbcc	fp, {r0, r1, r3, r8, r9, fp, ip, sp}
    1888:	3f13490b 	svccc	0x0013490b
    188c:	00193c19 	andseq	r3, r9, r9, lsl ip
    1890:	000f0800 	andeq	r0, pc, r0, lsl #16
    1894:	13490b0b 	movtne	r0, #39691	; 0x9b0b
    1898:	26090000 	strcs	r0, [r9], -r0
    189c:	00134900 	andseq	r4, r3, r0, lsl #18
    18a0:	01130a00 	tsteq	r3, r0, lsl #20
    18a4:	0b0b0e03 	bleq	2c50b8 <__bss_end__+0x2ba560>
    18a8:	0b3b0b3a 	bleq	ec4598 <__bss_end__+0xeb9a40>
    18ac:	00001301 	andeq	r1, r0, r1, lsl #6
    18b0:	03000d0b 	movweq	r0, #3339	; 0xd0b
    18b4:	3813490e 	ldmdacc	r3, {r1, r2, r3, r8, fp, lr}
    18b8:	0019340b 	andseq	r3, r9, fp, lsl #8
    18bc:	000f0c00 	andeq	r0, pc, r0, lsl #24
    18c0:	00000b0b 	andeq	r0, r0, fp, lsl #22
    18c4:	3f012e0d 	svccc	0x00012e0d
    18c8:	3a0e0319 	bcc	382534 <__bss_end__+0x3779dc>
    18cc:	390b3b0b 	stmdbcc	fp, {r0, r1, r3, r8, r9, fp, ip, sp}
    18d0:	4919270b 	ldmdbmi	r9, {r0, r1, r3, r8, r9, sl, sp}
    18d4:	12011113 	andne	r1, r1, #-1073741820	; 0xc0000004
    18d8:	97184006 	ldrls	r4, [r8, -r6]
    18dc:	13011942 	movwne	r1, #6466	; 0x1942
    18e0:	050e0000 	streq	r0, [lr, #-0]
    18e4:	3a080300 	bcc	2024ec <__bss_end__+0x1f7994>
    18e8:	390b3b0b 	stmdbcc	fp, {r0, r1, r3, r8, r9, fp, ip, sp}
    18ec:	0213490b 	andseq	r4, r3, #180224	; 0x2c000
    18f0:	1742b717 	smlaldne	fp, r2, r7, r7
    18f4:	050f0000 	streq	r0, [pc, #-0]	; 18fc <__code_start__-0x6704>
    18f8:	3a0e0300 	bcc	382500 <__bss_end__+0x3779a8>
    18fc:	390b3b0b 	stmdbcc	fp, {r0, r1, r3, r8, r9, fp, ip, sp}
    1900:	0213490b 	andseq	r4, r3, #180224	; 0x2c000
    1904:	10000018 	andne	r0, r0, r8, lsl r0
    1908:	08030034 	stmdaeq	r3, {r2, r4, r5}
    190c:	0b3b0b3a 	bleq	ec45fc <__bss_end__+0xeb9aa4>
    1910:	13490b39 	movtne	r0, #39737	; 0x9b39
    1914:	42b71702 	adcsmi	r1, r7, #524288	; 0x80000
    1918:	11000017 	tstne	r0, r7, lsl r0
    191c:	08030034 	stmdaeq	r3, {r2, r4, r5}
    1920:	0b3b0b3a 	bleq	ec4610 <__bss_end__+0xeb9ab8>
    1924:	13490b39 	movtne	r0, #39737	; 0x9b39
    1928:	34120000 	ldrcc	r0, [r2], #-0
    192c:	3a0e0300 	bcc	382534 <__bss_end__+0x3779dc>
    1930:	390b3b0b 	stmdbcc	fp, {r0, r1, r3, r8, r9, fp, ip, sp}
    1934:	0213490b 	andseq	r4, r3, #180224	; 0x2c000
    1938:	1742b717 	smlaldne	fp, r2, r7, r7
    193c:	34130000 	ldrcc	r0, [r3], #-0
    1940:	490e0300 	stmdbmi	lr, {r8, r9}
    1944:	02193413 	andseq	r3, r9, #318767104	; 0x13000000
    1948:	14000018 	strne	r0, [r0], #-24	; 0xffffffe8
    194c:	0111010b 	tsteq	r1, fp, lsl #2
    1950:	00000612 	andeq	r0, r0, r2, lsl r6
    1954:	03003415 	movweq	r3, #1045	; 0x415
    1958:	3b0b3a08 	blcc	2d0180 <__bss_end__+0x2c5628>
    195c:	490b390b 	stmdbmi	fp, {r0, r1, r3, r8, fp, ip, sp}
    1960:	00180213 	andseq	r0, r8, r3, lsl r2
    1964:	00341600 	eorseq	r1, r4, r0, lsl #12
    1968:	0b3a0e03 	bleq	e8517c <__bss_end__+0xe7a624>
    196c:	0b390b3b 	bleq	e44660 <__bss_end__+0xe39b08>
    1970:	18021349 	stmdane	r2, {r0, r3, r6, r8, r9, ip}
    1974:	0b170000 	bleq	5c197c <__bss_end__+0x5b6e24>
    1978:	12011101 	andne	r1, r1, #1073741824	; 0x40000000
    197c:	00130106 	andseq	r0, r3, r6, lsl #2
    1980:	82891800 	addhi	r1, r9, #0, 16
    1984:	01110101 	tsteq	r1, r1, lsl #2
    1988:	13011331 	movwne	r1, #4913	; 0x1331
    198c:	8a190000 	bhi	641994 <__bss_end__+0x636e3c>
    1990:	02000182 	andeq	r0, r0, #-2147483616	; 0x80000020
    1994:	18429118 	stmdane	r2, {r3, r4, r8, ip, pc}^
    1998:	891a0000 	ldmdbhi	sl, {}	; <UNPREDICTABLE>
    199c:	11000182 	smlabbne	r0, r2, r1, r0
    19a0:	00133101 	andseq	r3, r3, r1, lsl #2
    19a4:	82891b00 	addhi	r1, r9, #0, 22
    19a8:	01110101 	tsteq	r1, r1, lsl #2
    19ac:	00001301 	andeq	r1, r0, r1, lsl #6
    19b0:	4901011c 	stmdbmi	r1, {r2, r3, r4, r8}
    19b4:	00130113 	andseq	r0, r3, r3, lsl r1
    19b8:	00211d00 	eoreq	r1, r1, r0, lsl #26
    19bc:	0b2f1349 	bleq	bc66e8 <__bss_end__+0xbbbb90>
    19c0:	2e1e0000 	cdpcs	0, 1, cr0, cr14, cr0, {0}
    19c4:	3a0e0301 	bcc	3825d0 <__bss_end__+0x377a78>
    19c8:	390b3b0b 	stmdbcc	fp, {r0, r1, r3, r8, r9, fp, ip, sp}
    19cc:	4919270b 	ldmdbmi	r9, {r0, r1, r3, r8, r9, sl, sp}
    19d0:	12011113 	andne	r1, r1, #-1073741820	; 0xc0000004
    19d4:	97184006 	ldrls	r4, [r8, -r6]
    19d8:	13011942 	movwne	r1, #6466	; 0x1942
    19dc:	051f0000 	ldreq	r0, [pc, #-0]	; 19e4 <__code_start__-0x661c>
    19e0:	3a0e0300 	bcc	3825e8 <__bss_end__+0x377a90>
    19e4:	390b3b0b 	stmdbcc	fp, {r0, r1, r3, r8, r9, fp, ip, sp}
    19e8:	0213490b 	andseq	r4, r3, #180224	; 0x2c000
    19ec:	1742b717 	smlaldne	fp, r2, r7, r7
    19f0:	2e200000 	cdpcs	0, 2, cr0, cr0, cr0, {0}
    19f4:	3a080301 	bcc	202600 <__bss_end__+0x1f7aa8>
    19f8:	390b3b0b 	stmdbcc	fp, {r0, r1, r3, r8, r9, fp, ip, sp}
    19fc:	4919270b 	ldmdbmi	r9, {r0, r1, r3, r8, r9, sl, sp}
    1a00:	12011113 	andne	r1, r1, #-1073741820	; 0xc0000004
    1a04:	97184006 	ldrls	r4, [r8, -r6]
    1a08:	13011942 	movwne	r1, #6466	; 0x1942
    1a0c:	2e210000 	cdpcs	0, 2, cr0, cr1, cr0, {0}
    1a10:	03193f01 	tsteq	r9, #1, 30
    1a14:	3b0b3a0e 	blcc	2d0254 <__bss_end__+0x2c56fc>
    1a18:	270b390b 	strcs	r3, [fp, -fp, lsl #18]
    1a1c:	12011119 	andne	r1, r1, #1073741830	; 0x40000006
    1a20:	97184006 	ldrls	r4, [r8, -r6]
    1a24:	13011942 	movwne	r1, #6466	; 0x1942
    1a28:	2e220000 	cdpcs	0, 2, cr0, cr2, cr0, {0}
    1a2c:	3c193f00 	ldccc	15, cr3, [r9], {-0}
    1a30:	030e6e19 	movweq	r6, #60953	; 0xee19
    1a34:	3b0b3a0e 	blcc	2d0274 <__bss_end__+0x2c571c>
    1a38:	000b390b 	andeq	r3, fp, fp, lsl #18
    1a3c:	11010000 	mrsne	r0, (UNDEF: 1)
    1a40:	130e2501 	movwne	r2, #58625	; 0xe501
    1a44:	1b0e030b 	blne	382678 <__bss_end__+0x377b20>
    1a48:	1201110e 	andne	r1, r1, #-2147483645	; 0x80000003
    1a4c:	00171006 	andseq	r1, r7, r6
    1a50:	00240200 	eoreq	r0, r4, r0, lsl #4
    1a54:	0b3e0b0b 	bleq	f84688 <__bss_end__+0xf79b30>
    1a58:	00000803 	andeq	r0, r0, r3, lsl #16
    1a5c:	0b002403 	bleq	aa70 <buf.0+0x318>
    1a60:	030b3e0b 	movweq	r3, #48651	; 0xbe0b
    1a64:	0400000e 	streq	r0, [r0], #-14
    1a68:	0b0b000f 	bleq	2c1aac <__bss_end__+0x2b6f54>
    1a6c:	00001349 	andeq	r1, r0, r9, asr #6
    1a70:	49002605 	stmdbmi	r0, {r0, r2, r9, sl, sp}
    1a74:	06000013 			; <UNDEFINED> instruction: 0x06000013
    1a78:	193f012e 	ldmdbne	pc!, {r1, r2, r3, r5, r8}	; <UNPREDICTABLE>
    1a7c:	0b3a0e03 	bleq	e85290 <__bss_end__+0xe7a738>
    1a80:	0b390b3b 	bleq	e44774 <__bss_end__+0xe39c1c>
    1a84:	13491927 	movtne	r1, #39207	; 0x9927
    1a88:	06120111 			; <UNDEFINED> instruction: 0x06120111
    1a8c:	42971840 	addsmi	r1, r7, #64, 16	; 0x400000
    1a90:	07000019 	smladeq	r0, r9, r0, r0
    1a94:	08030005 	stmdaeq	r3, {r0, r2}
    1a98:	0b3b0b3a 	bleq	ec4788 <__bss_end__+0xeb9c30>
    1a9c:	13490b39 	movtne	r0, #39737	; 0x9b39
    1aa0:	42b71702 	adcsmi	r1, r7, #524288	; 0x80000
    1aa4:	00000017 	andeq	r0, r0, r7, lsl r0
    1aa8:	25011101 	strcs	r1, [r1, #-257]	; 0xfffffeff
    1aac:	030b130e 	movweq	r1, #45838	; 0xb30e
    1ab0:	110e1b0e 	tstne	lr, lr, lsl #22
    1ab4:	10061201 	andne	r1, r6, r1, lsl #4
    1ab8:	02000017 	andeq	r0, r0, #23
    1abc:	0b0b0024 	bleq	2c1b54 <__bss_end__+0x2b6ffc>
    1ac0:	08030b3e 	stmdaeq	r3, {r1, r2, r3, r4, r5, r8, r9, fp}
    1ac4:	24030000 	strcs	r0, [r3], #-0
    1ac8:	3e0b0b00 	vmlacc.f64	d0, d11, d0
    1acc:	000e030b 	andeq	r0, lr, fp, lsl #6
    1ad0:	000f0400 	andeq	r0, pc, r0, lsl #8
    1ad4:	13490b0b 	movtne	r0, #39691	; 0x9b0b
    1ad8:	26050000 	strcs	r0, [r5], -r0
    1adc:	00134900 	andseq	r4, r3, r0, lsl #18
    1ae0:	012e0600 			; <UNDEFINED> instruction: 0x012e0600
    1ae4:	0e03193f 			; <UNDEFINED> instruction: 0x0e03193f
    1ae8:	0b3b0b3a 	bleq	ec47d8 <__bss_end__+0xeb9c80>
    1aec:	19270b39 	stmdbne	r7!, {r0, r3, r4, r5, r8, r9, fp}
    1af0:	01111349 	tsteq	r1, r9, asr #6
    1af4:	18400612 	stmdane	r0, {r1, r4, r9, sl}^
    1af8:	01194297 			; <UNDEFINED> instruction: 0x01194297
    1afc:	07000013 	smladeq	r0, r3, r0, r0
    1b00:	0e030005 	cdpeq	0, 0, cr0, cr3, cr5, {0}
    1b04:	0b3b0b3a 	bleq	ec47f4 <__bss_end__+0xeb9c9c>
    1b08:	13490b39 	movtne	r0, #39737	; 0x9b39
    1b0c:	00001802 	andeq	r1, r0, r2, lsl #16
    1b10:	03000508 	movweq	r0, #1288	; 0x508
    1b14:	3b0b3a08 	blcc	2d033c <__bss_end__+0x2c57e4>
    1b18:	490b390b 	stmdbmi	fp, {r0, r1, r3, r8, fp, ip, sp}
    1b1c:	b7170213 			; <UNDEFINED> instruction: 0xb7170213
    1b20:	00001742 	andeq	r1, r0, r2, asr #14
    1b24:	03003409 	movweq	r3, #1033	; 0x409
    1b28:	3b0b3a08 	blcc	2d0350 <__bss_end__+0x2c57f8>
    1b2c:	490b390b 	stmdbmi	fp, {r0, r1, r3, r8, fp, ip, sp}
    1b30:	b7170213 			; <UNDEFINED> instruction: 0xb7170213
    1b34:	00001742 	andeq	r1, r0, r2, asr #14
    1b38:	01110100 	tsteq	r1, r0, lsl #2
    1b3c:	0b130e25 	bleq	4c53d8 <__bss_end__+0x4ba880>
    1b40:	0e1b0e03 	cdpeq	14, 1, cr0, cr11, cr3, {0}
    1b44:	01111755 	tsteq	r1, r5, asr r7
    1b48:	00001710 	andeq	r1, r0, r0, lsl r7
    1b4c:	0b002402 	bleq	ab5c <__bss_end__+0x4>
    1b50:	030b3e0b 	movweq	r3, #48651	; 0xbe0b
    1b54:	03000008 	movweq	r0, #8
    1b58:	0e030016 	mcreq	0, 0, r0, cr3, cr6, {0}
    1b5c:	0b3b0b3a 	bleq	ec484c <__bss_end__+0xeb9cf4>
    1b60:	13490b39 	movtne	r0, #39737	; 0x9b39
    1b64:	24040000 	strcs	r0, [r4], #-0
    1b68:	3e0b0b00 	vmlacc.f64	d0, d11, d0
    1b6c:	000e030b 	andeq	r0, lr, fp, lsl #6
    1b70:	00260500 	eoreq	r0, r6, r0, lsl #10
    1b74:	00001349 	andeq	r1, r0, r9, asr #6
    1b78:	0b000f06 	bleq	5798 <__code_start__-0x2868>
    1b7c:	0013490b 	andseq	r4, r3, fp, lsl #18
    1b80:	012e0700 			; <UNDEFINED> instruction: 0x012e0700
    1b84:	0e03193f 			; <UNDEFINED> instruction: 0x0e03193f
    1b88:	0b3b0b3a 	bleq	ec4878 <__bss_end__+0xeb9d20>
    1b8c:	19270b39 	stmdbne	r7!, {r0, r3, r4, r5, r8, r9, fp}
    1b90:	01111349 	tsteq	r1, r9, asr #6
    1b94:	18400612 	stmdane	r0, {r1, r4, r9, sl}^
    1b98:	01194297 			; <UNDEFINED> instruction: 0x01194297
    1b9c:	08000013 	stmdaeq	r0, {r0, r1, r4}
    1ba0:	08030005 	stmdaeq	r3, {r0, r2}
    1ba4:	0b3b0b3a 	bleq	ec4894 <__bss_end__+0xeb9d3c>
    1ba8:	13490b39 	movtne	r0, #39737	; 0x9b39
    1bac:	42b71702 	adcsmi	r1, r7, #524288	; 0x80000
    1bb0:	09000017 	stmdbeq	r0, {r0, r1, r2, r4}
    1bb4:	08030034 	stmdaeq	r3, {r2, r4, r5}
    1bb8:	0b3b0b3a 	bleq	ec48a8 <__bss_end__+0xeb9d50>
    1bbc:	13490b39 	movtne	r0, #39737	; 0x9b39
    1bc0:	42b71702 	adcsmi	r1, r7, #524288	; 0x80000
    1bc4:	00000017 	andeq	r0, r0, r7, lsl r0
    1bc8:	25011101 	strcs	r1, [r1, #-257]	; 0xfffffeff
    1bcc:	030b130e 	movweq	r1, #45838	; 0xb30e
    1bd0:	110e1b0e 	tstne	lr, lr, lsl #22
    1bd4:	10061201 	andne	r1, r6, r1, lsl #4
    1bd8:	02000017 	andeq	r0, r0, #23
    1bdc:	0b0b0024 	bleq	2c1c74 <__bss_end__+0x2b711c>
    1be0:	08030b3e 	stmdaeq	r3, {r1, r2, r3, r4, r5, r8, r9, fp}
    1be4:	24030000 	strcs	r0, [r3], #-0
    1be8:	3e0b0b00 	vmlacc.f64	d0, d11, d0
    1bec:	000e030b 	andeq	r0, lr, fp, lsl #6
    1bf0:	00260400 	eoreq	r0, r6, r0, lsl #8
    1bf4:	00001349 	andeq	r1, r0, r9, asr #6
    1bf8:	03001605 	movweq	r1, #1541	; 0x605
    1bfc:	3b0b3a0e 	blcc	2d043c <__bss_end__+0x2c58e4>
    1c00:	490b390b 	stmdbmi	fp, {r0, r1, r3, r8, fp, ip, sp}
    1c04:	06000013 			; <UNDEFINED> instruction: 0x06000013
    1c08:	0b3e0104 	bleq	f82020 <__bss_end__+0xf774c8>
    1c0c:	13490b0b 	movtne	r0, #39691	; 0x9b0b
    1c10:	0b3b0b3a 	bleq	ec4900 <__bss_end__+0xeb9da8>
    1c14:	13010b39 	movwne	r0, #6969	; 0x1b39
    1c18:	28070000 	stmdacs	r7, {}	; <UNPREDICTABLE>
    1c1c:	1c0e0300 	stcne	3, cr0, [lr], {-0}
    1c20:	0800000b 	stmdaeq	r0, {r0, r1, r3}
    1c24:	0e030034 	mcreq	0, 0, r0, cr3, cr4, {1}
    1c28:	0b3b0b3a 	bleq	ec4918 <__bss_end__+0xeb9dc0>
    1c2c:	13490b39 	movtne	r0, #39737	; 0x9b39
    1c30:	0000061c 	andeq	r0, r0, ip, lsl r6
    1c34:	3f012e09 	svccc	0x00012e09
    1c38:	3a0e0319 	bcc	3828a4 <__bss_end__+0x377d4c>
    1c3c:	390b3b0b 	stmdbcc	fp, {r0, r1, r3, r8, r9, fp, ip, sp}
    1c40:	4919270b 	ldmdbmi	r9, {r0, r1, r3, r8, r9, sl, sp}
    1c44:	12011113 	andne	r1, r1, #-1073741820	; 0xc0000004
    1c48:	97184006 	ldrls	r4, [r8, -r6]
    1c4c:	13011942 	movwne	r1, #6466	; 0x1942
    1c50:	050a0000 	streq	r0, [sl, #-0]
    1c54:	3a080300 	bcc	20285c <__bss_end__+0x1f7d04>
    1c58:	390b3b0b 	stmdbcc	fp, {r0, r1, r3, r8, r9, fp, ip, sp}
    1c5c:	0213490b 	andseq	r4, r3, #180224	; 0x2c000
    1c60:	1742b717 	smlaldne	fp, r2, r7, r7
    1c64:	340b0000 	strcc	r0, [fp], #-0
    1c68:	3a0e0300 	bcc	382870 <__bss_end__+0x377d18>
    1c6c:	390b3b0b 	stmdbcc	fp, {r0, r1, r3, r8, r9, fp, ip, sp}
    1c70:	0213490b 	andseq	r4, r3, #180224	; 0x2c000
    1c74:	1742b717 	smlaldne	fp, r2, r7, r7
    1c78:	340c0000 	strcc	r0, [ip], #-0
    1c7c:	3a080300 	bcc	202884 <__bss_end__+0x1f7d2c>
    1c80:	390b3b0b 	stmdbcc	fp, {r0, r1, r3, r8, r9, fp, ip, sp}
    1c84:	0213490b 	andseq	r4, r3, #180224	; 0x2c000
    1c88:	1742b717 	smlaldne	fp, r2, r7, r7
    1c8c:	890d0000 	stmdbhi	sp, {}	; <UNPREDICTABLE>
    1c90:	11010182 	smlabbne	r1, r2, r1, r0
    1c94:	00133101 	andseq	r3, r3, r1, lsl #2
    1c98:	828a0e00 	addhi	r0, sl, #0, 28
    1c9c:	18020001 	stmdane	r2, {r0}
    1ca0:	00184291 	mulseq	r8, r1, r2
    1ca4:	012e0f00 			; <UNDEFINED> instruction: 0x012e0f00
    1ca8:	0e03193f 			; <UNDEFINED> instruction: 0x0e03193f
    1cac:	0b3b0b3a 	bleq	ec499c <__bss_end__+0xeb9e44>
    1cb0:	19270b39 	stmdbne	r7!, {r0, r3, r4, r5, r8, r9, fp}
    1cb4:	06120111 			; <UNDEFINED> instruction: 0x06120111
    1cb8:	42971840 	addsmi	r1, r7, #64, 16	; 0x400000
    1cbc:	00130119 	andseq	r0, r3, r9, lsl r1
    1cc0:	82891000 	addhi	r1, r9, #0
    1cc4:	01110101 	tsteq	r1, r1, lsl #2
    1cc8:	13011331 	movwne	r1, #4913	; 0x1331
    1ccc:	89110000 	ldmdbhi	r1, {}	; <UNPREDICTABLE>
    1cd0:	11000182 	smlabbne	r0, r2, r1, r0
    1cd4:	00133101 	andseq	r3, r3, r1, lsl #2
    1cd8:	00051200 	andeq	r1, r5, r0, lsl #4
    1cdc:	0b3a0e03 	bleq	e854f0 <__bss_end__+0xe7a998>
    1ce0:	0b390b3b 	bleq	e449d4 <__bss_end__+0xe39e7c>
    1ce4:	17021349 	strne	r1, [r2, -r9, asr #6]
    1ce8:	001742b7 			; <UNDEFINED> instruction: 0x001742b7
    1cec:	012e1300 			; <UNDEFINED> instruction: 0x012e1300
    1cf0:	0b3a0e03 	bleq	e85504 <__bss_end__+0xe7a9ac>
    1cf4:	0b390b3b 	bleq	e449e8 <__bss_end__+0xe39e90>
    1cf8:	13491927 	movtne	r1, #39207	; 0x9927
    1cfc:	13010b20 	movwne	r0, #6944	; 0x1b20
    1d00:	05140000 	ldreq	r0, [r4, #-0]
    1d04:	3a080300 	bcc	20290c <__bss_end__+0x1f7db4>
    1d08:	390b3b0b 	stmdbcc	fp, {r0, r1, r3, r8, r9, fp, ip, sp}
    1d0c:	0013490b 	andseq	r4, r3, fp, lsl #18
    1d10:	002e1500 	eoreq	r1, lr, r0, lsl #10
    1d14:	193c193f 	ldmdbne	ip!, {r0, r1, r2, r3, r4, r5, r8, fp, ip}
    1d18:	0e030e6e 	cdpeq	14, 0, cr0, cr3, cr14, {3}
    1d1c:	0b3b0b3a 	bleq	ec4a0c <__bss_end__+0xeb9eb4>
    1d20:	00000b39 	andeq	r0, r0, r9, lsr fp
	...

Disassembly of section .debug_loc:

00000000 <.debug_loc>:
       0:	02040000 	andeq	r0, r4, #0
       4:	02400000 	subeq	r0, r0, #0
       8:	00010000 	andeq	r0, r1, r0
       c:	00000054 	andeq	r0, r0, r4, asr r0
      10:	00000000 	andeq	r0, r0, r0
      14:	e4010000 	str	r0, [r1], #-0
      18:	e4000001 	str	r0, [r0], #-1
      1c:	01000001 	tsteq	r0, r1
      20:	00005100 	andeq	r5, r0, r0, lsl #2
	...
      30:	00ac0000 	adceq	r0, ip, r0
      34:	00cc0000 	sbceq	r0, ip, r0
      38:	00010000 	andeq	r0, r1, r0
      3c:	0000cc50 	andeq	ip, r0, r0, asr ip
      40:	00010400 	andeq	r0, r1, r0, lsl #8
      44:	54000100 	strpl	r0, [r0], #-256	; 0xffffff00
      48:	00000104 	andeq	r0, r0, r4, lsl #2
      4c:	00000118 	andeq	r0, r0, r8, lsl r1
      50:	18500001 	ldmdane	r0, {r0}^
      54:	d8000001 	stmdale	r0, {r0}
      58:	01000001 	tsteq	r0, r1
      5c:	00005400 	andeq	r5, r0, r0, lsl #8
	...
      68:	00ac0000 	adceq	r0, ip, r0
      6c:	00c00000 	sbceq	r0, r0, r0
      70:	00010000 	andeq	r0, r1, r0
      74:	0000c051 	andeq	ip, r0, r1, asr r0
      78:	0001d800 	andeq	sp, r1, r0, lsl #16
      7c:	55000100 	strpl	r0, [r0, #-256]	; 0xffffff00
	...
      90:	00ac0000 	adceq	r0, ip, r0
      94:	00cc0000 	sbceq	r0, ip, r0
      98:	00010000 	andeq	r0, r1, r0
      9c:	0000cc52 	andeq	ip, r0, r2, asr ip
      a0:	00010400 	andeq	r0, r1, r0, lsl #8
      a4:	f3000400 	vshl.u8	d0, d0, d0
      a8:	049f5201 	ldreq	r5, [pc], #513	; b0 <__code_start__-0x7f50>
      ac:	10000001 	andne	r0, r0, r1
      b0:	01000001 	tsteq	r0, r1
      b4:	01105200 	tsteq	r0, r0, lsl #4
      b8:	011b0000 	tsteq	fp, r0
      bc:	00010000 	andeq	r0, r1, r0
      c0:	00011b53 	andeq	r1, r1, r3, asr fp
      c4:	0001d800 	andeq	sp, r1, r0, lsl #16
      c8:	f3000400 	vshl.u8	d0, d0, d0
      cc:	009f5201 	addseq	r5, pc, r1, lsl #4
	...
      e0:	0000ac00 	andeq	sl, r0, r0, lsl #24
      e4:	0000cc00 	andeq	ip, r0, r0, lsl #24
      e8:	53000100 	movwpl	r0, #256	; 0x100
      ec:	000000cc 	andeq	r0, r0, ip, asr #1
      f0:	00000104 	andeq	r0, r0, r4, lsl #2
      f4:	01f30004 	mvnseq	r0, r4
      f8:	01049f53 	tsteq	r4, r3, asr pc
      fc:	010c0000 	mrseq	r0, (UNDEF: 12)
     100:	00010000 	andeq	r0, r1, r0
     104:	00010c53 	andeq	r0, r1, r3, asr ip
     108:	00011b00 	andeq	r1, r1, r0, lsl #22
     10c:	91000200 	mrsls	r0, R8_usr
     110:	00011b60 	andeq	r1, r1, r0, ror #22
     114:	0001d800 	andeq	sp, r1, r0, lsl #16
     118:	f3000400 	vshl.u8	d0, d0, d0
     11c:	009f5301 	addseq	r5, pc, r1, lsl #6
	...
     138:	00005000 	andeq	r5, r0, r0
     13c:	50000100 	andpl	r0, r0, r0, lsl #2
     140:	00000050 	andeq	r0, r0, r0, asr r0
     144:	00000058 	andeq	r0, r0, r8, asr r0
     148:	01f30004 	mvnseq	r0, r4
     14c:	00589f50 	subseq	r9, r8, r0, asr pc
     150:	006c0000 	rsbeq	r0, ip, r0
     154:	00010000 	andeq	r0, r1, r0
     158:	00006c50 	andeq	r6, r0, r0, asr ip
     15c:	00006f00 	andeq	r6, r0, r0, lsl #30
     160:	91000200 	mrsls	r0, R8_usr
     164:	00006f68 	andeq	r6, r0, r8, ror #30
     168:	00007400 	andeq	r7, r0, r0, lsl #8
     16c:	f3000400 	vshl.u8	d0, d0, d0
     170:	749f5001 	ldrvc	r5, [pc], #1	; 178 <__code_start__-0x7e88>
     174:	8c000000 	stchi	0, cr0, [r0], {-0}
     178:	01000000 	mrseq	r0, (UNDEF: 0)
     17c:	008c5000 	addeq	r5, ip, r0
     180:	00ac0000 	adceq	r0, ip, r0
     184:	00040000 	andeq	r0, r4, r0
     188:	9f5001f3 	svcls	0x005001f3
	...
     194:	00000003 	andeq	r0, r0, r3
	...
     1a0:	00000010 	andeq	r0, r0, r0, lsl r0
     1a4:	00000038 	andeq	r0, r0, r8, lsr r0
     1a8:	58500001 	ldmdapl	r0, {r0}^
     1ac:	6c000000 	stcvs	0, cr0, [r0], {-0}
     1b0:	01000000 	mrseq	r0, (UNDEF: 0)
     1b4:	006c5000 	rsbeq	r5, ip, r0
     1b8:	006f0000 	rsbeq	r0, pc, r0
     1bc:	00020000 	andeq	r0, r2, r0
     1c0:	006f6891 	mlseq	pc, r1, r8, r6	; <UNPREDICTABLE>
     1c4:	00740000 	rsbseq	r0, r4, r0
     1c8:	00040000 	andeq	r0, r4, r0
     1cc:	9f5001f3 	svcls	0x005001f3
     1d0:	00000074 	andeq	r0, r0, r4, ror r0
     1d4:	0000008c 	andeq	r0, r0, ip, lsl #1
     1d8:	8c500001 	mrrchi	0, 0, r0, r0, cr1	; <UNPREDICTABLE>
     1dc:	ac000000 	stcge	0, cr0, [r0], {-0}
     1e0:	04000000 	streq	r0, [r0], #-0
     1e4:	5001f300 	andpl	pc, r1, r0, lsl #6
     1e8:	0000009f 	muleq	r0, pc, r0	; <UNPREDICTABLE>
     1ec:	00000000 	andeq	r0, r0, r0
     1f0:	10150400 	andsne	r0, r5, r0, lsl #8
     1f4:	10000000 	andne	r0, r0, r0
     1f8:	02000000 	andeq	r0, r0, #0
     1fc:	009f3400 	addseq	r3, pc, r0, lsl #8
     200:	00000000 	andeq	r0, r0, r0
     204:	04000000 	streq	r0, [r0], #-0
     208:	00001015 	andeq	r1, r0, r5, lsl r0
     20c:	00001000 	andeq	r1, r0, r0
     210:	30000200 	andcc	r0, r0, r0, lsl #4
     214:	0000009f 	muleq	r0, pc, r0	; <UNPREDICTABLE>
     218:	00000000 	andeq	r0, r0, r0
     21c:	10150400 	andsne	r0, r5, r0, lsl #8
     220:	10000000 	andne	r0, r0, r0
     224:	01000000 	mrseq	r0, (UNDEF: 0)
     228:	00005000 	andeq	r5, r0, r0
     22c:	00000000 	andeq	r0, r0, r0
     230:	00020000 	andeq	r0, r2, r0
     234:	00000018 	andeq	r0, r0, r8, lsl r0
     238:	00000024 	andeq	r0, r0, r4, lsr #32
     23c:	00500001 	subseq	r0, r0, r1
     240:	00000000 	andeq	r0, r0, r0
     244:	03000000 	movweq	r0, #0
     248:	1c000000 	stcne	0, cr0, [r0], {-0}
     24c:	38000000 	stmdacc	r0, {}	; <UNPREDICTABLE>
     250:	02000000 	andeq	r0, r0, #0
     254:	749f3000 	ldrvc	r3, [pc], #0	; 25c <__code_start__-0x7da4>
     258:	ac000000 	stcge	0, cr0, [r0], {-0}
     25c:	02000000 	andeq	r0, r0, #0
     260:	009f3000 	addseq	r3, pc, r0
     264:	00000000 	andeq	r0, r0, r0
     268:	07000000 	streq	r0, [r0, -r0]
     26c:	24010000 	strcs	r0, [r1], #-0
     270:	28000000 	stmdacs	r0, {}	; <UNPREDICTABLE>
     274:	02000000 	andeq	r0, r0, #0
     278:	289f3000 	ldmcs	pc, {ip, sp}	; <UNPREDICTABLE>
     27c:	28000000 	stmdacs	r0, {}	; <UNPREDICTABLE>
     280:	01000000 	mrseq	r0, (UNDEF: 0)
     284:	00005300 	andeq	r5, r0, r0, lsl #6
	...
     290:	00100000 	andseq	r0, r0, r0
     294:	002b0000 	eoreq	r0, fp, r0
     298:	00010000 	andeq	r0, r1, r0
     29c:	00005c52 	andeq	r5, r0, r2, asr ip
     2a0:	00006c00 	andeq	r6, r0, r0, lsl #24
     2a4:	52000100 	andpl	r0, r0, #0, 2
	...
     2b4:	00140000 	andseq	r0, r4, r0
     2b8:	00500000 	subseq	r0, r0, r0
     2bc:	00010000 	andeq	r0, r1, r0
     2c0:	00005054 	andeq	r5, r0, r4, asr r0
     2c4:	00005c00 	andeq	r5, r0, r0, lsl #24
     2c8:	74000300 	strvc	r0, [r0], #-768	; 0xfffffd00
     2cc:	005c9f7c 	subseq	r9, ip, ip, ror pc
     2d0:	00bc0000 	adcseq	r0, ip, r0
     2d4:	00010000 	andeq	r0, r1, r0
     2d8:	00000054 	andeq	r0, r0, r4, asr r0
	...
     2e4:	00002400 	andeq	r2, r0, r0, lsl #8
     2e8:	00005c00 	andeq	r5, r0, r0, lsl #24
     2ec:	56000100 	strpl	r0, [r0], -r0, lsl #2
     2f0:	0000007c 	andeq	r0, r0, ip, ror r0
     2f4:	000000bc 	strheq	r0, [r0], -ip
     2f8:	00560001 	subseq	r0, r6, r1
	...
     308:	00003800 	andeq	r3, r0, r0, lsl #16
     30c:	00004700 	andeq	r4, r0, r0, lsl #14
     310:	50000100 	andpl	r0, r0, r0, lsl #2
     314:	00000047 	andeq	r0, r0, r7, asr #32
     318:	00000058 	andeq	r0, r0, r8, asr r0
     31c:	58540001 	ldmdapl	r4, {r0}^
     320:	64000000 	strvs	r0, [r0], #-0
     324:	04000000 	streq	r0, [r0], #-0
     328:	5001f300 	andpl	pc, r1, r0, lsl #6
     32c:	0000009f 	muleq	r0, pc, r0	; <UNPREDICTABLE>
	...
     338:	00003800 	andeq	r3, r0, r0, lsl #16
     33c:	00004700 	andeq	r4, r0, r0, lsl #14
     340:	51000100 	mrspl	r0, (UNDEF: 16)
     344:	00000047 	andeq	r0, r0, r7, asr #32
     348:	00000064 	andeq	r0, r0, r4, rrx
     34c:	00550001 	subseq	r0, r5, r1
	...
     358:	58000000 	stmdapl	r0, {}	; <UNPREDICTABLE>
     35c:	5b000000 	blpl	364 <__code_start__-0x7c9c>
     360:	01000000 	mrseq	r0, (UNDEF: 0)
     364:	005b5000 	subseq	r5, fp, r0
     368:	00640000 	rsbeq	r0, r4, r0
     36c:	00010000 	andeq	r0, r1, r0
     370:	00000054 	andeq	r0, r0, r4, asr r0
	...
     380:	10000000 	andne	r0, r0, r0
     384:	01000000 	mrseq	r0, (UNDEF: 0)
     388:	00105000 	andseq	r5, r0, r0
     38c:	00130000 	andseq	r0, r3, r0
     390:	00010000 	andeq	r0, r1, r0
     394:	00001351 	andeq	r1, r0, r1, asr r3
     398:	00003800 	andeq	r3, r0, r0, lsl #16
     39c:	54000100 	strpl	r0, [r0], #-256	; 0xffffff00
	...
     3b0:	013c0000 	teqeq	ip, r0
     3b4:	01500000 	cmpeq	r0, r0
     3b8:	00010000 	andeq	r0, r1, r0
     3bc:	00015050 	andeq	r5, r1, r0, asr r0
     3c0:	00016000 	andeq	r6, r1, r0
     3c4:	5c000100 	stfpls	f0, [r0], {-0}
     3c8:	00000160 	andeq	r0, r0, r0, ror #2
     3cc:	00000168 	andeq	r0, r0, r8, ror #2
     3d0:	01f30004 	mvnseq	r0, r4
     3d4:	01689f50 	cmneq	r8, r0, asr pc
     3d8:	01770000 	cmneq	r7, r0
     3dc:	00010000 	andeq	r0, r1, r0
     3e0:	0001775c 	andeq	r7, r1, ip, asr r7
     3e4:	0001ec00 	andeq	lr, r1, r0, lsl #24
     3e8:	f3000400 	vshl.u8	d0, d0, d0
     3ec:	009f5001 	addseq	r5, pc, r1
	...
     3f8:	50000000 	andpl	r0, r0, r0
     3fc:	70000000 	andvc	r0, r0, r0
     400:	01000000 	mrseq	r0, (UNDEF: 0)
     404:	00705000 	rsbseq	r5, r0, r0
     408:	013c0000 	teqeq	ip, r0
     40c:	00010000 	andeq	r0, r1, r0
     410:	00000055 	andeq	r0, r0, r5, asr r0
	...
     41c:	00005000 	andeq	r5, r0, r0
     420:	00006c00 	andeq	r6, r0, r0, lsl #24
     424:	51000100 	mrspl	r0, (UNDEF: 16)
     428:	0000006c 	andeq	r0, r0, ip, rrx
     42c:	0000013c 	andeq	r0, r0, ip, lsr r1
     430:	00560001 	subseq	r0, r6, r1
	...
     43c:	50000000 	andpl	r0, r0, r0
     440:	78000000 	stmdavc	r0, {}	; <UNPREDICTABLE>
     444:	01000000 	mrseq	r0, (UNDEF: 0)
     448:	00785200 	rsbseq	r5, r8, r0, lsl #4
     44c:	013c0000 	teqeq	ip, r0
     450:	00010000 	andeq	r0, r1, r0
     454:	00000054 	andeq	r0, r0, r4, asr r0
     458:	00000000 	andeq	r0, r0, r0
     45c:	00060400 	andeq	r0, r6, r0, lsl #8
     460:	00008000 	andeq	r8, r0, r0
     464:	0000ac00 	andeq	sl, r0, r0, lsl #24
     468:	43000200 	movwmi	r0, #512	; 0x200
     46c:	0000d49f 	muleq	r0, pc, r4	; <UNPREDICTABLE>
     470:	0000f000 	andeq	pc, r0, r0
     474:	43000200 	movwmi	r0, #512	; 0x200
     478:	0000009f 	muleq	r0, pc, r0	; <UNPREDICTABLE>
     47c:	00000000 	andeq	r0, r0, r0
     480:	84010000 	strhi	r0, [r1], #-0
     484:	84000000 	strhi	r0, [r0], #-0
     488:	01000000 	mrseq	r0, (UNDEF: 0)
     48c:	00005300 	andeq	r5, r0, r0, lsl #6
     490:	00000000 	andeq	r0, r0, r0
     494:	00010000 	andeq	r0, r1, r0
     498:	00000084 	andeq	r0, r0, r4, lsl #1
     49c:	00000088 	andeq	r0, r0, r8, lsl #1
     4a0:	00530001 	subseq	r0, r3, r1
	...
     4ac:	00000006 	andeq	r0, r0, r6
     4b0:	00008800 	andeq	r8, r0, r0, lsl #16
     4b4:	0000ac00 	andeq	sl, r0, r0, lsl #24
     4b8:	53000100 	movwpl	r0, #256	; 0x100
     4bc:	000000d4 	ldrdeq	r0, [r0], -r4
     4c0:	000000dc 	ldrdeq	r0, [r0], -ip
     4c4:	dc530001 	mrrcle	0, 0, r0, r3, cr1
     4c8:	eb000000 	bl	4d0 <__code_start__-0x7b30>
     4cc:	02000000 	andeq	r0, r0, #0
     4d0:	00589100 	subseq	r9, r8, r0, lsl #2
     4d4:	00000000 	andeq	r0, r0, r0
     4d8:	04000000 	streq	r0, [r0], #-0
     4dc:	00008400 	andeq	r8, r0, r0, lsl #8
     4e0:	00008800 	andeq	r8, r0, r0, lsl #16
     4e4:	34000200 	strcc	r0, [r0], #-512	; 0xfffffe00
     4e8:	0000009f 	muleq	r0, pc, r0	; <UNPREDICTABLE>
     4ec:	00000000 	andeq	r0, r0, r0
     4f0:	84000400 	strhi	r0, [r0], #-1024	; 0xfffffc00
     4f4:	88000000 	stmdahi	r0, {}	; <UNPREDICTABLE>
     4f8:	02000000 	andeq	r0, r0, #0
     4fc:	009f3000 	addseq	r3, pc, r0
     500:	00000000 	andeq	r0, r0, r0
     504:	04000000 	streq	r0, [r0], #-0
     508:	00008400 	andeq	r8, r0, r0, lsl #8
     50c:	00008800 	andeq	r8, r0, r0, lsl #16
     510:	53000100 	movwpl	r0, #256	; 0x100
	...
     51c:	00000203 	andeq	r0, r0, r3, lsl #4
     520:	00880000 	addeq	r0, r8, r0
     524:	00ac0000 	adceq	r0, ip, r0
     528:	00010000 	andeq	r0, r1, r0
     52c:	0000d453 	andeq	sp, r0, r3, asr r4
     530:	0000dc00 	andeq	sp, r0, r0, lsl #24
     534:	53000100 	movwpl	r0, #256	; 0x100
     538:	000000dc 	ldrdeq	r0, [r0], -ip
     53c:	000000eb 	andeq	r0, r0, fp, ror #1
     540:	58910002 	ldmpl	r1, {r1}
	...
     550:	00000028 	andeq	r0, r0, r8, lsr #32
     554:	0000003c 	andeq	r0, r0, ip, lsr r0
     558:	3c500001 	mrrccc	0, 0, r0, r0, cr1	; <UNPREDICTABLE>
     55c:	50000000 	andpl	r0, r0, r0
     560:	04000000 	streq	r0, [r0], #-0
     564:	5001f300 	andpl	pc, r1, r0, lsl #6
     568:	0000009f 	muleq	r0, pc, r0	; <UNPREDICTABLE>
	...
     574:	00002800 	andeq	r2, r0, r0, lsl #16
     578:	00003800 	andeq	r3, r0, r0, lsl #16
     57c:	51000100 	mrspl	r0, (UNDEF: 16)
     580:	00000038 	andeq	r0, r0, r8, lsr r0
     584:	00000050 	andeq	r0, r0, r0, asr r0
     588:	01f30004 	mvnseq	r0, r4
     58c:	00009f51 	andeq	r9, r0, r1, asr pc
	...
     598:	00280000 	eoreq	r0, r8, r0
     59c:	00340000 	eorseq	r0, r4, r0
     5a0:	00010000 	andeq	r0, r1, r0
     5a4:	00003452 	andeq	r3, r0, r2, asr r4
     5a8:	00005000 	andeq	r5, r0, r0
     5ac:	f3000400 	vshl.u8	d0, d0, d0
     5b0:	009f5201 	addseq	r5, pc, r1, lsl #4
	...
     5c0:	14000000 	strne	r0, [r0], #-0
     5c4:	01000000 	mrseq	r0, (UNDEF: 0)
     5c8:	00145000 	andseq	r5, r4, r0
     5cc:	00280000 	eoreq	r0, r8, r0
     5d0:	00040000 	andeq	r0, r4, r0
     5d4:	9f5001f3 	svcls	0x005001f3
	...
     5e4:	000005fc 	strdeq	r0, [r0], -ip
     5e8:	00000603 	andeq	r0, r0, r3, lsl #12
     5ec:	03500001 	cmpeq	r0, #1
     5f0:	08000006 	stmdaeq	r0, {r1, r2}
     5f4:	04000006 	streq	r0, [r0], #-6
     5f8:	5001f300 	andpl	pc, r1, r0, lsl #6
     5fc:	0000009f 	muleq	r0, pc, r0	; <UNPREDICTABLE>
	...
     608:	0005dc00 	andeq	sp, r5, r0, lsl #24
     60c:	0005e300 	andeq	lr, r5, r0, lsl #6
     610:	50000100 	andpl	r0, r0, r0, lsl #2
     614:	000005e3 	andeq	r0, r0, r3, ror #11
     618:	000005e8 	andeq	r0, r0, r8, ror #11
     61c:	01f30004 	mvnseq	r0, r4
     620:	00009f50 	andeq	r9, r0, r0, asr pc
	...
     62c:	05bc0000 	ldreq	r0, [ip, #0]!
     630:	05cb0000 	strbeq	r0, [fp]
     634:	00010000 	andeq	r0, r1, r0
     638:	0005cb50 	andeq	ip, r5, r0, asr fp
     63c:	0005dc00 	andeq	sp, r5, r0, lsl #24
     640:	f3000400 	vshl.u8	d0, d0, d0
     644:	009f5001 	addseq	r5, pc, r1
	...
     650:	bc000000 	stclt	0, cr0, [r0], {-0}
     654:	c8000005 	stmdagt	r0, {r0, r2}
     658:	01000005 	tsteq	r0, r5
     65c:	05c85100 	strbeq	r5, [r8, #256]	; 0x100
     660:	05dc0000 	ldrbeq	r0, [ip]
     664:	00010000 	andeq	r0, r1, r0
     668:	00000054 	andeq	r0, r0, r4, asr r0
	...
     674:	0005ac00 	andeq	sl, r5, r0, lsl #24
     678:	0005b700 	andeq	fp, r5, r0, lsl #14
     67c:	50000100 	andpl	r0, r0, r0, lsl #2
     680:	000005b7 			; <UNDEFINED> instruction: 0x000005b7
     684:	000005bc 			; <UNDEFINED> instruction: 0x000005bc
     688:	01f30004 	mvnseq	r0, r4
     68c:	00009f50 	andeq	r9, r0, r0, asr pc
	...
     6a4:	000004ac 	andeq	r0, r0, ip, lsr #9
     6a8:	000004f4 	strdeq	r0, [r0], -r4
     6ac:	f4500001 			; <UNDEFINED> instruction: 0xf4500001
     6b0:	f7000004 			; <UNDEFINED> instruction: 0xf7000004
     6b4:	01000004 	tsteq	r0, r4
     6b8:	04f75100 	ldrbteq	r5, [r7], #256	; 0x100
     6bc:	05000000 	streq	r0, [r0, #-0]
     6c0:	00040000 	andeq	r0, r4, r0
     6c4:	9f5001f3 	svcls	0x005001f3
     6c8:	00000500 	andeq	r0, r0, r0, lsl #10
     6cc:	00000544 	andeq	r0, r0, r4, asr #10
     6d0:	44500001 	ldrbmi	r0, [r0], #-1
     6d4:	4c000005 	stcmi	0, cr0, [r0], {5}
     6d8:	04000005 	streq	r0, [r0], #-5
     6dc:	5001f300 	andpl	pc, r1, r0, lsl #6
     6e0:	00054c9f 	muleq	r5, pc, ip	; <UNPREDICTABLE>
     6e4:	00056400 	andeq	r6, r5, r0, lsl #8
     6e8:	50000100 	andpl	r0, r0, r0, lsl #2
     6ec:	00000564 	andeq	r0, r0, r4, ror #10
     6f0:	00000584 	andeq	r0, r0, r4, lsl #11
     6f4:	01f30004 	mvnseq	r0, r4
     6f8:	00009f50 	andeq	r9, r0, r0, asr pc
     6fc:	00000000 	andeq	r0, r0, r0
     700:	01000000 	mrseq	r0, (UNDEF: 0)
     704:	000004bc 			; <UNDEFINED> instruction: 0x000004bc
     708:	000004bc 			; <UNDEFINED> instruction: 0x000004bc
     70c:	00530001 	subseq	r0, r3, r1
     710:	00000000 	andeq	r0, r0, r0
     714:	01000000 	mrseq	r0, (UNDEF: 0)
     718:	bc000000 	stclt	0, cr0, [r0], {-0}
     71c:	c8000004 	stmdagt	r0, {r2}
     720:	01000004 	tsteq	r0, r4
     724:	05005300 	streq	r5, [r0, #-768]	; 0xfffffd00
     728:	05040000 	streq	r0, [r4, #-0]
     72c:	00010000 	andeq	r0, r1, r0
     730:	00000053 	andeq	r0, r0, r3, asr r0
     734:	00000000 	andeq	r0, r0, r0
     738:	bc0a0400 	cfstrslt	mvf0, [sl], {-0}
     73c:	bc000004 	stclt	0, cr0, [r0], {4}
     740:	02000004 	andeq	r0, r0, #4
     744:	009f3a00 	addseq	r3, pc, r0, lsl #20
     748:	00000000 	andeq	r0, r0, r0
     74c:	04000000 	streq	r0, [r0], #-0
     750:	0004bc0a 	andeq	fp, r4, sl, lsl #24
     754:	0004bc00 	andeq	fp, r4, r0, lsl #24
     758:	53000100 	movwpl	r0, #256	; 0x100
	...
     764:	05000000 	streq	r0, [r0, #-0]
     768:	05040000 	streq	r0, [r4, #-0]
     76c:	00020000 	andeq	r0, r2, r0
     770:	00009f34 	andeq	r9, r0, r4, lsr pc
	...
     77c:	00000500 	andeq	r0, r0, r0, lsl #10
     780:	00000504 	andeq	r0, r0, r4, lsl #10
     784:	9f300002 	svcls	0x00300002
	...
     790:	05000000 	streq	r0, [r0, #-0]
     794:	05040000 	streq	r0, [r4, #-0]
     798:	00010000 	andeq	r0, r1, r0
     79c:	00000053 	andeq	r0, r0, r3, asr r0
     7a0:	00000000 	andeq	r0, r0, r0
     7a4:	00000400 	andeq	r0, r0, r0, lsl #8
     7a8:	00051801 	andeq	r1, r5, r1, lsl #16
     7ac:	00051c00 	andeq	r1, r5, r0, lsl #24
     7b0:	30000200 	andcc	r0, r0, r0, lsl #4
     7b4:	00051c9f 	muleq	r5, pc, ip	; <UNPREDICTABLE>
     7b8:	00051c00 	andeq	r1, r5, r0, lsl #24
     7bc:	53000100 	movwpl	r0, #256	; 0x100
	...
     7c8:	051c0001 	ldreq	r0, [ip, #-1]
     7cc:	05240000 	streq	r0, [r4, #-0]!
     7d0:	00020000 	andeq	r0, r2, r0
     7d4:	00009f34 	andeq	r9, r0, r4, lsr pc
     7d8:	00000000 	andeq	r0, r0, r0
     7dc:	00010000 	andeq	r0, r1, r0
     7e0:	0000051c 	andeq	r0, r0, ip, lsl r5
     7e4:	00000524 	andeq	r0, r0, r4, lsr #10
     7e8:	9f320002 	svcls	0x00320002
	...
     7f4:	051c0001 	ldreq	r0, [ip, #-1]
     7f8:	05200000 	streq	r0, [r0, #-0]!
     7fc:	00010000 	andeq	r0, r1, r0
     800:	00000053 	andeq	r0, r0, r3, asr r0
     804:	00000000 	andeq	r0, r0, r0
     808:	f0010000 			; <UNDEFINED> instruction: 0xf0010000
     80c:	f0000004 			; <UNDEFINED> instruction: 0xf0000004
     810:	01000004 	tsteq	r0, r4
     814:	00005200 	andeq	r5, r0, r0, lsl #4
	...
     820:	048c0000 	streq	r0, [ip], #0
     824:	049b0000 	ldreq	r0, [fp], #0
     828:	00010000 	andeq	r0, r1, r0
     82c:	00049b50 	andeq	r9, r4, r0, asr fp
     830:	0004ac00 	andeq	sl, r4, r0, lsl #24
     834:	f3000400 	vshl.u8	d0, d0, d0
     838:	009f5001 	addseq	r5, pc, r1
	...
     844:	8c000000 	stchi	0, cr0, [r0], {-0}
     848:	98000004 	stmdals	r0, {r2}
     84c:	01000004 	tsteq	r0, r4
     850:	04985100 	ldreq	r5, [r8], #256	; 0x100
     854:	04ac0000 	strteq	r0, [ip], #0
     858:	00010000 	andeq	r0, r1, r0
     85c:	00000054 	andeq	r0, r0, r4, asr r0
	...
     870:	00006400 	andeq	r6, r0, r0, lsl #8
     874:	50000100 	andpl	r0, r0, r0, lsl #2
     878:	00000064 	andeq	r0, r0, r4, rrx
     87c:	0000006c 	andeq	r0, r0, ip, rrx
     880:	01f30004 	mvnseq	r0, r4
     884:	006c9f50 	rsbeq	r9, ip, r0, asr pc
     888:	008c0000 	addeq	r0, ip, r0
     88c:	00010000 	andeq	r0, r1, r0
     890:	00008c50 	andeq	r8, r0, r0, asr ip
     894:	0000b000 	andeq	fp, r0, r0
     898:	f3000400 	vshl.u8	d0, d0, d0
     89c:	009f5001 	addseq	r5, pc, r1
	...
     8b0:	60000000 	andvs	r0, r0, r0
     8b4:	01000000 	mrseq	r0, (UNDEF: 0)
     8b8:	00605100 	rsbeq	r5, r0, r0, lsl #2
     8bc:	006c0000 	rsbeq	r0, ip, r0
     8c0:	00040000 	andeq	r0, r4, r0
     8c4:	9f5101f3 	svcls	0x005101f3
     8c8:	0000006c 	andeq	r0, r0, ip, rrx
     8cc:	00000088 	andeq	r0, r0, r8, lsl #1
     8d0:	88510001 	ldmdahi	r1, {r0}^
     8d4:	b0000000 	andlt	r0, r0, r0
     8d8:	04000000 	streq	r0, [r0], #-0
     8dc:	5101f300 	mrspl	pc, SP_irq	; <UNPREDICTABLE>
     8e0:	0000009f 	muleq	r0, pc, r0	; <UNPREDICTABLE>
     8e4:	00000000 	andeq	r0, r0, r0
     8e8:	00000100 	andeq	r0, r0, r0, lsl #2
     8ec:	00002c00 	andeq	r2, r0, r0, lsl #24
     8f0:	00004c00 	andeq	r4, r0, r0, lsl #24
     8f4:	53000100 	movwpl	r0, #256	; 0x100
     8f8:	00000074 	andeq	r0, r0, r4, ror r0
     8fc:	00000078 	andeq	r0, r0, r8, ror r0
     900:	00530001 	subseq	r0, r3, r1
     904:	00000000 	andeq	r0, r0, r0
     908:	01000000 	mrseq	r0, (UNDEF: 0)
     90c:	00000800 	andeq	r0, r0, r0, lsl #16
     910:	00001400 	andeq	r1, r0, r0, lsl #8
     914:	50000100 	andpl	r0, r0, r0, lsl #2
	...
     920:	01000005 	tsteq	r0, r5
     924:	00000014 	andeq	r0, r0, r4, lsl r0
     928:	00000018 	andeq	r0, r0, r8, lsl r0
     92c:	9f300002 	svcls	0x00300002
     930:	00000018 	andeq	r0, r0, r8, lsl r0
     934:	00000018 	andeq	r0, r0, r8, lsl r0
     938:	00530001 	subseq	r0, r3, r1
     93c:	00000000 	andeq	r0, r0, r0
     940:	03000000 	movweq	r0, #0
     944:	20000001 	andcs	r0, r0, r1
     948:	2c000000 	stccs	0, cr0, [r0], {-0}
     94c:	01000000 	mrseq	r0, (UNDEF: 0)
     950:	006c5100 	rsbeq	r5, ip, r0, lsl #2
     954:	00740000 	rsbseq	r0, r4, r0
     958:	00010000 	andeq	r0, r1, r0
     95c:	00000051 	andeq	r0, r0, r1, asr r0
     960:	00000000 	andeq	r0, r0, r0
     964:	06060500 	streq	r0, [r6], -r0, lsl #10
     968:	00000707 	andeq	r0, r0, r7, lsl #14
     96c:	20000001 	andcs	r0, r0, r1
     970:	20000000 	andcs	r0, r0, r0
     974:	02000000 	andeq	r0, r0, #0
     978:	209f3600 	addscs	r3, pc, r0, lsl #12
     97c:	20000000 	andcs	r0, r0, r0
     980:	02000000 	andeq	r0, r0, #0
     984:	209f3700 	addscs	r3, pc, r0, lsl #14
     988:	2c000000 	stccs	0, cr0, [r0], {-0}
     98c:	04000000 	streq	r0, [r0], #-0
     990:	01e70a00 	mvneq	r0, r0, lsl #20
     994:	00002c9f 	muleq	r0, pc, ip	; <UNPREDICTABLE>
     998:	00002c00 	andeq	r2, r0, r0, lsl #24
     99c:	53000100 	movwpl	r0, #256	; 0x100
     9a0:	0000006c 	andeq	r0, r0, ip, rrx
     9a4:	00000074 	andeq	r0, r0, r4, ror r0
     9a8:	e70a0004 	str	r0, [sl, -r4]
     9ac:	00009f01 	andeq	r9, r0, r1, lsl #30
     9b0:	00000000 	andeq	r0, r0, r0
     9b4:	00030000 	andeq	r0, r3, r0
     9b8:	0000002c 	andeq	r0, r0, ip, lsr #32
     9bc:	00000038 	andeq	r0, r0, r8, lsr r0
     9c0:	00530001 	subseq	r0, r3, r1
     9c4:	00000000 	andeq	r0, r0, r0
     9c8:	03000000 	movweq	r0, #0
     9cc:	30000000 	andcc	r0, r0, r0
     9d0:	4c000000 	stcmi	0, cr0, [r0], {-0}
     9d4:	02000000 	andeq	r0, r0, #0
     9d8:	749f3000 	ldrvc	r3, [pc], #0	; 9e0 <__code_start__-0x7620>
     9dc:	b0000000 	andlt	r0, r0, r0
     9e0:	02000000 	andeq	r0, r0, #0
     9e4:	009f3000 	addseq	r3, pc, r0
     9e8:	00000000 	andeq	r0, r0, r0
     9ec:	05000000 	streq	r0, [r0, #-0]
     9f0:	38010000 	stmdacc	r1, {}	; <UNPREDICTABLE>
     9f4:	3c000000 	stccc	0, cr0, [r0], {-0}
     9f8:	02000000 	andeq	r0, r0, #0
     9fc:	3c9f3000 	ldccc	0, cr3, [pc], {0}
     a00:	3c000000 	stccc	0, cr0, [r0], {-0}
     a04:	01000000 	mrseq	r0, (UNDEF: 0)
     a08:	00005200 	andeq	r5, r0, r0, lsl #4
     a0c:	00000000 	andeq	r0, r0, r0
     a10:	00040000 	andeq	r0, r4, r0
     a14:	00b00100 	adcseq	r0, r0, r0, lsl #2
     a18:	00b40000 	adcseq	r0, r4, r0
     a1c:	00020000 	andeq	r0, r2, r0
     a20:	00b49f30 	adcseq	r9, r4, r0, lsr pc
     a24:	00b40000 	adcseq	r0, r4, r0
     a28:	00010000 	andeq	r0, r1, r0
     a2c:	00000053 	andeq	r0, r0, r3, asr r0
     a30:	00000000 	andeq	r0, r0, r0
     a34:	b4000100 	strlt	r0, [r0], #-256	; 0xffffff00
     a38:	b8000000 	stmdalt	r0, {}	; <UNPREDICTABLE>
     a3c:	02000000 	andeq	r0, r0, #0
     a40:	009f3000 	addseq	r3, pc, r0
     a44:	00000000 	andeq	r0, r0, r0
     a48:	01000000 	mrseq	r0, (UNDEF: 0)
     a4c:	0000b400 	andeq	fp, r0, r0, lsl #8
     a50:	0000b800 	andeq	fp, r0, r0, lsl #16
     a54:	53000100 	movwpl	r0, #256	; 0x100
	...
     a60:	00b80000 	adcseq	r0, r8, r0
     a64:	00c00000 	sbceq	r0, r0, r0
     a68:	00010000 	andeq	r0, r1, r0
     a6c:	00000053 	andeq	r0, r0, r3, asr r0
     a70:	00000000 	andeq	r0, r0, r0
     a74:	00000400 	andeq	r0, r0, r0, lsl #8
     a78:	0000c801 	andeq	ip, r0, r1, lsl #16
     a7c:	0000cc00 	andeq	ip, r0, r0, lsl #24
     a80:	30000200 	andcc	r0, r0, r0, lsl #4
     a84:	0000cc9f 	muleq	r0, pc, ip	; <UNPREDICTABLE>
     a88:	0000cc00 	andeq	ip, r0, r0, lsl #24
     a8c:	53000100 	movwpl	r0, #256	; 0x100
	...
     a98:	00cc0801 	sbceq	r0, ip, r1, lsl #16
     a9c:	00cc0000 	sbceq	r0, ip, r0
     aa0:	00020000 	andeq	r0, r2, r0
     aa4:	00009f30 	andeq	r9, r0, r0, lsr pc
     aa8:	00000000 	andeq	r0, r0, r0
     aac:	08010000 	stmdaeq	r1, {}	; <UNPREDICTABLE>
     ab0:	000000cc 	andeq	r0, r0, ip, asr #1
     ab4:	000000cc 	andeq	r0, r0, ip, asr #1
     ab8:	00530001 	subseq	r0, r3, r1
     abc:	00000000 	andeq	r0, r0, r0
     ac0:	01000000 	mrseq	r0, (UNDEF: 0)
     ac4:	00000100 	andeq	r0, r0, r0, lsl #2
	...
     ad0:	60000000 	andvs	r0, r0, r0
     ad4:	84000003 	strhi	r0, [r0], #-3
     ad8:	01000003 	tsteq	r0, r3
     adc:	038c5300 	orreq	r5, ip, #0, 6
     ae0:	03a00000 	moveq	r0, #0
     ae4:	00010000 	andeq	r0, r1, r0
     ae8:	0003ac53 	andeq	sl, r3, r3, asr ip
     aec:	0003b000 	andeq	fp, r3, r0
     af0:	53000100 	movwpl	r0, #256	; 0x100
     af4:	000003cc 	andeq	r0, r0, ip, asr #7
     af8:	000003d0 	ldrdeq	r0, [r0], -r0	; <UNPREDICTABLE>
     afc:	ec530001 	mrrc	0, 0, r0, r3, cr1
     b00:	f0000003 			; <UNDEFINED> instruction: 0xf0000003
     b04:	01000003 	tsteq	r0, r3
     b08:	040c5300 	streq	r5, [ip], #-768	; 0xfffffd00
     b0c:	04100000 	ldreq	r0, [r0], #-0
     b10:	00010000 	andeq	r0, r1, r0
     b14:	00042c53 	andeq	r2, r4, r3, asr ip
     b18:	00043000 	andeq	r3, r4, r0
     b1c:	53000100 	movwpl	r0, #256	; 0x100
     b20:	0000044c 	andeq	r0, r0, ip, asr #8
     b24:	00000450 	andeq	r0, r0, r0, asr r4
     b28:	00530001 	subseq	r0, r3, r1
	...
     b34:	00036001 	andeq	r6, r3, r1
     b38:	00036000 	andeq	r6, r3, r0
     b3c:	53000100 	movwpl	r0, #256	; 0x100
	...
     b48:	03600a04 	cmneq	r0, #4, 20	; 0x4000
     b4c:	03600000 	cmneq	r0, #0
     b50:	00020000 	andeq	r0, r2, r0
     b54:	00009f3e 	andeq	r9, r0, lr, lsr pc
     b58:	00000000 	andeq	r0, r0, r0
     b5c:	0a040000 	beq	100b64 <__bss_end__+0xf600c>
     b60:	00000360 	andeq	r0, r0, r0, ror #6
     b64:	00000360 	andeq	r0, r0, r0, ror #6
     b68:	00530001 	subseq	r0, r3, r1
     b6c:	00000000 	andeq	r0, r0, r0
     b70:	04000000 	streq	r0, [r0], #-0
     b74:	0003680a 	andeq	r6, r3, sl, lsl #16
     b78:	00036800 	andeq	r6, r3, r0, lsl #16
     b7c:	3f000200 	svccc	0x00000200
     b80:	0000009f 	muleq	r0, pc, r0	; <UNPREDICTABLE>
     b84:	00000000 	andeq	r0, r0, r0
     b88:	680a0400 	stmdavs	sl, {sl}
     b8c:	68000003 	stmdavs	r0, {r0, r1}
     b90:	01000003 	tsteq	r0, r3
     b94:	00005300 	andeq	r5, r0, r0, lsl #6
     b98:	00000000 	andeq	r0, r0, r0
     b9c:	15040000 	strne	r0, [r4, #-0]
     ba0:	00000370 	andeq	r0, r0, r0, ror r3
     ba4:	00000370 	andeq	r0, r0, r0, ror r3
     ba8:	9f3f0002 	svcls	0x003f0002
	...
     bb4:	03701504 	cmneq	r0, #4, 10	; 0x1000000
     bb8:	03700000 	cmneq	r0, #0
     bbc:	00010000 	andeq	r0, r1, r0
     bc0:	00000053 	andeq	r0, r0, r3, asr r0
     bc4:	00000000 	andeq	r0, r0, r0
     bc8:	78150400 	ldmdavc	r5, {sl}
     bcc:	78000003 	stmdavc	r0, {r0, r1}
     bd0:	02000003 	andeq	r0, r0, #3
     bd4:	009f3e00 	addseq	r3, pc, r0, lsl #28
     bd8:	00000000 	andeq	r0, r0, r0
     bdc:	04000000 	streq	r0, [r0], #-0
     be0:	00037815 	andeq	r7, r3, r5, lsl r8
     be4:	00037800 	andeq	r7, r3, r0, lsl #16
     be8:	53000100 	movwpl	r0, #256	; 0x100
	...
     bf4:	03800003 	orreq	r0, r0, #3
     bf8:	03840000 	orreq	r0, r4, #0
     bfc:	00020000 	andeq	r0, r2, r0
     c00:	00009f3f 	andeq	r9, r0, pc, lsr pc
     c04:	00000000 	andeq	r0, r0, r0
     c08:	00030000 	andeq	r0, r3, r0
     c0c:	00000380 	andeq	r0, r0, r0, lsl #7
     c10:	00000384 	andeq	r0, r0, r4, lsl #7
     c14:	00530001 	subseq	r0, r3, r1
	...
     c20:	00038400 	andeq	r8, r3, r0, lsl #8
     c24:	00038800 	andeq	r8, r3, r0, lsl #16
     c28:	53000100 	movwpl	r0, #256	; 0x100
	...
     c34:	038c0100 	orreq	r0, ip, #0, 2
     c38:	038c0000 	orreq	r0, ip, #0
     c3c:	00010000 	andeq	r0, r1, r0
     c40:	00000053 	andeq	r0, r0, r3, asr r0
     c44:	00000000 	andeq	r0, r0, r0
     c48:	8c0a0400 	cfstrshi	mvf0, [sl], {-0}
     c4c:	8c000003 	stchi	0, cr0, [r0], {3}
     c50:	02000003 	andeq	r0, r0, #3
     c54:	009f3f00 	addseq	r3, pc, r0, lsl #30
     c58:	00000000 	andeq	r0, r0, r0
     c5c:	04000000 	streq	r0, [r0], #-0
     c60:	00038c0a 	andeq	r8, r3, sl, lsl #24
     c64:	00038c00 	andeq	r8, r3, r0, lsl #24
     c68:	53000100 	movwpl	r0, #256	; 0x100
	...
     c74:	03940a04 	orrseq	r0, r4, #4, 20	; 0x4000
     c78:	03940000 	orrseq	r0, r4, #0
     c7c:	00020000 	andeq	r0, r2, r0
     c80:	00009f3e 	andeq	r9, r0, lr, lsr pc
     c84:	00000000 	andeq	r0, r0, r0
     c88:	0a040000 	beq	100c90 <__bss_end__+0xf6138>
     c8c:	00000394 	muleq	r0, r4, r3
     c90:	00000394 	muleq	r0, r4, r3
     c94:	00530001 	subseq	r0, r3, r1
     c98:	00000000 	andeq	r0, r0, r0
     c9c:	05000000 	streq	r0, [r0, #-0]
     ca0:	00039c00 	andeq	r9, r3, r0, lsl #24
     ca4:	0003ac00 	andeq	sl, r3, r0, lsl #24
     ca8:	30000200 	andcc	r0, r0, r0, lsl #4
     cac:	0000009f 	muleq	r0, pc, r0	; <UNPREDICTABLE>
	...
     cb8:	c8000000 	stmdagt	r0, {}	; <UNPREDICTABLE>
     cbc:	ec000001 	stc	0, cr0, [r0], {1}
     cc0:	01000001 	tsteq	r0, r1
     cc4:	01ec5000 	mvneq	r5, r0
     cc8:	01ef0000 	mvneq	r0, r0
     ccc:	00010000 	andeq	r0, r1, r0
     cd0:	0001ef52 	andeq	lr, r1, r2, asr pc
     cd4:	00035400 	andeq	r5, r3, r0, lsl #8
     cd8:	54000100 	strpl	r0, [r0], #-256	; 0xffffff00
	...
     ce4:	02600001 	rsbeq	r0, r0, #1
     ce8:	028c0000 	addeq	r0, ip, #0
     cec:	00010000 	andeq	r0, r1, r0
     cf0:	00000055 	andeq	r0, r0, r5, asr r0
     cf4:	00000000 	andeq	r0, r0, r0
     cf8:	f4010000 	vst4.8	{d0-d3}, [r1], r0
     cfc:	f4000001 	vst4.8	{d0-d3}, [r0], r1
     d00:	01000001 	tsteq	r0, r1
     d04:	00005300 	andeq	r5, r0, r0, lsl #6
     d08:	00000000 	andeq	r0, r0, r0
     d0c:	08010000 	stmdaeq	r1, {}	; <UNPREDICTABLE>
     d10:	000001f4 	strdeq	r0, [r0], -r4
     d14:	000001f4 	strdeq	r0, [r0], -r4
     d18:	9f3b0002 	svcls	0x003b0002
	...
     d24:	01f40801 	mvnseq	r0, r1, lsl #16
     d28:	01f40000 	mvnseq	r0, r0
     d2c:	00010000 	andeq	r0, r1, r0
     d30:	00000053 	andeq	r0, r0, r3, asr r0
     d34:	00000000 	andeq	r0, r0, r0
     d38:	00000100 	andeq	r0, r0, r0, lsl #2
     d3c:	00020800 	andeq	r0, r2, r0, lsl #16
     d40:	00021400 	andeq	r1, r2, r0, lsl #8
     d44:	53000100 	movwpl	r0, #256	; 0x100
     d48:	00000298 	muleq	r0, r8, r2
     d4c:	0000029c 	muleq	r0, ip, r2
     d50:	00530001 	subseq	r0, r3, r1
	...
     d5c:	00020801 	andeq	r0, r2, r1, lsl #16
     d60:	00020800 	andeq	r0, r2, r0, lsl #16
     d64:	53000100 	movwpl	r0, #256	; 0x100
	...
     d70:	00000003 	andeq	r0, r0, r3
     d74:	00000208 	andeq	r0, r0, r8, lsl #4
     d78:	00000214 	andeq	r0, r0, r4, lsl r2
     d7c:	98530001 	ldmdals	r3, {r0}^
     d80:	9c000002 	stcls	0, cr0, [r0], {2}
     d84:	01000002 	tsteq	r0, r2
     d88:	00005300 	andeq	r5, r0, r0, lsl #6
     d8c:	00000000 	andeq	r0, r0, r0
     d90:	0b050000 	bleq	140d98 <__bss_end__+0x136240>
     d94:	00000208 	andeq	r0, r0, r8, lsl #4
     d98:	00000208 	andeq	r0, r0, r8, lsl #4
     d9c:	9f3a0002 	svcls	0x003a0002
	...
     da8:	02080b05 	andeq	r0, r8, #5120	; 0x1400
     dac:	02080000 	andeq	r0, r8, #0
     db0:	00010000 	andeq	r0, r1, r0
     db4:	00000053 	andeq	r0, r0, r3, asr r0
     db8:	00000000 	andeq	r0, r0, r0
     dbc:	98000000 	stmdals	r0, {}	; <UNPREDICTABLE>
     dc0:	9c000002 	stcls	0, cr0, [r0], {2}
     dc4:	02000002 	andeq	r0, r0, #2
     dc8:	009f3400 	addseq	r3, pc, r0, lsl #8
	...
     dd4:	00029800 	andeq	r9, r2, r0, lsl #16
     dd8:	00029c00 	andeq	r9, r2, r0, lsl #24
     ddc:	30000200 	andcc	r0, r0, r0, lsl #4
     de0:	0000009f 	muleq	r0, pc, r0	; <UNPREDICTABLE>
     de4:	00000000 	andeq	r0, r0, r0
     de8:	98000000 	stmdals	r0, {}	; <UNPREDICTABLE>
     dec:	9c000002 	stcls	0, cr0, [r0], {2}
     df0:	01000002 	tsteq	r0, r2
     df4:	00005300 	andeq	r5, r0, r0, lsl #6
     df8:	00000000 	andeq	r0, r0, r0
     dfc:	00050000 	andeq	r0, r5, r0
     e00:	02b00100 	adcseq	r0, r0, #0, 2
     e04:	02b40000 	adcseq	r0, r4, #0
     e08:	00020000 	andeq	r0, r2, r0
     e0c:	02b49f30 	adcseq	r9, r4, #48, 30	; 0xc0
     e10:	02b40000 	adcseq	r0, r4, #0
     e14:	00010000 	andeq	r0, r1, r0
     e18:	00000053 	andeq	r0, r0, r3, asr r0
     e1c:	00000000 	andeq	r0, r0, r0
     e20:	b4000100 	strlt	r0, [r0], #-256	; 0xffffff00
     e24:	bc000002 	stclt	0, cr0, [r0], {2}
     e28:	02000002 	andeq	r0, r0, #2
     e2c:	009f3400 	addseq	r3, pc, r0, lsl #8
     e30:	00000000 	andeq	r0, r0, r0
     e34:	01000000 	mrseq	r0, (UNDEF: 0)
     e38:	0002b400 	andeq	fp, r2, r0, lsl #8
     e3c:	0002bc00 	andeq	fp, r2, r0, lsl #24
     e40:	32000200 	andcc	r0, r0, #0, 4
     e44:	0000009f 	muleq	r0, pc, r0	; <UNPREDICTABLE>
     e48:	00000000 	andeq	r0, r0, r0
     e4c:	b4000100 	strlt	r0, [r0], #-256	; 0xffffff00
     e50:	b8000002 	stmdalt	r0, {r1}
     e54:	01000002 	tsteq	r0, r2
     e58:	00005300 	andeq	r5, r0, r0, lsl #6
     e5c:	00000000 	andeq	r0, r0, r0
     e60:	00040000 	andeq	r0, r4, r0
     e64:	02280100 	eoreq	r0, r8, #0, 2
     e68:	022c0000 	eoreq	r0, ip, #0
     e6c:	00020000 	andeq	r0, r2, r0
     e70:	022c9f30 	eoreq	r9, ip, #48, 30	; 0xc0
     e74:	022c0000 	eoreq	r0, ip, #0
     e78:	00010000 	andeq	r0, r1, r0
     e7c:	00000051 	andeq	r0, r0, r1, asr r0
     e80:	00000000 	andeq	r0, r0, r0
     e84:	00000400 	andeq	r0, r0, r0, lsl #8
     e88:	00023c01 	andeq	r3, r2, r1, lsl #24
     e8c:	00024000 	andeq	r4, r2, r0
     e90:	30000200 	andcc	r0, r0, r0, lsl #4
     e94:	0002409f 	muleq	r2, pc, r0	; <UNPREDICTABLE>
     e98:	00024000 	andeq	r4, r2, r0
     e9c:	53000100 	movwpl	r0, #256	; 0x100
	...
     ea8:	02600100 	rsbeq	r0, r0, #0, 2
     eac:	02600000 	rsbeq	r0, r0, #0
     eb0:	00010000 	andeq	r0, r1, r0
     eb4:	00000055 	andeq	r0, r0, r5, asr r0
	...
     ec4:	00010c00 	andeq	r0, r1, r0, lsl #24
     ec8:	00018800 	andeq	r8, r1, r0, lsl #16
     ecc:	50000100 	andpl	r0, r0, r0, lsl #2
     ed0:	00000188 	andeq	r0, r0, r8, lsl #3
     ed4:	00000190 	muleq	r0, r0, r1
     ed8:	01f30004 	mvnseq	r0, r4
     edc:	01909f50 	orrseq	r9, r0, r0, asr pc
     ee0:	01a80000 			; <UNDEFINED> instruction: 0x01a80000
     ee4:	00010000 	andeq	r0, r1, r0
     ee8:	0001a850 	andeq	sl, r1, r0, asr r8
     eec:	0001c800 	andeq	ip, r1, r0, lsl #16
     ef0:	f3000400 	vshl.u8	d0, d0, d0
     ef4:	009f5001 	addseq	r5, pc, r1
	...
     f04:	0c000000 	stceq	0, cr0, [r0], {-0}
     f08:	84000001 	strhi	r0, [r0], #-1
     f0c:	01000001 	tsteq	r0, r1
     f10:	01845100 	orreq	r5, r4, r0, lsl #2
     f14:	01900000 	orrseq	r0, r0, r0
     f18:	00040000 	andeq	r0, r4, r0
     f1c:	9f5101f3 	svcls	0x005101f3
     f20:	00000190 	muleq	r0, r0, r1
     f24:	000001a4 	andeq	r0, r0, r4, lsr #3
     f28:	a4510001 	ldrbge	r0, [r1], #-1
     f2c:	c8000001 	stmdagt	r0, {r0}
     f30:	04000001 	streq	r0, [r0], #-1
     f34:	5101f300 	mrspl	pc, SP_irq	; <UNPREDICTABLE>
     f38:	0000009f 	muleq	r0, pc, r0	; <UNPREDICTABLE>
     f3c:	00000000 	andeq	r0, r0, r0
     f40:	00000200 	andeq	r0, r0, r0, lsl #4
     f44:	00000000 	andeq	r0, r0, r0
     f48:	00012800 	andeq	r2, r1, r0, lsl #16
     f4c:	00018800 	andeq	r8, r1, r0, lsl #16
     f50:	50000100 	andpl	r0, r0, r0, lsl #2
     f54:	00000188 	andeq	r0, r0, r8, lsl #3
     f58:	00000190 	muleq	r0, r0, r1
     f5c:	01f30004 	mvnseq	r0, r4
     f60:	01909f50 	orrseq	r9, r0, r0, asr pc
     f64:	01a80000 			; <UNDEFINED> instruction: 0x01a80000
     f68:	00010000 	andeq	r0, r1, r0
     f6c:	0001a850 	andeq	sl, r1, r0, asr r8
     f70:	0001c800 	andeq	ip, r1, r0, lsl #16
     f74:	f3000400 	vshl.u8	d0, d0, d0
     f78:	009f5001 	addseq	r5, pc, r1
     f7c:	00000000 	andeq	r0, r0, r0
     f80:	03000000 	movweq	r0, #0
     f84:	05050404 	streq	r0, [r5, #-1028]	; 0xfffffbfc
     f88:	00000606 	andeq	r0, r0, r6, lsl #12
     f8c:	00013c00 	andeq	r3, r1, r0, lsl #24
     f90:	00013c00 	andeq	r3, r1, r0, lsl #24
     f94:	31000200 	mrscc	r0, R8_usr
     f98:	00013c9f 	muleq	r1, pc, ip	; <UNPREDICTABLE>
     f9c:	00013c00 	andeq	r3, r1, r0, lsl #24
     fa0:	37000200 	strcc	r0, [r0, -r0, lsl #4]
     fa4:	00013c9f 	muleq	r1, pc, ip	; <UNPREDICTABLE>
     fa8:	00013c00 	andeq	r3, r1, r0, lsl #24
     fac:	4f000200 	svcmi	0x00000200
     fb0:	00013c9f 	muleq	r1, pc, ip	; <UNPREDICTABLE>
     fb4:	00017000 	andeq	r7, r1, r0
     fb8:	08000300 	stmdaeq	r0, {r8, r9}
     fbc:	01909f7f 	orrseq	r9, r0, pc, ror pc
     fc0:	01c80000 	biceq	r0, r8, r0
     fc4:	00030000 	andeq	r0, r3, r0
     fc8:	009f7f08 	addseq	r7, pc, r8, lsl #30
     fcc:	00000000 	andeq	r0, r0, r0
     fd0:	03000000 	movweq	r0, #0
     fd4:	14010000 	strne	r0, [r1], #-0
     fd8:	18000001 	stmdane	r0, {r0}
     fdc:	02000001 	andeq	r0, r0, #1
     fe0:	189f3000 	ldmne	pc, {ip, sp}	; <UNPREDICTABLE>
     fe4:	18000001 	stmdane	r0, {r0}
     fe8:	01000001 	tsteq	r0, r1
     fec:	00005300 	andeq	r5, r0, r0, lsl #6
     ff0:	00000000 	andeq	r0, r0, r0
     ff4:	00010000 	andeq	r0, r1, r0
     ff8:	00000118 	andeq	r0, r0, r8, lsl r1
     ffc:	0000011c 	andeq	r0, r0, ip, lsl r1
    1000:	9f300002 	svcls	0x00300002
	...
    100c:	01180001 	tsteq	r8, r1
    1010:	011c0000 	tsteq	ip, r0
    1014:	00010000 	andeq	r0, r1, r0
    1018:	00000053 	andeq	r0, r0, r3, asr r0
    101c:	00000000 	andeq	r0, r0, r0
    1020:	1c000000 	stcne	0, cr0, [r0], {-0}
    1024:	24000001 	strcs	r0, [r0], #-1
    1028:	01000001 	tsteq	r0, r1
    102c:	00005300 	andeq	r5, r0, r0, lsl #6
    1030:	00000000 	andeq	r0, r0, r0
    1034:	00030000 	andeq	r0, r3, r0
    1038:	00000128 	andeq	r0, r0, r8, lsr #2
    103c:	00000130 	andeq	r0, r0, r0, lsr r1
    1040:	00500001 	subseq	r0, r0, r1
    1044:	00000000 	andeq	r0, r0, r0
    1048:	05000000 	streq	r0, [r0, #-0]
    104c:	30010000 	andcc	r0, r1, r0
    1050:	34000001 	strcc	r0, [r0], #-1
    1054:	02000001 	andeq	r0, r0, #1
    1058:	349f3000 	ldrcc	r3, [pc], #0	; 1060 <__code_start__-0x6fa0>
    105c:	34000001 	strcc	r0, [r0], #-1
    1060:	01000001 	tsteq	r0, r1
    1064:	00005300 	andeq	r5, r0, r0, lsl #6
    1068:	00000000 	andeq	r0, r0, r0
    106c:	00070000 	andeq	r0, r7, r0
    1070:	0000013c 	andeq	r0, r0, ip, lsr r1
    1074:	0000014c 	andeq	r0, r0, ip, asr #2
    1078:	7f080003 	svcvc	0x00080003
    107c:	0000009f 	muleq	r0, pc, r0	; <UNPREDICTABLE>
    1080:	00000000 	andeq	r0, r0, r0
    1084:	00000300 	andeq	r0, r0, r0, lsl #6
    1088:	00014400 	andeq	r4, r1, r0, lsl #8
    108c:	00017000 	andeq	r7, r1, r0
    1090:	30000200 	andcc	r0, r0, r0, lsl #4
    1094:	0001909f 	muleq	r1, pc, r0	; <UNPREDICTABLE>
    1098:	0001c800 	andeq	ip, r1, r0, lsl #16
    109c:	30000200 	andcc	r0, r0, r0, lsl #4
    10a0:	0000009f 	muleq	r0, pc, r0	; <UNPREDICTABLE>
    10a4:	00000000 	andeq	r0, r0, r0
    10a8:	00000500 	andeq	r0, r0, r0, lsl #10
    10ac:	00014c01 	andeq	r4, r1, r1, lsl #24
    10b0:	00015000 	andeq	r5, r1, r0
    10b4:	30000200 	andcc	r0, r0, r0, lsl #4
    10b8:	0001509f 	muleq	r1, pc, r0	; <UNPREDICTABLE>
    10bc:	00015000 	andeq	r5, r1, r0
    10c0:	53000100 	movwpl	r0, #256	; 0x100
	...
    10cc:	01580005 	cmpeq	r8, r5
    10d0:	01700000 	cmneq	r0, r0
    10d4:	00020000 	andeq	r0, r2, r0
    10d8:	00009f30 	andeq	r9, r0, r0, lsr pc
	...
    10e8:	0000002c 	andeq	r0, r0, ip, lsr #32
    10ec:	00000038 	andeq	r0, r0, r8, lsr r0
    10f0:	38500001 	ldmdacc	r0, {r0}^
    10f4:	48000000 	stmdami	r0, {}	; <UNPREDICTABLE>
    10f8:	01000000 	mrseq	r0, (UNDEF: 0)
    10fc:	00485400 	subeq	r5, r8, r0, lsl #8
    1100:	00580000 	subseq	r0, r8, r0
    1104:	00010000 	andeq	r0, r1, r0
    1108:	00000050 	andeq	r0, r0, r0, asr r0
	...
    1118:	00000800 	andeq	r0, r0, r0, lsl #16
    111c:	50000100 	andpl	r0, r0, r0, lsl #2
    1120:	00000008 	andeq	r0, r0, r8
    1124:	00000020 	andeq	r0, r0, r0, lsr #32
    1128:	00520001 	subseq	r0, r2, r1
    112c:	00000000 	andeq	r0, r0, r0
    1130:	02000000 	andeq	r0, r0, #0
    1134:	04000000 	streq	r0, [r0], #-0
    1138:	0c000000 	stceq	0, cr0, [r0], {-0}
    113c:	02000000 	andeq	r0, r0, #0
    1140:	0c9f3000 	ldceq	0, cr3, [pc], {0}
    1144:	20000000 	andcs	r0, r0, r0
    1148:	01000000 	mrseq	r0, (UNDEF: 0)
    114c:	00005000 	andeq	r5, r0, r0
	...
    1160:	00000004 	andeq	r0, r0, r4
    1164:	04510001 	ldrbeq	r0, [r1], #-1
    1168:	0c000000 	stceq	0, cr0, [r0], {-0}
    116c:	01000000 	mrseq	r0, (UNDEF: 0)
    1170:	000c5100 	andeq	r5, ip, r0, lsl #2
    1174:	00200000 	eoreq	r0, r0, r0
    1178:	00030000 	andeq	r0, r3, r0
    117c:	009f7f71 	addseq	r7, pc, r1, ror pc	; <UNPREDICTABLE>
    1180:	00000000 	andeq	r0, r0, r0
    1184:	02000000 	andeq	r0, r0, #0
	...
    1190:	00000400 	andeq	r0, r0, r0, lsl #8
    1194:	50000100 	andpl	r0, r0, r0, lsl #2
    1198:	00000004 	andeq	r0, r0, r4
    119c:	00000014 	andeq	r0, r0, r4, lsl r0
    11a0:	145c0001 	ldrbne	r0, [ip], #-1
    11a4:	20000000 	andcs	r0, r0, r0
    11a8:	03000000 	movweq	r0, #0
    11ac:	9f7f7c00 	svcls	0x007f7c00
	...
    11c0:	001c0000 	andseq	r0, ip, r0
    11c4:	00010000 	andeq	r0, r1, r0
    11c8:	00001c52 	andeq	r1, r0, r2, asr ip
    11cc:	00003800 	andeq	r3, r0, r0, lsl #16
    11d0:	f3000400 	vshl.u8	d0, d0, d0
    11d4:	389f5201 	ldmcc	pc, {r0, r9, ip, lr}	; <UNPREDICTABLE>
    11d8:	60000000 	andvs	r0, r0, r0
    11dc:	01000000 	mrseq	r0, (UNDEF: 0)
    11e0:	00005200 	andeq	r5, r0, r0, lsl #4
	...
    11ec:	0000001c 	andeq	r0, r0, ip, lsl r0
    11f0:	00000038 	andeq	r0, r0, r8, lsr r0
    11f4:	00520001 	subseq	r0, r2, r1
    11f8:	00000000 	andeq	r0, r0, r0
    11fc:	01000000 	mrseq	r0, (UNDEF: 0)
    1200:	00001c00 	andeq	r1, r0, r0, lsl #24
    1204:	00003800 	andeq	r3, r0, r0, lsl #16
    1208:	50000100 	andpl	r0, r0, r0, lsl #2
	...
    1214:	001c0002 	andseq	r0, ip, r2
    1218:	00380000 	eorseq	r0, r8, r0
    121c:	00010000 	andeq	r0, r1, r0
    1220:	00000051 	andeq	r0, r0, r1, asr r0
    1224:	00000000 	andeq	r0, r0, r0
    1228:	00000400 	andeq	r0, r0, r0, lsl #8
    122c:	00001c00 	andeq	r1, r0, r0, lsl #24
    1230:	00002000 	andeq	r2, r0, r0
    1234:	30000200 	andcc	r0, r0, r0, lsl #4
    1238:	0000209f 	muleq	r0, pc, r0	; <UNPREDICTABLE>
    123c:	00003800 	andeq	r3, r0, r0, lsl #16
    1240:	53000100 	movwpl	r0, #256	; 0x100
	...
    124c:	00380000 	eorseq	r0, r8, r0
    1250:	00500000 	subseq	r0, r0, r0
    1254:	00010000 	andeq	r0, r1, r0
    1258:	00000053 	andeq	r0, r0, r3, asr r0
	...
    1268:	00000c00 	andeq	r0, r0, r0, lsl #24
    126c:	50000100 	andpl	r0, r0, r0, lsl #2
    1270:	0000000c 	andeq	r0, r0, ip
    1274:	00000034 	andeq	r0, r0, r4, lsr r0
    1278:	00540001 	subseq	r0, r4, r1
	...
    1288:	0b000000 	bleq	1290 <__code_start__-0x6d70>
    128c:	01000000 	mrseq	r0, (UNDEF: 0)
    1290:	000b5000 	andeq	r5, fp, r0
    1294:	00140000 	andseq	r0, r4, r0
    1298:	00010000 	andeq	r0, r1, r0
    129c:	00000054 	andeq	r0, r0, r4, asr r0
	...
    12ac:	00000400 	andeq	r0, r0, r0, lsl #8
    12b0:	52000100 	andpl	r0, r0, #0, 2
    12b4:	00000004 	andeq	r0, r0, r4
    12b8:	0000001c 	andeq	r0, r0, ip, lsl r0
    12bc:	01f30004 	mvnseq	r0, r4
    12c0:	00009f52 	andeq	r9, r0, r2, asr pc
    12c4:	00000000 	andeq	r0, r0, r0
    12c8:	00020000 	andeq	r0, r2, r0
    12cc:	00010100 	andeq	r0, r1, r0, lsl #2
    12d0:	00000000 	andeq	r0, r0, r0
    12d4:	000c0000 	andeq	r0, ip, r0
    12d8:	00010000 	andeq	r0, r1, r0
    12dc:	00000c50 	andeq	r0, r0, r0, asr ip
    12e0:	00000c00 	andeq	r0, r0, r0, lsl #24
    12e4:	53000100 	movwpl	r0, #256	; 0x100
    12e8:	0000000c 	andeq	r0, r0, ip
    12ec:	00000010 	andeq	r0, r0, r0, lsl r0
    12f0:	01730003 	cmneq	r3, r3
    12f4:	0000109f 	muleq	r0, pc, r0	; <UNPREDICTABLE>
    12f8:	00001c00 	andeq	r1, r0, r0, lsl #24
    12fc:	53000100 	movwpl	r0, #256	; 0x100
	...
    1308:	00040000 	andeq	r0, r4, r0
    130c:	001c0000 	andseq	r0, ip, r0
    1310:	00010000 	andeq	r0, r1, r0
    1314:	00000052 	andeq	r0, r0, r2, asr r0
	...
    1324:	24000000 	strcs	r0, [r0], #-0
    1328:	01000000 	mrseq	r0, (UNDEF: 0)
    132c:	00245000 	eoreq	r5, r4, r0
    1330:	00270000 	eoreq	r0, r7, r0
    1334:	00020000 	andeq	r0, r2, r0
    1338:	00276c91 	mlaeq	r7, r1, ip, r6
    133c:	003c0000 	eorseq	r0, ip, r0
    1340:	00040000 	andeq	r0, r4, r0
    1344:	9f5001f3 	svcls	0x005001f3
	...
    1354:	00300000 	eorseq	r0, r0, r0
    1358:	004c0000 	subeq	r0, ip, r0
    135c:	00010000 	andeq	r0, r1, r0
    1360:	00004c50 	andeq	r4, r0, r0, asr ip
    1364:	00004f00 	andeq	r4, r0, r0, lsl #30
    1368:	91000200 	mrsls	r0, R8_usr
    136c:	00004f68 	andeq	r4, r0, r8, ror #30
    1370:	00006000 	andeq	r6, r0, r0
    1374:	f3000400 	vshl.u8	d0, d0, d0
    1378:	009f5001 	addseq	r5, pc, r1
	...
    138c:	00001c00 	andeq	r1, r0, r0, lsl #24
    1390:	50000100 	andpl	r0, r0, r0, lsl #2
    1394:	0000001c 	andeq	r0, r0, ip, lsl r0
    1398:	0000001f 	andeq	r0, r0, pc, lsl r0
    139c:	68910002 	ldmvs	r1, {r1}
    13a0:	0000001f 	andeq	r0, r0, pc, lsl r0
    13a4:	00000030 	andeq	r0, r0, r0, lsr r0
    13a8:	01f30004 	mvnseq	r0, r4
    13ac:	00009f50 	andeq	r9, r0, r0, asr pc
	...
    13c0:	00000024 	andeq	r0, r0, r4, lsr #32
    13c4:	24500001 	ldrbcs	r0, [r0], #-1
    13c8:	27000000 	strcs	r0, [r0, -r0]
    13cc:	02000000 	andeq	r0, r0, #0
    13d0:	276c9100 	strbcs	r9, [ip, -r0, lsl #2]!
    13d4:	3c000000 	stccc	0, cr0, [r0], {-0}
    13d8:	04000000 	streq	r0, [r0], #-0
    13dc:	5001f300 	andpl	pc, r1, r0, lsl #6
    13e0:	0000009f 	muleq	r0, pc, r0	; <UNPREDICTABLE>
	...
    13f0:	24000000 	strcs	r0, [r0], #-0
    13f4:	01000000 	mrseq	r0, (UNDEF: 0)
    13f8:	00245000 	eoreq	r5, r4, r0
    13fc:	00270000 	eoreq	r0, r7, r0
    1400:	00020000 	andeq	r0, r2, r0
    1404:	00276c91 	mlaeq	r7, r1, ip, r6
    1408:	003c0000 	eorseq	r0, ip, r0
    140c:	00040000 	andeq	r0, r4, r0
    1410:	9f5001f3 	svcls	0x005001f3
	...
    1424:	00240000 	eoreq	r0, r4, r0
    1428:	00010000 	andeq	r0, r1, r0
    142c:	00002450 	andeq	r2, r0, r0, asr r4
    1430:	00002700 	andeq	r2, r0, r0, lsl #14
    1434:	91000200 	mrsls	r0, R8_usr
    1438:	0000276c 	andeq	r2, r0, ip, ror #14
    143c:	00003c00 	andeq	r3, r0, r0, lsl #24
    1440:	f3000400 	vshl.u8	d0, d0, d0
    1444:	009f5001 	addseq	r5, pc, r1
	...
    1450:	00000101 	andeq	r0, r0, r1, lsl #2
    1454:	00001000 	andeq	r1, r0, r0
    1458:	00001000 	andeq	r1, r0, r0
    145c:	53000100 	movwpl	r0, #256	; 0x100
    1460:	00000010 	andeq	r0, r0, r0, lsl r0
    1464:	00000018 	andeq	r0, r0, r8, lsl r0
    1468:	04730003 	ldrbteq	r0, [r3], #-3
    146c:	0000189f 	muleq	r0, pc, r8	; <UNPREDICTABLE>
    1470:	00002700 	andeq	r2, r0, r0, lsl #14
    1474:	53000100 	movwpl	r0, #256	; 0x100
	...
    1480:	91480001 	cmpls	r8, r1
    1484:	91640000 	cmnls	r4, r0
    1488:	00060000 	andeq	r0, r6, r0
    148c:	10001c0c 	andne	r1, r0, ip, lsl #24
    1490:	00009f20 	andeq	r9, r0, r0, lsr #30
    1494:	00000000 	andeq	r0, r0, r0
    1498:	00020000 	andeq	r0, r2, r0
    149c:	00009148 	andeq	r9, r0, r8, asr #2
    14a0:	00009164 	andeq	r9, r0, r4, ror #2
    14a4:	240c0006 	strcs	r0, [ip], #-6
    14a8:	9f201000 	svcls	0x00201000
	...
    14b4:	91480003 	cmpls	r8, r3
    14b8:	91640000 	cmnls	r4, r0
    14bc:	00050000 	andeq	r0, r5, r0
    14c0:	2447b408 	strbcs	fp, [r7], #-1032	; 0xfffffbf8
    14c4:	0000009f 	muleq	r0, pc, r0	; <UNPREDICTABLE>
    14c8:	00000000 	andeq	r0, r0, r0
    14cc:	48000400 	stmdami	r0, {sl}
    14d0:	64000091 	strvs	r0, [r0], #-145	; 0xffffff6f
    14d4:	03000091 	movweq	r0, #145	; 0x91
    14d8:	9f200800 	svcls	0x00200800
	...
    14e4:	00000002 	andeq	r0, r0, r2
    14e8:	91180000 	tstls	r8, r0
    14ec:	911c0000 	tstls	ip, r0
    14f0:	00020000 	andeq	r0, r2, r0
    14f4:	911c9f30 	tstls	ip, r0, lsr pc
    14f8:	91200000 			; <UNDEFINED> instruction: 0x91200000
    14fc:	00010000 	andeq	r0, r1, r0
    1500:	00912453 	addseq	r2, r1, r3, asr r4
    1504:	00912c00 	addseq	r2, r1, r0, lsl #24
    1508:	53000100 	movwpl	r0, #256	; 0x100
	...
    1514:	00000002 	andeq	r0, r0, r2
    1518:	00009100 	andeq	r9, r0, r0, lsl #2
    151c:	00009104 	andeq	r9, r0, r4, lsl #2
    1520:	9f300002 	svcls	0x00300002
    1524:	00009104 	andeq	r9, r0, r4, lsl #2
    1528:	00009108 	andeq	r9, r0, r8, lsl #2
    152c:	00500001 	subseq	r0, r0, r1
	...
    1538:	6c000000 	stcvs	0, cr0, [r0], {-0}
    153c:	78000000 	stmdavc	r0, {}	; <UNPREDICTABLE>
    1540:	01000000 	mrseq	r0, (UNDEF: 0)
    1544:	00785000 	rsbseq	r5, r8, r0
    1548:	00840000 	addeq	r0, r4, r0
    154c:	00040000 	andeq	r0, r4, r0
    1550:	9f5001f3 	svcls	0x005001f3
	...
    1560:	00000054 	andeq	r0, r0, r4, asr r0
    1564:	00000060 	andeq	r0, r0, r0, rrx
    1568:	60500001 	subsvs	r0, r0, r1
    156c:	6c000000 	stcvs	0, cr0, [r0], {-0}
    1570:	04000000 	streq	r0, [r0], #-0
    1574:	5001f300 	andpl	pc, r1, r0, lsl #6
    1578:	0000009f 	muleq	r0, pc, r0	; <UNPREDICTABLE>
	...
    1584:	00003000 	andeq	r3, r0, r0
    1588:	00003b00 	andeq	r3, r0, r0, lsl #22
    158c:	50000100 	andpl	r0, r0, r0, lsl #2
    1590:	0000003b 	andeq	r0, r0, fp, lsr r0
    1594:	00000054 	andeq	r0, r0, r4, asr r0
    1598:	00550001 	subseq	r0, r5, r1
	...
    15a4:	00004000 	andeq	r4, r0, r0
    15a8:	00005400 	andeq	r5, r0, r0, lsl #8
    15ac:	54000100 	strpl	r0, [r0], #-256	; 0xffffff00
	...
    15b8:	00440000 	subeq	r0, r4, r0
    15bc:	00480000 	subeq	r0, r8, r0
    15c0:	00010000 	andeq	r0, r1, r0
    15c4:	00000050 	andeq	r0, r0, r0, asr r0
	...
    15d0:	00002400 	andeq	r2, r0, r0, lsl #8
    15d4:	00002700 	andeq	r2, r0, r0, lsl #14
    15d8:	50000100 	andpl	r0, r0, r0, lsl #2
    15dc:	00000027 	andeq	r0, r0, r7, lsr #32
    15e0:	00000030 	andeq	r0, r0, r0, lsr r0
    15e4:	00540001 	subseq	r0, r4, r1
	...
    15f0:	58000000 	stmdapl	r0, {}	; <UNPREDICTABLE>
    15f4:	63000001 	movwvs	r0, #1
    15f8:	01000001 	tsteq	r0, r1
    15fc:	01635000 	cmneq	r3, r0
    1600:	01880000 	orreq	r0, r8, r0
    1604:	00010000 	andeq	r0, r1, r0
    1608:	00000054 	andeq	r0, r0, r4, asr r0
    160c:	00000000 	andeq	r0, r0, r0
    1610:	48000000 	stmdami	r0, {}	; <UNPREDICTABLE>
    1614:	58000001 	stmdapl	r0, {r0}
    1618:	01000001 	tsteq	r0, r1
    161c:	00005400 	andeq	r5, r0, r0, lsl #8
	...
    162c:	000f0000 	andeq	r0, pc, r0
    1630:	00010000 	andeq	r0, r1, r0
    1634:	00000f50 	andeq	r0, r0, r0, asr pc
    1638:	00002000 	andeq	r2, r0, r0
    163c:	54000100 	strpl	r0, [r0], #-256	; 0xffffff00
	...
    1650:	0000000f 	andeq	r0, r0, pc
    1654:	0f510001 	svceq	0x00510001
    1658:	20000000 	andcs	r0, r0, r0
    165c:	01000000 	mrseq	r0, (UNDEF: 0)
    1660:	00005500 	andeq	r5, r0, r0, lsl #10
	...
    166c:	00200000 	eoreq	r0, r0, r0
    1670:	002f0000 	eoreq	r0, pc, r0
    1674:	00010000 	andeq	r0, r1, r0
    1678:	00002f50 	andeq	r2, r0, r0, asr pc
    167c:	00004000 	andeq	r4, r0, r0
    1680:	54000100 	strpl	r0, [r0], #-256	; 0xffffff00
	...
    1690:	00000020 	andeq	r0, r0, r0, lsr #32
    1694:	0000002f 	andeq	r0, r0, pc, lsr #32
    1698:	2f510001 	svccs	0x00510001
    169c:	40000000 	andmi	r0, r0, r0
    16a0:	01000000 	mrseq	r0, (UNDEF: 0)
    16a4:	00005500 	andeq	r5, r0, r0, lsl #10
	...
    16b4:	00000290 	muleq	r0, r0, r2
    16b8:	000002c0 	andeq	r0, r0, r0, asr #5
    16bc:	c0500001 	subsgt	r0, r0, r1
    16c0:	f4000002 	vst4.8	{d0-d3}, [r0], r2
    16c4:	01000006 	tsteq	r0, r6
    16c8:	06f45900 	ldrbteq	r5, [r4], r0, lsl #18
    16cc:	07280000 	streq	r0, [r8, -r0]!
    16d0:	00040000 	andeq	r0, r4, r0
    16d4:	9f5001f3 	svcls	0x005001f3
	...
    16e4:	02900000 	addseq	r0, r0, #0
    16e8:	02a80000 	adceq	r0, r8, #0
    16ec:	00010000 	andeq	r0, r1, r0
    16f0:	0002a851 	andeq	sl, r2, r1, asr r8
    16f4:	0002c000 	andeq	ip, r2, r0
    16f8:	71000300 	mrsvc	r0, LR_irq
    16fc:	02c09f01 	sbceq	r9, r0, #1, 30
    1700:	07280000 	streq	r0, [r8, -r0]!
    1704:	00040000 	andeq	r0, r4, r0
    1708:	9f5101f3 	svcls	0x005101f3
	...
    1720:	00000290 	muleq	r0, r0, r2
    1724:	000002c0 	andeq	r0, r0, r0, asr #5
    1728:	c0520001 	subsgt	r0, r2, r1
    172c:	f4000002 	vst4.8	{d0-d3}, [r0], r2
    1730:	01000003 	tsteq	r0, r3
    1734:	03f45600 	mvnseq	r5, #0, 12
    1738:	04a80000 	strteq	r0, [r8], #0
    173c:	00010000 	andeq	r0, r1, r0
    1740:	0004a85b 	andeq	sl, r4, fp, asr r8
    1744:	0004c800 	andeq	ip, r4, r0, lsl #16
    1748:	56000100 	strpl	r0, [r0], -r0, lsl #2
    174c:	000004c8 	andeq	r0, r0, r8, asr #9
    1750:	0000054c 	andeq	r0, r0, ip, asr #10
    1754:	4c5b0001 	mrrcmi	0, 0, r0, fp, cr1
    1758:	f4000005 	vst4.8	{d0-d3}, [r0], r5
    175c:	01000006 	tsteq	r0, r6
    1760:	00005600 	andeq	r5, r0, r0, lsl #12
    1764:	00000000 	andeq	r0, r0, r0
    1768:	00010000 	andeq	r0, r1, r0
    176c:	00010100 	andeq	r0, r1, r0, lsl #2
	...
    1778:	00020200 	andeq	r0, r2, r0, lsl #4
    177c:	02a40000 	adceq	r0, r4, #0
    1780:	02c00000 	sbceq	r0, r0, #0
    1784:	00010000 	andeq	r0, r1, r0
    1788:	0002c050 	andeq	ip, r2, r0, asr r0
    178c:	0002cc00 	andeq	ip, r2, r0, lsl #24
    1790:	54000100 	strpl	r0, [r0], #-256	; 0xffffff00
    1794:	000002cc 	andeq	r0, r0, ip, asr #5
    1798:	000002d0 	ldrdeq	r0, [r0], -r0	; <UNPREDICTABLE>
    179c:	01740003 	cmneq	r4, r3
    17a0:	0002d09f 	muleq	r2, pc, r0	; <UNPREDICTABLE>
    17a4:	0002f400 	andeq	pc, r2, r0, lsl #8
    17a8:	54000100 	strpl	r0, [r0], #-256	; 0xffffff00
    17ac:	000002f4 	strdeq	r0, [r0], -r4
    17b0:	000002f8 	strdeq	r0, [r0], -r8
    17b4:	01740003 	cmneq	r4, r3
    17b8:	0002f89f 	muleq	r2, pc, r8	; <UNPREDICTABLE>
    17bc:	0006c400 	andeq	ip, r6, r0, lsl #8
    17c0:	54000100 	strpl	r0, [r0], #-256	; 0xffffff00
    17c4:	000006c4 	andeq	r0, r0, r4, asr #13
    17c8:	000006c8 	andeq	r0, r0, r8, asr #13
    17cc:	01740003 	cmneq	r4, r3
    17d0:	0006c89f 	muleq	r6, pc, r8	; <UNPREDICTABLE>
    17d4:	0006e000 	andeq	lr, r6, r0
    17d8:	54000100 	strpl	r0, [r0], #-256	; 0xffffff00
    17dc:	000006e0 	andeq	r0, r0, r0, ror #13
    17e0:	000006e8 	andeq	r0, r0, r8, ror #13
    17e4:	01740003 	cmneq	r4, r3
    17e8:	0006e89f 	muleq	r6, pc, r8	; <UNPREDICTABLE>
    17ec:	0006f400 	andeq	pc, r6, r0, lsl #8
    17f0:	54000100 	strpl	r0, [r0], #-256	; 0xffffff00
	...
    1800:	000002ac 	andeq	r0, r0, ip, lsr #5
    1804:	000006f4 	strdeq	r0, [r0], -r4
    1808:	f4580001 			; <UNDEFINED> instruction: 0xf4580001
    180c:	28000006 	stmdacs	r0, {r1, r2}
    1810:	0a000007 	beq	1834 <__code_start__-0x67cc>
    1814:	5101f300 	mrspl	pc, SP_irq	; <UNPREDICTABLE>
    1818:	225001f3 	subscs	r0, r0, #-1073741764	; 0xc000003c
    181c:	009f1c31 	addseq	r1, pc, r1, lsr ip	; <UNPREDICTABLE>
    1820:	00000000 	andeq	r0, r0, r0
    1824:	01000000 	mrseq	r0, (UNDEF: 0)
    1828:	00000000 	andeq	r0, r0, r0
    182c:	00041000 	andeq	r1, r4, r0
    1830:	00046400 	andeq	r6, r4, r0, lsl #8
    1834:	57000100 	strpl	r0, [r0, -r0, lsl #2]
    1838:	000004c8 	andeq	r0, r0, r8, asr #9
    183c:	000004ec 	andeq	r0, r0, ip, ror #9
    1840:	30570001 	subscc	r0, r7, r1
    1844:	4c000005 	stcmi	0, cr0, [r0], {5}
    1848:	01000005 	tsteq	r0, r5
    184c:	00005700 	andeq	r5, r0, r0, lsl #14
    1850:	00000000 	andeq	r0, r0, r0
    1854:	00010000 	andeq	r0, r1, r0
    1858:	02b40000 	adcseq	r0, r4, #0
    185c:	02c00000 	sbceq	r0, r0, #0
    1860:	00010000 	andeq	r0, r1, r0
    1864:	0002c052 	andeq	ip, r2, r2, asr r0
    1868:	00072800 	andeq	r2, r7, r0, lsl #16
    186c:	91000300 	mrsls	r0, LR_irq
    1870:	00007dc8 	andeq	r7, r0, r8, asr #27
	...
    1880:	01000000 	mrseq	r0, (UNDEF: 0)
    1884:	00000001 	andeq	r0, r0, r1
	...
    1890:	00000464 	andeq	r0, r0, r4, ror #8
    1894:	0000047c 	andeq	r0, r0, ip, ror r4
    1898:	7c500001 	mrrcvc	0, 0, r0, r0, cr1	; <UNPREDICTABLE>
    189c:	a8000004 	stmdage	r0, {r2}
    18a0:	01000004 	tsteq	r0, r4
    18a4:	04ec5700 	strbteq	r5, [ip], #1792	; 0x700
    18a8:	05040000 	streq	r0, [r4, #-0]
    18ac:	00010000 	andeq	r0, r1, r0
    18b0:	00050450 	andeq	r0, r5, r0, asr r4
    18b4:	00053000 	andeq	r3, r5, r0
    18b8:	57000100 	strpl	r0, [r0, -r0, lsl #2]
    18bc:	00000594 	muleq	r0, r4, r5
    18c0:	00000594 	muleq	r0, r4, r5
    18c4:	94500001 	ldrbls	r0, [r0], #-1
    18c8:	9c000005 	stcls	0, cr0, [r0], {5}
    18cc:	01000005 	tsteq	r0, r5
    18d0:	05cc5700 	strbeq	r5, [ip, #1792]	; 0x700
    18d4:	05d00000 	ldrbeq	r0, [r0]
    18d8:	00010000 	andeq	r0, r1, r0
    18dc:	00060050 	andeq	r0, r6, r0, asr r0
    18e0:	00060400 	andeq	r0, r6, r0, lsl #8
    18e4:	50000100 	andpl	r0, r0, r0, lsl #2
    18e8:	00000634 	andeq	r0, r0, r4, lsr r6
    18ec:	00000638 	andeq	r0, r0, r8, lsr r6
    18f0:	7c500001 	mrrcvc	0, 0, r0, r0, cr1	; <UNPREDICTABLE>
    18f4:	80000006 	andhi	r0, r0, r6
    18f8:	01000006 	tsteq	r0, r6
    18fc:	06c05000 	strbeq	r5, [r0], r0
    1900:	06e00000 	strbteq	r0, [r0], r0
    1904:	00010000 	andeq	r0, r1, r0
    1908:	00000057 	andeq	r0, r0, r7, asr r0
    190c:	00000000 	andeq	r0, r0, r0
    1910:	00000200 	andeq	r0, r0, r0, lsl #4
    1914:	00000000 	andeq	r0, r0, r0
    1918:	08000003 	stmdaeq	r0, {r0, r1}
    191c:	02000003 	andeq	r0, r0, #3
    1920:	089f3000 	ldmeq	pc, {ip, sp}	; <UNPREDICTABLE>
    1924:	0c000003 	stceq	0, cr0, [r0], {3}
    1928:	01000003 	tsteq	r0, r3
    192c:	03145500 	tsteq	r4, #0, 10
    1930:	06e00000 	strbteq	r0, [r0], r0
    1934:	00010000 	andeq	r0, r1, r0
    1938:	00000055 	andeq	r0, r0, r5, asr r0
    193c:	00000000 	andeq	r0, r0, r0
    1940:	00000100 	andeq	r0, r0, r0, lsl #2
    1944:	00000000 	andeq	r0, r0, r0
    1948:	c0000000 	andgt	r0, r0, r0
    194c:	44000003 	strmi	r0, [r0], #-3
    1950:	01000004 	tsteq	r0, r4
    1954:	04445600 	strbeq	r5, [r4], #-1536	; 0xfffffa00
    1958:	04a80000 	strteq	r0, [r8], #0
    195c:	00030000 	andeq	r0, r3, r0
    1960:	a89f7e7b 	ldmge	pc, {r0, r1, r3, r4, r5, r6, r9, sl, fp, ip, sp, lr}	; <UNPREDICTABLE>
    1964:	cc000004 	stcgt	0, cr0, [r0], {4}
    1968:	01000004 	tsteq	r0, r4
    196c:	04cc5600 	strbeq	r5, [ip], #1536	; 0x600
    1970:	05300000 	ldreq	r0, [r0, #-0]!
    1974:	00030000 	andeq	r0, r3, r0
    1978:	309f7e7b 	addscc	r7, pc, fp, ror lr	; <UNPREDICTABLE>
    197c:	4c000005 	stcmi	0, cr0, [r0], {5}
    1980:	01000005 	tsteq	r0, r5
    1984:	00005600 	andeq	r5, r0, r0, lsl #12
	...
    1994:	00000078 	andeq	r0, r0, r8, ror r0
    1998:	0000009c 	muleq	r0, ip, r0
    199c:	9c500001 	mrrcls	0, 0, r0, r0, cr1	; <UNPREDICTABLE>
    19a0:	04000000 	streq	r0, [r0], #-0
    19a4:	03000001 	movweq	r0, #1
    19a8:	9f027000 	svcls	0x00027000
    19ac:	00000104 	andeq	r0, r0, r4, lsl #2
    19b0:	0000022c 	andeq	r0, r0, ip, lsr #4
    19b4:	01f30004 	mvnseq	r0, r4
    19b8:	00009f50 	andeq	r9, r0, r0, asr pc
	...
    19d0:	00780000 	rsbseq	r0, r8, r0
    19d4:	00e80000 	rsceq	r0, r8, r0
    19d8:	00010000 	andeq	r0, r1, r0
    19dc:	0000e851 	andeq	lr, r0, r1, asr r8
    19e0:	00015c00 	andeq	r5, r1, r0, lsl #24
    19e4:	55000100 	strpl	r0, [r0, #-256]	; 0xffffff00
    19e8:	0000015c 	andeq	r0, r0, ip, asr r1
    19ec:	00000160 	andeq	r0, r0, r0, ror #2
    19f0:	60510001 	subsvs	r0, r1, r1
    19f4:	b8000001 	stmdalt	r0, {r0}
    19f8:	01000001 	tsteq	r0, r1
    19fc:	01b85500 			; <UNDEFINED> instruction: 0x01b85500
    1a00:	01c80000 	biceq	r0, r8, r0
    1a04:	00010000 	andeq	r0, r1, r0
    1a08:	0001c851 	andeq	ip, r1, r1, asr r8
    1a0c:	0001ec00 	andeq	lr, r1, r0, lsl #24
    1a10:	55000100 	strpl	r0, [r0, #-256]	; 0xffffff00
    1a14:	000001ec 	andeq	r0, r0, ip, ror #3
    1a18:	00000200 	andeq	r0, r0, r0, lsl #4
    1a1c:	00510001 	subseq	r0, r1, r1
    1a20:	2c000002 	stccs	0, cr0, [r0], {2}
    1a24:	01000002 	tsteq	r0, r2
    1a28:	00005500 	andeq	r5, r0, r0, lsl #10
	...
    1a34:	00780000 	rsbseq	r0, r8, r0
    1a38:	008c0000 	addeq	r0, ip, r0
    1a3c:	00010000 	andeq	r0, r1, r0
    1a40:	00008c52 	andeq	r8, r0, r2, asr ip
    1a44:	00022c00 	andeq	r2, r2, r0, lsl #24
    1a48:	54000100 	strpl	r0, [r0], #-256	; 0xffffff00
	...
    1a58:	00000100 	andeq	r0, r0, r0, lsl #2
    1a5c:	00000000 	andeq	r0, r0, r0
    1a60:	00000078 	andeq	r0, r0, r8, ror r0
    1a64:	000000fc 	strdeq	r0, [r0], -ip
    1a68:	54530001 	ldrbpl	r0, [r3], #-1
    1a6c:	88000001 	stmdahi	r0, {r0}
    1a70:	01000001 	tsteq	r0, r1
    1a74:	01885300 	orreq	r5, r8, r0, lsl #6
    1a78:	01940000 	orrseq	r0, r4, r0
    1a7c:	00040000 	andeq	r0, r4, r0
    1a80:	9f5301f3 	svcls	0x005301f3
    1a84:	000001b8 			; <UNDEFINED> instruction: 0x000001b8
    1a88:	000001f0 	strdeq	r0, [r0], -r0	; <UNPREDICTABLE>
    1a8c:	f0530001 			; <UNDEFINED> instruction: 0xf0530001
    1a90:	07000001 	streq	r0, [r0, -r1]
    1a94:	01000002 	tsteq	r0, r2
    1a98:	02075c00 	andeq	r5, r7, #0, 24
    1a9c:	022c0000 	eoreq	r0, ip, #0
    1aa0:	00040000 	andeq	r0, r4, r0
    1aa4:	9f5301f3 	svcls	0x005301f3
	...
    1ab4:	00780000 	rsbseq	r0, r8, r0
    1ab8:	00940000 	addseq	r0, r4, r0
    1abc:	00020000 	andeq	r0, r2, r0
    1ac0:	00940091 	umullseq	r0, r4, r1, r0
    1ac4:	019b0000 	orrseq	r0, fp, r0
    1ac8:	00010000 	andeq	r0, r1, r0
    1acc:	0001b852 	andeq	fp, r1, r2, asr r8
    1ad0:	0001fc00 	andeq	pc, r1, r0, lsl #24
    1ad4:	52000100 	andpl	r0, r0, #0, 2
	...
    1ae0:	01000001 	tsteq	r0, r1
    1ae4:	00000001 	andeq	r0, r0, r1
    1ae8:	00000000 	andeq	r0, r0, r0
    1aec:	01010100 	mrseq	r0, (UNDEF: 17)
    1af0:	01000001 	tsteq	r0, r1
    1af4:	00000001 	andeq	r0, r0, r1
    1af8:	00000000 	andeq	r0, r0, r0
    1afc:	00940000 	addseq	r0, r4, r0
    1b00:	01040000 	mrseq	r0, (UNDEF: 4)
    1b04:	00040000 	andeq	r0, r4, r0
    1b08:	9f7fa091 	svcls	0x007fa091
    1b0c:	00000104 	andeq	r0, r0, r4, lsl #2
    1b10:	00000144 	andeq	r0, r0, r4, asr #2
    1b14:	44500001 	ldrbmi	r0, [r0], #-1
    1b18:	50000001 	andpl	r0, r0, r1
    1b1c:	03000001 	movweq	r0, #1
    1b20:	9f027100 	svcls	0x00027100
    1b24:	00000150 	andeq	r0, r0, r0, asr r1
    1b28:	00000154 	andeq	r0, r0, r4, asr r1
    1b2c:	54500001 	ldrbpl	r0, [r0], #-1
    1b30:	60000001 	andvs	r0, r0, r1
    1b34:	04000001 	streq	r0, [r0], #-1
    1b38:	7fa09100 	svcvc	0x00a09100
    1b3c:	0001609f 	muleq	r1, pc, r0	; <UNPREDICTABLE>
    1b40:	00017400 	andeq	r7, r1, r0, lsl #8
    1b44:	51000100 	mrspl	r0, (UNDEF: 16)
    1b48:	00000174 	andeq	r0, r0, r4, ror r1
    1b4c:	00000180 	andeq	r0, r0, r0, lsl #3
    1b50:	7f710003 	svcvc	0x00710003
    1b54:	0001809f 	muleq	r1, pc, r0	; <UNPREDICTABLE>
    1b58:	00018c00 	andeq	r8, r1, r0, lsl #24
    1b5c:	71000300 	mrsvc	r0, LR_irq
    1b60:	018c9f01 	orreq	r9, ip, r1, lsl #30
    1b64:	019b0000 	orrseq	r0, fp, r0
    1b68:	00010000 	andeq	r0, r1, r0
    1b6c:	0001b850 	andeq	fp, r1, r0, asr r8
    1b70:	0001b800 	andeq	fp, r1, r0, lsl #16
    1b74:	91000400 	tstls	r0, r0, lsl #8
    1b78:	b89f7fa0 	ldmlt	pc, {r5, r7, r8, r9, sl, fp, ip, sp, lr}	; <UNPREDICTABLE>
    1b7c:	c4000001 	strgt	r0, [r0], #-1
    1b80:	04000001 	streq	r0, [r0], #-1
    1b84:	7fa19100 	svcvc	0x00a19100
    1b88:	0001c49f 	muleq	r1, pc, r4	; <UNPREDICTABLE>
    1b8c:	0001c800 	andeq	ip, r1, r0, lsl #16
    1b90:	91000400 	tstls	r0, r0, lsl #8
    1b94:	c89f7fa0 	ldmgt	pc, {r5, r7, r8, r9, sl, fp, ip, sp, lr}	; <UNPREDICTABLE>
    1b98:	dc000001 	stcle	0, cr0, [r0], {1}
    1b9c:	01000001 	tsteq	r0, r1
    1ba0:	01dc5000 	bicseq	r5, ip, r0
    1ba4:	01ec0000 	mvneq	r0, r0
    1ba8:	00030000 	andeq	r0, r3, r0
    1bac:	ec9f7f70 	ldc	15, cr7, [pc], {112}	; 0x70
    1bb0:	2c000001 	stccs	0, cr0, [r0], {1}
    1bb4:	04000002 	streq	r0, [r0], #-2
    1bb8:	7fa09100 	svcvc	0x00a09100
    1bbc:	0000009f 	muleq	r0, pc, r0	; <UNPREDICTABLE>
	...
    1bc8:	00000101 	andeq	r0, r0, r1, lsl #2
	...
    1bd8:	00009800 	andeq	r9, r0, r0, lsl #16
    1bdc:	0000e400 	andeq	lr, r0, r0, lsl #8
    1be0:	5c000100 	stfpls	f0, [r0], {-0}
    1be4:	000000e4 	andeq	r0, r0, r4, ror #1
    1be8:	000000fc 	strdeq	r0, [r0], -ip
    1bec:	fc530001 	mrrc2	0, 0, r0, r3, cr1
    1bf0:	54000000 	strpl	r0, [r0], #-0
    1bf4:	01000001 	tsteq	r0, r1
    1bf8:	01545c00 	cmpeq	r4, r0, lsl #24
    1bfc:	01600000 	cmneq	r0, r0
    1c00:	00010000 	andeq	r0, r1, r0
    1c04:	00016053 	andeq	r6, r1, r3, asr r0
    1c08:	00017c00 	andeq	r7, r1, r0, lsl #24
    1c0c:	5c000100 	stfpls	f0, [r0], {-0}
    1c10:	000001b8 			; <UNDEFINED> instruction: 0x000001b8
    1c14:	000001c8 	andeq	r0, r0, r8, asr #3
    1c18:	c8530001 	ldmdagt	r3, {r0}^
    1c1c:	e4000001 	str	r0, [r0], #-1
    1c20:	01000001 	tsteq	r0, r1
    1c24:	01ec5c00 	mvneq	r5, r0, lsl #24
    1c28:	01f00000 	mvnseq	r0, r0
    1c2c:	00010000 	andeq	r0, r1, r0
    1c30:	0001f053 	andeq	pc, r1, r3, asr r0	; <UNPREDICTABLE>
    1c34:	00020700 	andeq	r0, r2, r0, lsl #14
    1c38:	5c000100 	stfpls	f0, [r0], {-0}
    1c3c:	00000207 	andeq	r0, r0, r7, lsl #4
    1c40:	0000022c 	andeq	r0, r0, ip, lsr #4
    1c44:	01f30004 	mvnseq	r0, r4
    1c48:	00009f53 	andeq	r9, r0, r3, asr pc
    1c4c:	00000000 	andeq	r0, r0, r0
    1c50:	01010000 	mrseq	r0, (UNDEF: 1)
    1c54:	00000001 	andeq	r0, r0, r1
    1c58:	00e40000 	rsceq	r0, r4, r0
    1c5c:	00f80000 	rscseq	r0, r8, r0
    1c60:	00020000 	andeq	r0, r2, r0
    1c64:	00f89f30 	rscseq	r9, r8, r0, lsr pc
    1c68:	01000000 	mrseq	r0, (UNDEF: 0)
    1c6c:	00020000 	andeq	r0, r2, r0
    1c70:	01049f31 	tsteq	r4, r1, lsr pc
    1c74:	01540000 	cmpeq	r4, r0
    1c78:	00010000 	andeq	r0, r1, r0
    1c7c:	00015456 	andeq	r5, r1, r6, asr r4
    1c80:	00015c00 	andeq	r5, r1, r0, lsl #24
    1c84:	30000200 	andcc	r0, r0, r0, lsl #4
    1c88:	0000009f 	muleq	r0, pc, r0	; <UNPREDICTABLE>
	...
    1c94:	00000101 	andeq	r0, r0, r1, lsl #2
    1c98:	3c000101 	stfccs	f0, [r0], {1}
    1c9c:	5c000000 	stcpl	0, cr0, [r0], {-0}
    1ca0:	01000000 	mrseq	r0, (UNDEF: 0)
    1ca4:	005c5000 	subseq	r5, ip, r0
    1ca8:	005c0000 	subseq	r0, ip, r0
    1cac:	00010000 	andeq	r0, r1, r0
    1cb0:	00005c52 	andeq	r5, r0, r2, asr ip
    1cb4:	00006400 	andeq	r6, r0, r0, lsl #8
    1cb8:	72000300 	andvc	r0, r0, #0, 6
    1cbc:	00649f01 	rsbeq	r9, r4, r1, lsl #30
    1cc0:	006c0000 	rsbeq	r0, ip, r0
    1cc4:	00010000 	andeq	r0, r1, r0
    1cc8:	00006c52 	andeq	r6, r0, r2, asr ip
    1ccc:	00007800 	andeq	r7, r0, r0, lsl #16
    1cd0:	72000300 	andvc	r0, r0, #0, 6
    1cd4:	00009f01 	andeq	r9, r0, r1, lsl #30
	...
    1ce0:	003c0000 	eorseq	r0, ip, r0
    1ce4:	00540000 	subseq	r0, r4, r0
    1ce8:	00010000 	andeq	r0, r1, r0
    1cec:	00005451 	andeq	r5, r0, r1, asr r4
    1cf0:	00007800 	andeq	r7, r0, r0, lsl #16
    1cf4:	f3000400 	vshl.u8	d0, d0, d0
    1cf8:	009f5101 	addseq	r5, pc, r1, lsl #2
	...
    1d08:	3c000101 	stfccs	f0, [r0], {1}
    1d0c:	54000000 	strpl	r0, [r0], #-0
    1d10:	01000000 	mrseq	r0, (UNDEF: 0)
    1d14:	00545200 	subseq	r5, r4, r0, lsl #4
    1d18:	00600000 	rsbeq	r0, r0, r0
    1d1c:	00010000 	andeq	r0, r1, r0
    1d20:	00006051 	andeq	r6, r0, r1, asr r0
    1d24:	00006400 	andeq	r6, r0, r0, lsl #8
    1d28:	71000300 	mrsvc	r0, LR_irq
    1d2c:	00649f01 	rsbeq	r9, r4, r1, lsl #30
    1d30:	00780000 	rsbseq	r0, r8, r0
    1d34:	00010000 	andeq	r0, r1, r0
    1d38:	00000051 	andeq	r0, r0, r1, asr r0
	...
    1d44:	00003c00 	andeq	r3, r0, r0, lsl #24
    1d48:	00005000 	andeq	r5, r0, r0
    1d4c:	53000100 	movwpl	r0, #256	; 0x100
    1d50:	00000050 	andeq	r0, r0, r0, asr r0
    1d54:	00000070 	andeq	r0, r0, r0, ror r0
    1d58:	00530001 	subseq	r0, r3, r1
	...
    1d6c:	00004400 	andeq	r4, r0, r0, lsl #8
    1d70:	00004c00 	andeq	r4, r0, r0, lsl #24
    1d74:	5c000100 	stfpls	f0, [r0], {-0}
    1d78:	0000004c 	andeq	r0, r0, ip, asr #32
    1d7c:	00000050 	andeq	r0, r0, r0, asr r0
    1d80:	00720008 	rsbseq	r0, r2, r8
    1d84:	231c0073 	tstcs	ip, #115	; 0x73
    1d88:	00509f01 	subseq	r9, r0, r1, lsl #30
    1d8c:	00580000 	subseq	r0, r8, r0
    1d90:	00090000 	andeq	r0, r9, r0
    1d94:	01f30072 	mvnseq	r0, r2, ror r0
    1d98:	01231c53 			; <UNDEFINED> instruction: 0x01231c53
    1d9c:	0000589f 	muleq	r0, pc, r8	; <UNPREDICTABLE>
    1da0:	00005c00 	andeq	r5, r0, r0, lsl #24
    1da4:	71000900 	tstvc	r0, r0, lsl #18
    1da8:	5301f300 	movwpl	pc, #4864	; 0x1300	; <UNPREDICTABLE>
    1dac:	9f02231c 	svcls	0x0002231c
    1db0:	0000005c 	andeq	r0, r0, ip, asr r0
    1db4:	00000078 	andeq	r0, r0, r8, ror r0
    1db8:	01f3000a 	mvnseq	r0, sl
    1dbc:	5301f352 	movwpl	pc, #4946	; 0x1352	; <UNPREDICTABLE>
    1dc0:	9f01231c 	svcls	0x0001231c
	...
    1dcc:	00500001 	subseq	r0, r0, r1
    1dd0:	00780000 	rsbseq	r0, r8, r0
    1dd4:	00010000 	andeq	r0, r1, r0
    1dd8:	00000050 	andeq	r0, r0, r0, asr r0
    1ddc:	00000000 	andeq	r0, r0, r0
    1de0:	01010000 	mrseq	r0, (UNDEF: 1)
    1de4:	14000000 	strne	r0, [r0], #-0
    1de8:	1c000000 	stcne	0, cr0, [r0], {-0}
    1dec:	01000000 	mrseq	r0, (UNDEF: 0)
    1df0:	001c5000 	andseq	r5, ip, r0
    1df4:	00240000 	eoreq	r0, r4, r0
    1df8:	00030000 	andeq	r0, r3, r0
    1dfc:	249f0170 	ldrcs	r0, [pc], #368	; 1e04 <__code_start__-0x61fc>
    1e00:	3c000000 	stccc	0, cr0, [r0], {-0}
    1e04:	01000000 	mrseq	r0, (UNDEF: 0)
    1e08:	00005000 	andeq	r5, r0, r0
	...
    1e14:	00140000 	andseq	r0, r4, r0
    1e18:	00180000 	andseq	r0, r8, r0
    1e1c:	00010000 	andeq	r0, r1, r0
    1e20:	00001851 	andeq	r1, r0, r1, asr r8
    1e24:	00003c00 	andeq	r3, r0, r0, lsl #24
    1e28:	f3000400 	vshl.u8	d0, d0, d0
    1e2c:	009f5101 	addseq	r5, pc, r1, lsl #2
	...
    1e38:	00001800 	andeq	r1, r0, r0, lsl #16
    1e3c:	00003c00 	andeq	r3, r0, r0, lsl #24
    1e40:	51000100 	mrspl	r0, (UNDEF: 16)
	...
    1e54:	00040000 	andeq	r0, r4, r0
    1e58:	00010000 	andeq	r0, r1, r0
    1e5c:	00000450 	andeq	r0, r0, r0, asr r4
    1e60:	00000c00 	andeq	r0, r0, r0, lsl #24
    1e64:	70000300 	andvc	r0, r0, r0, lsl #6
    1e68:	000c9f30 	andeq	r9, ip, r0, lsr pc
    1e6c:	00140000 	andseq	r0, r4, r0
    1e70:	00040000 	andeq	r0, r4, r0
    1e74:	9f5001f3 	svcls	0x005001f3
	...
    1e84:	0000022c 	andeq	r0, r0, ip, lsr #4
    1e88:	00000270 	andeq	r0, r0, r0, ror r2
    1e8c:	70500001 	subsvc	r0, r0, r1
    1e90:	90000002 	andls	r0, r0, r2
    1e94:	04000002 	streq	r0, [r0], #-2
    1e98:	5001f300 	andpl	pc, r1, r0, lsl #6
    1e9c:	0000009f 	muleq	r0, pc, r0	; <UNPREDICTABLE>
	...
    1ea8:	00022c00 	andeq	r2, r2, r0, lsl #24
    1eac:	00026c00 	andeq	r6, r2, r0, lsl #24
    1eb0:	51000100 	mrspl	r0, (UNDEF: 16)
    1eb4:	0000026c 	andeq	r0, r0, ip, ror #4
    1eb8:	00000290 	muleq	r0, r0, r2
    1ebc:	01f30004 	mvnseq	r0, r4
    1ec0:	00009f51 	andeq	r9, r0, r1, asr pc
	...
    1ed0:	00080000 	andeq	r0, r8, r0
    1ed4:	00010000 	andeq	r0, r1, r0
    1ed8:	00000850 	andeq	r0, r0, r0, asr r8
    1edc:	00002800 	andeq	r2, r0, r0, lsl #16
    1ee0:	50000100 	andpl	r0, r0, r0, lsl #2
	...
    1ef4:	0000000c 	andeq	r0, r0, ip
    1ef8:	0c510001 	mrrceq	0, 0, r0, r1, cr1
    1efc:	30000000 	andcc	r0, r0, r0
    1f00:	01000000 	mrseq	r0, (UNDEF: 0)
    1f04:	00005100 	andeq	r5, r0, r0, lsl #2
	...
    1f14:	001c0000 	andseq	r0, ip, r0
    1f18:	00010000 	andeq	r0, r1, r0
    1f1c:	00001c51 	andeq	r1, r0, r1, asr ip
    1f20:	00003400 	andeq	r3, r0, r0, lsl #8
    1f24:	f3000400 	vshl.u8	d0, d0, d0
    1f28:	009f5101 	addseq	r5, pc, r1, lsl #2
    1f2c:	00000000 	andeq	r0, r0, r0
    1f30:	02000000 	andeq	r0, r0, #0
    1f34:	00000000 	andeq	r0, r0, r0
    1f38:	00000101 	andeq	r0, r0, r1, lsl #2
    1f3c:	00000000 	andeq	r0, r0, r0
    1f40:	00000400 	andeq	r0, r0, r0, lsl #8
    1f44:	50000100 	andpl	r0, r0, r0, lsl #2
    1f48:	00000004 	andeq	r0, r0, r4
    1f4c:	0000001c 	andeq	r0, r0, ip, lsl r0
    1f50:	1c520001 	mrrcne	0, 0, r0, r2, cr1
    1f54:	24000000 	strcs	r0, [r0], #-0
    1f58:	01000000 	mrseq	r0, (UNDEF: 0)
    1f5c:	00245300 	eoreq	r5, r4, r0, lsl #6
    1f60:	00280000 	eoreq	r0, r8, r0
    1f64:	00030000 	andeq	r0, r3, r0
    1f68:	289f0173 	ldmcs	pc, {r0, r1, r4, r5, r6, r8}	; <UNPREDICTABLE>
    1f6c:	34000000 	strcc	r0, [r0], #-0
    1f70:	01000000 	mrseq	r0, (UNDEF: 0)
    1f74:	00005300 	andeq	r5, r0, r0, lsl #6
    1f78:	00000000 	andeq	r0, r0, r0
    1f7c:	00030000 	andeq	r0, r3, r0
    1f80:	00000000 	andeq	r0, r0, r0
    1f84:	00240000 	eoreq	r0, r4, r0
    1f88:	00010000 	andeq	r0, r1, r0
    1f8c:	00002451 	andeq	r2, r0, r1, asr r4
    1f90:	00003400 	andeq	r3, r0, r0, lsl #8
    1f94:	71000300 	mrsvc	r0, LR_irq
    1f98:	00009f7f 	andeq	r9, r0, pc, ror pc
	...
    1fa4:	00100000 	andseq	r0, r0, r0
    1fa8:	001c0000 	andseq	r0, ip, r0
    1fac:	00010000 	andeq	r0, r1, r0
    1fb0:	0000245c 	andeq	r2, r0, ip, asr r4
    1fb4:	00003400 	andeq	r3, r0, r0, lsl #8
    1fb8:	52000100 	andpl	r0, r0, #0, 2
	...
    1fc4:	00030300 	andeq	r0, r3, r0, lsl #6
    1fc8:	00009ba8 	andeq	r9, r0, r8, lsr #23
    1fcc:	00009ba8 	andeq	r9, r0, r8, lsr #23
    1fd0:	a8500001 	ldmdage	r0, {r0}^
    1fd4:	d400009b 	strle	r0, [r0], #-155	; 0xffffff65
    1fd8:	0400009b 	streq	r0, [r0], #-155	; 0xffffff65
    1fdc:	5001f300 	andpl	pc, r1, r0, lsl #6
    1fe0:	0000009f 	muleq	r0, pc, r0	; <UNPREDICTABLE>
    1fe4:	00000000 	andeq	r0, r0, r0
    1fe8:	03030000 	movweq	r0, #12288	; 0x3000
    1fec:	009ba800 	addseq	sl, fp, r0, lsl #16
    1ff0:	009ba800 	addseq	sl, fp, r0, lsl #16
    1ff4:	51000100 	mrspl	r0, (UNDEF: 16)
    1ff8:	00009ba8 	andeq	r9, r0, r8, lsr #23
    1ffc:	00009bd4 	ldrdeq	r9, [r0], -r4
    2000:	01f30004 	mvnseq	r0, r4
    2004:	00009f51 	andeq	r9, r0, r1, asr pc
    2008:	00000000 	andeq	r0, r0, r0
    200c:	03000000 	movweq	r0, #0
    2010:	00000003 	andeq	r0, r0, r3
    2014:	00009ba8 	andeq	r9, r0, r8, lsr #23
    2018:	00009ba8 	andeq	r9, r0, r8, lsr #23
    201c:	a8520001 	ldmdage	r2, {r0}^
    2020:	b000009b 	mullt	r0, fp, r0
    2024:	0100009b 	swpeq	r0, fp, [r0]	; <UNPREDICTABLE>
    2028:	9bb05200 	blls	fec16830 <__bss_end__+0xfec0bcd8>
    202c:	9bd40000 	blls	ff502034 <__bss_end__+0xff4f74dc>
    2030:	00030000 	andeq	r0, r3, r0
    2034:	009f0172 	addseq	r0, pc, r2, ror r1	; <UNPREDICTABLE>
    2038:	00000000 	andeq	r0, r0, r0
    203c:	02000000 	andeq	r0, r0, #0
    2040:	00000101 	andeq	r0, r0, r1, lsl #2
    2044:	a8000000 	stmdage	r0, {}	; <UNPREDICTABLE>
    2048:	b400009b 	strlt	r0, [r0], #-155	; 0xffffff65
    204c:	0100009b 	swpeq	r0, fp, [r0]	; <UNPREDICTABLE>
    2050:	9bb45000 	blls	fed16058 <__bss_end__+0xfed0b500>
    2054:	9bb80000 	blls	fee0205c <__bss_end__+0xfedf7504>
    2058:	00030000 	andeq	r0, r3, r0
    205c:	b89f0170 	ldmlt	pc, {r4, r5, r6, r8}	; <UNPREDICTABLE>
    2060:	c800009b 	stmdagt	r0, {r0, r1, r3, r4, r7}
    2064:	0100009b 	swpeq	r0, fp, [r0]	; <UNPREDICTABLE>
    2068:	9bcc5000 	blls	ff316070 <__bss_end__+0xff30b518>
    206c:	9bd00000 	blls	ff402074 <__bss_end__+0xff3f751c>
    2070:	00010000 	andeq	r0, r1, r0
    2074:	00000050 	andeq	r0, r0, r0, asr r0
    2078:	00000000 	andeq	r0, r0, r0
    207c:	00000200 	andeq	r0, r0, r0, lsl #4
    2080:	a8000000 	stmdage	r0, {}	; <UNPREDICTABLE>
    2084:	b800009b 	stmdalt	r0, {r0, r1, r3, r4, r7}
    2088:	0100009b 	swpeq	r0, fp, [r0]	; <UNPREDICTABLE>
    208c:	9bb85100 	blls	fee16494 <__bss_end__+0xfee0b93c>
    2090:	9bbc0000 	blls	fef02098 <__bss_end__+0xfeef7540>
    2094:	00030000 	andeq	r0, r3, r0
    2098:	bc9f0171 	ldflts	f0, [pc], {113}	; 0x71
    209c:	d400009b 	strle	r0, [r0], #-155	; 0xffffff65
    20a0:	0100009b 	swpeq	r0, fp, [r0]	; <UNPREDICTABLE>
    20a4:	00005100 	andeq	r5, r0, r0, lsl #2
	...
    20b4:	00e80000 	rsceq	r0, r8, r0
    20b8:	01000000 	mrseq	r0, (UNDEF: 0)
    20bc:	00010000 	andeq	r0, r1, r0
    20c0:	00010050 	andeq	r0, r1, r0, asr r0
    20c4:	00011000 	andeq	r1, r1, r0
    20c8:	f3000400 	vshl.u8	d0, d0, d0
    20cc:	109f5001 	addsne	r5, pc, r1
    20d0:	14000001 	strne	r0, [r0], #-1
    20d4:	01000001 	tsteq	r0, r1
    20d8:	01145000 	tsteq	r4, r0
    20dc:	011c0000 	tsteq	ip, r0
    20e0:	00040000 	andeq	r0, r4, r0
    20e4:	9f5001f3 	svcls	0x005001f3
	...
    20f0:	00000001 	andeq	r0, r0, r1
    20f4:	00f40000 	rscseq	r0, r4, r0
    20f8:	01000000 	mrseq	r0, (UNDEF: 0)
    20fc:	000b0000 	andeq	r0, fp, r0
    2100:	25350070 	ldrcs	r0, [r5, #-112]!	; 0xffffff90
    2104:	8080b423 	addhi	fp, r0, r3, lsr #8
    2108:	009f0281 	addseq	r0, pc, r1, lsl #5
    210c:	03000001 	movweq	r0, #1
    2110:	01000001 	tsteq	r0, r1
    2114:	01035000 	mrseq	r5, (UNDEF: 3)
    2118:	01100000 	tsteq	r0, r0
    211c:	000c0000 	andeq	r0, ip, r0
    2120:	355001f3 	ldrbcc	r0, [r0, #-499]	; 0xfffffe0d
    2124:	80b42325 	adcshi	r2, r4, r5, lsr #6
    2128:	9f028180 	svcls	0x00028180
	...
    2134:	00f80000 	rscseq	r0, r8, r0
    2138:	01100000 	tsteq	r0, r0
    213c:	00010000 	andeq	r0, r1, r0
    2140:	00000054 	andeq	r0, r0, r4, asr r0
	...
    2150:	0000cc00 	andeq	ip, r0, r0, lsl #24
    2154:	0000db00 	andeq	sp, r0, r0, lsl #22
    2158:	50000100 	andpl	r0, r0, r0, lsl #2
    215c:	000000db 	ldrdeq	r0, [r0], -fp
    2160:	000000e0 	andeq	r0, r0, r0, ror #1
    2164:	01f30004 	mvnseq	r0, r4
    2168:	00e09f50 	rsceq	r9, r0, r0, asr pc
    216c:	00e30000 	rsceq	r0, r3, r0
    2170:	00010000 	andeq	r0, r1, r0
    2174:	0000e350 	andeq	lr, r0, r0, asr r3
    2178:	0000e800 	andeq	lr, r0, r0, lsl #16
    217c:	f3000400 	vshl.u8	d0, d0, d0
    2180:	009f5001 	addseq	r5, pc, r1
	...
    2190:	cc000000 	stcgt	0, cr0, [r0], {-0}
    2194:	db000000 	blle	219c <__code_start__-0x5e64>
    2198:	01000000 	mrseq	r0, (UNDEF: 0)
    219c:	00db5100 	sbcseq	r5, fp, r0, lsl #2
    21a0:	00e00000 	rsceq	r0, r0, r0
    21a4:	00040000 	andeq	r0, r4, r0
    21a8:	9f5101f3 	svcls	0x005101f3
    21ac:	000000e0 	andeq	r0, r0, r0, ror #1
    21b0:	000000e3 	andeq	r0, r0, r3, ror #1
    21b4:	e3510001 	cmp	r1, #1
    21b8:	e8000000 	stmda	r0, {}	; <UNPREDICTABLE>
    21bc:	04000000 	streq	r0, [r0], #-0
    21c0:	5101f300 	mrspl	pc, SP_irq	; <UNPREDICTABLE>
    21c4:	0000009f 	muleq	r0, pc, r0	; <UNPREDICTABLE>
	...
    21d0:	0000bc00 	andeq	fp, r0, r0, lsl #24
    21d4:	0000c700 	andeq	ip, r0, r0, lsl #14
    21d8:	50000100 	andpl	r0, r0, r0, lsl #2
    21dc:	000000c7 	andeq	r0, r0, r7, asr #1
    21e0:	000000cc 	andeq	r0, r0, ip, asr #1
    21e4:	01f30004 	mvnseq	r0, r4
    21e8:	00009f50 	andeq	r9, r0, r0, asr pc
	...
    21f4:	00980000 	addseq	r0, r8, r0
    21f8:	00b00000 	adcseq	r0, r0, r0
    21fc:	00010000 	andeq	r0, r1, r0
    2200:	0000b050 	andeq	fp, r0, r0, asr r0
    2204:	0000bc00 	andeq	fp, r0, r0, lsl #24
    2208:	f3000400 	vshl.u8	d0, d0, d0
    220c:	009f5001 	addseq	r5, pc, r1
	...
    2218:	74000000 	strvc	r0, [r0], #-0
    221c:	8c000000 	stchi	0, cr0, [r0], {-0}
    2220:	01000000 	mrseq	r0, (UNDEF: 0)
    2224:	008c5000 	addeq	r5, ip, r0
    2228:	00980000 	addseq	r0, r8, r0
    222c:	00040000 	andeq	r0, r4, r0
    2230:	9f5001f3 	svcls	0x005001f3
	...
    2240:	00000064 	andeq	r0, r0, r4, rrx
    2244:	0000006f 	andeq	r0, r0, pc, rrx
    2248:	6f500001 	svcvs	0x00500001
    224c:	74000000 	strvc	r0, [r0], #-0
    2250:	04000000 	streq	r0, [r0], #-0
    2254:	5001f300 	andpl	pc, r1, r0, lsl #6
    2258:	0000009f 	muleq	r0, pc, r0	; <UNPREDICTABLE>
	...
    2268:	00003800 	andeq	r3, r0, r0, lsl #16
    226c:	50000100 	andpl	r0, r0, r0, lsl #2
    2270:	00000038 	andeq	r0, r0, r8, lsr r0
    2274:	00000064 	andeq	r0, r0, r4, rrx
    2278:	01f30004 	mvnseq	r0, r4
    227c:	00009f50 	andeq	r9, r0, r0, asr pc
	...
    228c:	00470000 	subeq	r0, r7, r0
    2290:	00010000 	andeq	r0, r1, r0
    2294:	00004751 	andeq	r4, r0, r1, asr r7
    2298:	00006400 	andeq	r6, r0, r0, lsl #8
    229c:	f3000400 	vshl.u8	d0, d0, d0
    22a0:	009f5101 	addseq	r5, pc, r1, lsl #2
	...
    22ac:	00003400 	andeq	r3, r0, r0, lsl #8
    22b0:	00006400 	andeq	r6, r0, r0, lsl #8
    22b4:	54000100 	strpl	r0, [r0], #-256	; 0xffffff00
	...
    22c0:	00400000 	subeq	r0, r0, r0
    22c4:	00640000 	rsbeq	r0, r4, r0
    22c8:	00010000 	andeq	r0, r1, r0
    22cc:	00000056 	andeq	r0, r0, r6, asr r0
	...
    22d8:	00000101 	andeq	r0, r0, r1, lsl #2
    22dc:	00004800 	andeq	r4, r0, r0, lsl #16
    22e0:	00005000 	andeq	r5, r0, r0
    22e4:	50000100 	andpl	r0, r0, r0, lsl #2
    22e8:	00000050 	andeq	r0, r0, r0, asr r0
    22ec:	00000050 	andeq	r0, r0, r0, asr r0
    22f0:	50510001 	subspl	r0, r1, r1
    22f4:	54000000 	strpl	r0, [r0], #-0
    22f8:	09000000 	stmdbeq	r0, {}	; <UNPREDICTABLE>
    22fc:	74007500 	strvc	r7, [r0], #-1280	; 0xfffffb00
    2300:	00712400 	rsbseq	r2, r1, r0, lsl #8
    2304:	00549f21 	subseq	r9, r4, r1, lsr #30
    2308:	005b0000 	subseq	r0, fp, r0
    230c:	00010000 	andeq	r0, r1, r0
    2310:	00000051 	andeq	r0, r0, r1, asr r0
    2314:	00000000 	andeq	r0, r0, r0
	...

Disassembly of section .debug_aranges:

00000000 <.debug_aranges>:
   0:	0000001c 	andeq	r0, r0, ip, lsl r0
   4:	00000002 	andeq	r0, r0, r2
   8:	00040000 	andeq	r0, r4, r0
   c:	00000000 	andeq	r0, r0, r0
  10:	00008034 	andeq	r8, r0, r4, lsr r0
  14:	00000240 	andeq	r0, r0, r0, asr #4
	...
  20:	0000001c 	andeq	r0, r0, ip, lsl r0
  24:	07230002 	streq	r0, [r3, -r2]!
  28:	00040000 	andeq	r0, r4, r0
  2c:	00000000 	andeq	r0, r0, r0
  30:	00008408 	andeq	r8, r0, r8, lsl #8
  34:	0000016c 	andeq	r0, r0, ip, ror #2
	...
  40:	0000001c 	andeq	r0, r0, ip, lsl r0
  44:	0a970002 	beq	fe5c0054 <__bss_end__+0xfe5b54fc>
  48:	00040000 	andeq	r0, r4, r0
  4c:	00000000 	andeq	r0, r0, r0
  50:	00008574 	andeq	r8, r0, r4, ror r5
  54:	00000074 	andeq	r0, r0, r4, ror r0
	...
  60:	0000001c 	andeq	r0, r0, ip, lsl r0
  64:	0c5c0002 	mrrceq	0, 0, r0, ip, cr2
  68:	00040000 	andeq	r0, r4, r0
  6c:	00000000 	andeq	r0, r0, r0
  70:	000085e8 	andeq	r8, r0, r8, ror #11
  74:	000001ec 	andeq	r0, r0, ip, ror #3
	...
  80:	0000001c 	andeq	r0, r0, ip, lsl r0
  84:	13770002 	cmnne	r7, #2
  88:	00040000 	andeq	r0, r4, r0
  8c:	00000000 	andeq	r0, r0, r0
  90:	000087d4 	ldrdeq	r8, [r0], -r4
  94:	00000618 	andeq	r0, r0, r8, lsl r6
	...
  a0:	0000001c 	andeq	r0, r0, ip, lsl r0
  a4:	2b120002 	blcs	4800b4 <__bss_end__+0x47555c>
  a8:	00040000 	andeq	r0, r4, r0
  ac:	00000000 	andeq	r0, r0, r0
  b0:	00008dec 	andeq	r8, r0, ip, ror #27
  b4:	00000058 	andeq	r0, r0, r8, asr r0
	...
  c0:	0000001c 	andeq	r0, r0, ip, lsl r0
  c4:	2c920002 	ldccs	0, cr0, [r2], {2}
  c8:	00040000 	andeq	r0, r4, r0
  cc:	00000000 	andeq	r0, r0, r0
  d0:	00008e44 	andeq	r8, r0, r4, asr #28
  d4:	00000020 	andeq	r0, r0, r0, lsr #32
	...
  e0:	0000001c 	andeq	r0, r0, ip, lsl r0
  e4:	2d590002 	ldclcs	0, cr0, [r9, #-8]
  e8:	00040000 	andeq	r0, r4, r0
  ec:	00000000 	andeq	r0, r0, r0
  f0:	00008e64 	andeq	r8, r0, r4, ror #28
  f4:	00000020 	andeq	r0, r0, r0, lsr #32
	...
 100:	0000001c 	andeq	r0, r0, ip, lsl r0
 104:	2e2a0002 	cdpcs	0, 2, cr0, cr10, cr2, {0}
 108:	00040000 	andeq	r0, r4, r0
 10c:	00000000 	andeq	r0, r0, r0
 110:	00008e84 	andeq	r8, r0, r4, lsl #29
 114:	00000060 	andeq	r0, r0, r0, rrx
	...
 120:	0000001c 	andeq	r0, r0, ip, lsl r0
 124:	2fe00002 	svccs	0x00e00002
 128:	00040000 	andeq	r0, r4, r0
 12c:	00000000 	andeq	r0, r0, r0
 130:	00008ee4 	andeq	r8, r0, r4, ror #29
 134:	00000034 	andeq	r0, r0, r4, lsr r0
	...
 140:	0000001c 	andeq	r0, r0, ip, lsl r0
 144:	30d70002 	sbcscc	r0, r7, r2
 148:	00040000 	andeq	r0, r4, r0
 14c:	00000000 	andeq	r0, r0, r0
 150:	00008f18 	andeq	r8, r0, r8, lsl pc
 154:	0000003c 	andeq	r0, r0, ip, lsr r0
	...
 160:	0000001c 	andeq	r0, r0, ip, lsl r0
 164:	31f80002 	mvnscc	r0, r2
 168:	00040000 	andeq	r0, r4, r0
 16c:	00000000 	andeq	r0, r0, r0
 170:	00008f54 	andeq	r8, r0, r4, asr pc
 174:	0000001c 	andeq	r0, r0, ip, lsl r0
	...
 180:	0000001c 	andeq	r0, r0, ip, lsl r0
 184:	32e90002 	rsccc	r0, r9, #2
 188:	00040000 	andeq	r0, r4, r0
 18c:	00000000 	andeq	r0, r0, r0
 190:	00008f70 	andeq	r8, r0, r0, ror pc
 194:	0000003c 	andeq	r0, r0, ip, lsr r0
	...
 1a0:	0000001c 	andeq	r0, r0, ip, lsl r0
 1a4:	34100002 	ldrcc	r0, [r0], #-2
 1a8:	00040000 	andeq	r0, r4, r0
 1ac:	00000000 	andeq	r0, r0, r0
 1b0:	00008fac 	andeq	r8, r0, ip, lsr #31
 1b4:	00000060 	andeq	r0, r0, r0, rrx
	...
 1c0:	0000001c 	andeq	r0, r0, ip, lsl r0
 1c4:	35c60002 	strbcc	r0, [r6, #2]
 1c8:	00040000 	andeq	r0, r4, r0
 1cc:	00000000 	andeq	r0, r0, r0
 1d0:	0000900c 	andeq	r9, r0, ip
 1d4:	0000003c 	andeq	r0, r0, ip, lsr r0
	...
 1e0:	0000001c 	andeq	r0, r0, ip, lsl r0
 1e4:	36ed0002 	strbtcc	r0, [sp], r2
 1e8:	00040000 	andeq	r0, r4, r0
 1ec:	00000000 	andeq	r0, r0, r0
 1f0:	00009048 	andeq	r9, r0, r8, asr #32
 1f4:	0000003c 	andeq	r0, r0, ip, lsr r0
	...
 200:	0000001c 	andeq	r0, r0, ip, lsl r0
 204:	38140002 	ldmdacc	r4, {r1}
 208:	00040000 	andeq	r0, r4, r0
 20c:	00000000 	andeq	r0, r0, r0
 210:	00009084 	andeq	r9, r0, r4, lsl #1
 214:	0000003c 	andeq	r0, r0, ip, lsr r0
	...
 220:	0000001c 	andeq	r0, r0, ip, lsl r0
 224:	393b0002 	ldmdbcc	fp!, {r1}
 228:	00040000 	andeq	r0, r4, r0
 22c:	00000000 	andeq	r0, r0, r0
 230:	000090c0 	andeq	r9, r0, r0, asr #1
 234:	00000040 	andeq	r0, r0, r0, asr #32
	...
 240:	0000001c 	andeq	r0, r0, ip, lsl r0
 244:	3a7b0002 	bcc	1ec0254 <__bss_end__+0x1eb56fc>
 248:	00040000 	andeq	r0, r4, r0
 24c:	00000000 	andeq	r0, r0, r0
 250:	00009100 	andeq	r9, r0, r0, lsl #2
 254:	0000007c 	andeq	r0, r0, ip, ror r0
	...
 260:	0000001c 	andeq	r0, r0, ip, lsl r0
 264:	3c520002 	mrrccc	0, 0, r0, r2, cr2
 268:	00040000 	andeq	r0, r4, r0
 26c:	00000000 	andeq	r0, r0, r0
 270:	0000917c 	andeq	r9, r0, ip, ror r1
 274:	0000002c 	andeq	r0, r0, ip, lsr #32
	...
 280:	0000001c 	andeq	r0, r0, ip, lsl r0
 284:	3d640002 	stclcc	0, cr0, [r4, #-8]!
 288:	00040000 	andeq	r0, r4, r0
 28c:	00000000 	andeq	r0, r0, r0
 290:	000091a8 	andeq	r9, r0, r8, lsr #3
 294:	00000084 	andeq	r0, r0, r4, lsl #1
	...
 2a0:	0000001c 	andeq	r0, r0, ip, lsl r0
 2a4:	3f680002 	svccc	0x00680002
 2a8:	00040000 	andeq	r0, r4, r0
 2ac:	00000000 	andeq	r0, r0, r0
 2b0:	0000922c 	andeq	r9, r0, ip, lsr #4
 2b4:	000001f0 	strdeq	r0, [r0], -r0	; <UNPREDICTABLE>
	...
 2c0:	0000001c 	andeq	r0, r0, ip, lsl r0
 2c4:	45390002 	ldrmi	r0, [r9, #-2]!
 2c8:	00040000 	andeq	r0, r4, r0
 2cc:	00000000 	andeq	r0, r0, r0
 2d0:	0000941c 	andeq	r9, r0, ip, lsl r4
 2d4:	00000728 	andeq	r0, r0, r8, lsr #14
	...
 2e0:	0000001c 	andeq	r0, r0, ip, lsl r0
 2e4:	4f720002 	svcmi	0x00720002
 2e8:	00040000 	andeq	r0, r4, r0
 2ec:	00000000 	andeq	r0, r0, r0
 2f0:	00009b44 	andeq	r9, r0, r4, asr #22
 2f4:	00000030 	andeq	r0, r0, r0, lsr r0
	...
 300:	0000001c 	andeq	r0, r0, ip, lsl r0
 304:	502b0002 	eorpl	r0, fp, r2
 308:	00040000 	andeq	r0, r4, r0
 30c:	00000000 	andeq	r0, r0, r0
 310:	00009b74 	andeq	r9, r0, r4, ror fp
 314:	00000034 	andeq	r0, r0, r4, lsr r0
	...
 320:	0000001c 	andeq	r0, r0, ip, lsl r0
 324:	51240002 			; <UNDEFINED> instruction: 0x51240002
 328:	00040000 	andeq	r0, r4, r0
 32c:	00000000 	andeq	r0, r0, r0
 330:	00009ba8 	andeq	r9, r0, r8, lsr #23
 334:	0000002c 	andeq	r0, r0, ip, lsr #32
	...
 340:	0000001c 	andeq	r0, r0, ip, lsl r0
 344:	52340002 	eorspl	r0, r4, #2
 348:	00040000 	andeq	r0, r4, r0
 34c:	00000000 	andeq	r0, r0, r0
 350:	00009bec 	andeq	r9, r0, ip, ror #23
 354:	0000011c 	andeq	r0, r0, ip, lsl r1
	...

Disassembly of section .debug_line:

00000000 <.debug_line>:
       0:	0000030a 	andeq	r0, r0, sl, lsl #6
       4:	01370003 	teqeq	r7, r3
       8:	01020000 	mrseq	r0, (UNDEF: 2)
       c:	000d0efb 	strdeq	r0, [sp], -fp
      10:	01010101 	tsteq	r1, r1, lsl #2
      14:	01000000 	mrseq	r0, (UNDEF: 0)
      18:	2f010000 	svccs	0x00010000
      1c:	656d6f68 	strbvs	r6, [sp, #-3944]!	; 0xfffff098
      20:	676e652f 	strbvs	r6, [lr, -pc, lsr #10]!
      24:	2f72656c 	svccs	0x0072656c
      28:	73616c63 	cmnvc	r1, #25344	; 0x6300
      2c:	73632f73 	cmnvc	r3, #460	; 0x1cc
      30:	65303431 	ldrvs	r3, [r0, #-1073]!	; 0xfffffbcf
      34:	7732322d 	ldrvc	r3, [r2, -sp, lsr #4]!
      38:	2f2f6e69 	svccs	0x002f6e69
      3c:	7062696c 	rsbvc	r6, r2, ip, ror #18
      40:	696c2f69 	stmdbvs	ip!, {r0, r3, r5, r6, r8, r9, sl, fp, sp}^
      44:	2f006362 	svccs	0x00006362
      48:	656d6f68 	strbvs	r6, [sp, #-3944]!	; 0xfffff098
      4c:	676e652f 	strbvs	r6, [lr, -pc, lsr #10]!
      50:	2f72656c 	svccs	0x0072656c
      54:	73616c63 	cmnvc	r1, #25344	; 0x6300
      58:	73632f73 	cmnvc	r3, #460	; 0x1cc
      5c:	65303431 	ldrvs	r3, [r0, #-1073]!	; 0xfffffbcf
      60:	7732322d 	ldrvc	r3, [r2, -sp, lsr #4]!
      64:	2f2f6e69 	svccs	0x002f6e69
      68:	7062696c 	rsbvc	r6, r2, ip, ror #18
      6c:	6e692f69 	cdpvs	15, 6, cr2, cr9, cr9, {3}
      70:	64756c63 	ldrbtvs	r6, [r5], #-3171	; 0xfffff39d
      74:	752f0065 	strvc	r0, [pc, #-101]!	; 17 <__code_start__-0x7fe9>
      78:	732f7273 			; <UNDEFINED> instruction: 0x732f7273
      7c:	65726168 	ldrbvs	r6, [r2, #-360]!	; 0xfffffe98
      80:	6363672f 	cmnvs	r3, #12320768	; 0xbc0000
      84:	6d72612d 	ldfvse	f6, [r2, #-180]!	; 0xffffff4c
      88:	6e6f6e2d 	cdpvs	14, 6, cr6, cr15, cr13, {1}
      8c:	61652d65 	cmnvs	r5, r5, ror #26
      90:	312d6962 			; <UNDEFINED> instruction: 0x312d6962
      94:	2d332e30 	ldccs	14, cr2, [r3, #-192]!	; 0xffffff40
      98:	31323032 	teqcc	r2, r2, lsr r0
      9c:	2f30312e 	svccs	0x0030312e
      a0:	2f62696c 	svccs	0x0062696c
      a4:	2f636367 	svccs	0x00636367
      a8:	2d6d7261 	sfmcs	f7, 2, [sp, #-388]!	; 0xfffffe7c
      ac:	656e6f6e 	strbvs	r6, [lr, #-3950]!	; 0xfffff092
      b0:	6261652d 	rsbvs	r6, r1, #188743680	; 0xb400000
      b4:	30312f69 	eorscc	r2, r1, r9, ror #30
      b8:	312e332e 			; <UNDEFINED> instruction: 0x312e332e
      bc:	636e692f 	cmnvs	lr, #770048	; 0xbc000
      c0:	6564756c 	strbvs	r7, [r4, #-1388]!	; 0xfffffa94
      c4:	65760000 	ldrbvs	r0, [r6, #-0]!
      c8:	726f7463 	rsbvc	r7, pc, #1660944384	; 0x63000000
      cc:	7361622d 	cmnvc	r1, #-805306366	; 0xd0000002
      d0:	00682e65 	rsbeq	r2, r8, r5, ror #28
      d4:	62000000 	andvs	r0, r0, #0
      d8:	732d7469 			; <UNDEFINED> instruction: 0x732d7469
      dc:	6f707075 	svcvs	0x00707075
      e0:	682e7472 	stmdavs	lr!, {r1, r4, r5, r6, sl, ip, sp, lr}
      e4:	00000100 	andeq	r0, r0, r0, lsl #2
      e8:	2d6d7361 	stclcs	3, cr7, [sp, #-388]!	; 0xfffffe7c
      ec:	706c6568 	rsbvc	r6, ip, r8, ror #10
      f0:	2e737265 	cdpcs	2, 7, cr7, cr3, cr5, {3}
      f4:	00020068 	andeq	r0, r2, r8, rrx
      f8:	69727400 	ldmdbvs	r2!, {sl, ip, sp, lr}^
      fc:	6c616976 			; <UNDEFINED> instruction: 0x6c616976
     100:	2e736f2d 	cdpcs	15, 7, cr6, cr3, cr13, {1}
     104:	00000063 	andeq	r0, r0, r3, rrx
     108:	67657200 	strbvs	r7, [r5, -r0, lsl #4]!
     10c:	6974752d 	ldmdbvs	r4!, {r0, r2, r3, r5, r8, sl, ip, sp, lr}^
     110:	00682e6c 	rsbeq	r2, r8, ip, ror #28
     114:	73000000 	movwvc	r0, #0
     118:	6e696474 	mcrvs	4, 3, r6, cr9, cr4, {3}
     11c:	63672d74 	cmnvs	r7, #116, 26	; 0x1d00
     120:	00682e63 	rsbeq	r2, r8, r3, ror #28
     124:	74000003 	strvc	r0, [r0], #-3
     128:	69766972 	ldmdbvs	r6!, {r1, r4, r5, r6, r8, fp, sp, lr}^
     12c:	6f2d6c61 	svcvs	0x002d6c61
     130:	00682e73 	rsbeq	r2, r8, r3, ror lr
     134:	72000000 	andvc	r0, r0, #0
     138:	682e6970 	stmdavs	lr!, {r4, r5, r6, r8, fp, sp, lr}
     13c:	00000200 	andeq	r0, r0, r0, lsl #4
     140:	00370500 	eorseq	r0, r7, r0, lsl #10
     144:	80340205 	eorshi	r0, r4, r5, lsl #4
     148:	16030000 	strne	r0, [r3], -r0
     14c:	05010601 	streq	r0, [r1, #-1537]	; 0xfffff9ff
     150:	014b0605 	cmpeq	fp, r5, lsl #12
     154:	02002e06 	andeq	r2, r0, #6, 28	; 0x60
     158:	2e060204 	cdpcs	2, 0, cr0, cr6, cr4, {0}
     15c:	02040200 	andeq	r0, r4, #0, 4
     160:	04020001 	streq	r0, [r2], #-1
     164:	02001402 	andeq	r1, r0, #33554432	; 0x2000000
     168:	04130204 	ldreq	r0, [r3], #-516	; 0xfffffdfc
     16c:	00010502 	andeq	r0, r1, r2, lsl #10
     170:	03020402 	movweq	r0, #9218	; 0x2402
     174:	0505011e 	streq	r0, [r5, #-286]	; 0xfffffee2
     178:	02040200 	andeq	r0, r4, #0, 4
     17c:	04020013 	streq	r0, [r2], #-19	; 0xffffffed
     180:	02000102 	andeq	r0, r0, #-2147483648	; 0x80000000
     184:	00010204 	andeq	r0, r1, r4, lsl #4
     188:	01020402 	tsteq	r2, r2, lsl #8
     18c:	02040200 	andeq	r0, r4, #0, 4
     190:	04020013 	streq	r0, [r2], #-19	; 0xffffffed
     194:	02000102 	andeq	r0, r0, #-2147483648	; 0x80000000
     198:	00010204 	andeq	r0, r1, r4, lsl #4
     19c:	01020402 	tsteq	r2, r2, lsl #8
     1a0:	02040200 	andeq	r0, r4, #0, 4
     1a4:	04020013 	streq	r0, [r2], #-19	; 0xffffffed
     1a8:	00010602 	andeq	r0, r1, r2, lsl #12
     1ac:	06020402 	streq	r0, [r2], -r2, lsl #8
     1b0:	00017503 	andeq	r7, r1, r3, lsl #10
     1b4:	14020402 	strne	r0, [r2], #-1026	; 0xfffffbfe
     1b8:	02040200 	andeq	r0, r4, #0, 4
     1bc:	04020001 	streq	r0, [r2], #-1
     1c0:	02000102 	andeq	r0, r0, #-2147483648	; 0x80000000
     1c4:	00010204 	andeq	r0, r1, r4, lsl #4
     1c8:	13020402 	movwne	r0, #9218	; 0x2402
     1cc:	07050104 	streq	r0, [r5, -r4, lsl #2]
     1d0:	02040200 	andeq	r0, r4, #0, 4
     1d4:	01670306 	cmneq	r7, r6, lsl #6
     1d8:	4b060905 	blmi	1825f4 <__bss_end__+0x177a9c>
     1dc:	05130505 	ldreq	r0, [r3, #-1285]	; 0xfffffafb
     1e0:	01720301 	cmneq	r2, r1, lsl #6
     1e4:	03042e01 	movweq	r2, #19969	; 0x4e01
     1e8:	76031405 	strvc	r1, [r3], -r5, lsl #8
     1ec:	13050501 	movwne	r0, #21761	; 0x5501
     1f0:	044a0613 	strbeq	r0, [sl], #-1555	; 0xfffff9ed
     1f4:	17030601 	strne	r0, [r3, -r1, lsl #12]
     1f8:	15050101 	strne	r0, [r5, #-257]	; 0xfffffeff
     1fc:	05017403 	streq	r7, [r1, #-1027]	; 0xfffffbfd
     200:	01051305 	tsteq	r5, r5, lsl #6
     204:	2e01010f 	adfcss	f0, f1, #10.0
     208:	05050106 	streq	r0, [r5, #-262]	; 0xfffffefa
     20c:	05010e03 	streq	r0, [r1, #-3587]	; 0xfffff1fd
     210:	05054b01 	streq	r4, [r5, #-2817]	; 0xfffff4ff
     214:	01040200 	mrseq	r0, R12_usr
     218:	4a790306 	bmi	1e40e38 <__bss_end__+0x1e362e0>
     21c:	01040200 	mrseq	r0, R12_usr
     220:	04020001 	streq	r0, [r2], #-1
     224:	00ba0601 	adcseq	r0, sl, r1, lsl #12
     228:	06010402 	streq	r0, [r1], -r2, lsl #8
     22c:	3209052e 	andcc	r0, r9, #192937984	; 0xb800000
     230:	069e0601 	ldreq	r0, [lr], r1, lsl #12
     234:	0005052e 	andeq	r0, r5, lr, lsr #10
     238:	30010402 	andcc	r0, r1, r2, lsl #8
     23c:	01040200 	mrseq	r0, R12_usr
     240:	04020001 	streq	r0, [r2], #-1
     244:	00ba0601 	adcseq	r0, sl, r1, lsl #12
     248:	06010402 	streq	r0, [r1], -r2, lsl #8
     24c:	0504042e 	streq	r0, [r4, #-1070]	; 0xfffffbd2
     250:	d60e034d 	strle	r0, [lr], -sp, asr #6
     254:	05050106 	streq	r0, [r5, #-262]	; 0xfffffefa
     258:	06018306 	streq	r8, [r1], -r6, lsl #6
     25c:	0402002e 	streq	r0, [r2], #-46	; 0xffffffd2
     260:	00660603 	rsbeq	r0, r6, r3, lsl #12
     264:	13030402 	movwne	r0, #13314	; 0x3402
     268:	09054a06 	stmdbeq	r5, {r1, r2, r9, fp, lr}
     26c:	0c054c06 	stceq	12, cr4, [r5], {6}
     270:	0b050106 	bleq	140690 <__bss_end__+0x135b38>
     274:	001b054a 	andseq	r0, fp, sl, asr #10
     278:	06010402 	streq	r0, [r1], -r2, lsl #8
     27c:	030e054a 	movweq	r0, #58698	; 0xe54a
     280:	0105660d 	tsteq	r5, sp, lsl #12
     284:	05051406 	streq	r1, [r5, #-1030]	; 0xfffffbfa
     288:	01040200 	mrseq	r0, R12_usr
     28c:	666e0306 	strbtvs	r0, [lr], -r6, lsl #6
     290:	01040200 	mrseq	r0, R12_usr
     294:	02004a06 	andeq	r4, r0, #24576	; 0x6000
     298:	002e0104 	eoreq	r0, lr, r4, lsl #2
     29c:	4a010402 	bmi	412ac <__bss_end__+0x36754>
     2a0:	01040200 	mrseq	r0, R12_usr
     2a4:	0e052f2e 	cdpeq	15, 0, cr2, cr5, cr14, {1}
     2a8:	4a0f0306 	bmi	3c0ec8 <__bss_end__+0x3b6370>
     2ac:	7403ba01 	strvc	fp, [r3], #-2561	; 0xfffff5ff
     2b0:	8509052e 	strhi	r0, [r9, #-1326]	; 0xfffffad2
     2b4:	01060c05 	tsteq	r6, r5, lsl #24
     2b8:	054a0b05 	strbeq	r0, [sl, #-2821]	; 0xfffff4fb
     2bc:	0402001b 	streq	r0, [r2], #-27	; 0xffffffe5
     2c0:	054a0601 	strbeq	r0, [sl, #-1537]	; 0xfffff9ff
     2c4:	0905830e 	stmdbeq	r5, {r1, r2, r3, r8, r9, pc}
     2c8:	14679f85 	strbtne	r9, [r7], #-3973	; 0xfffff07b
     2cc:	95081405 	strls	r1, [r8, #-1029]	; 0xfffffbfb
     2d0:	154b0505 	strbne	r0, [fp, #-1285]	; 0xfffffafb
     2d4:	18050504 	stmdane	r5, {r2, r8, sl}
     2d8:	017fbf03 	cmneq	pc, r3, lsl #30
     2dc:	13130505 	tstne	r3, #20971520	; 0x1400000
     2e0:	0401062f 	streq	r0, [r1], #-1583	; 0xfffff9d1
     2e4:	013e0304 	teqeq	lr, r4, lsl #6
     2e8:	15055006 	strne	r5, [r5, #-6]
     2ec:	05050106 	streq	r0, [r5, #-262]	; 0xfffffefa
     2f0:	0f054b06 	svceq	0x00054b06
     2f4:	05050106 	streq	r0, [r5, #-262]	; 0xfffffefa
     2f8:	0b056706 	bleq	159f18 <__bss_end__+0x14f3c0>
     2fc:	05050106 	streq	r0, [r5, #-262]	; 0xfffffefa
     300:	09053206 	stmdbeq	r5, {r1, r2, r9, ip, sp}
     304:	012f4b16 			; <UNDEFINED> instruction: 0x012f4b16
     308:	000e029e 	muleq	lr, lr, r2
     30c:	025a0101 	subseq	r0, sl, #1073741824	; 0x40000000
     310:	00030000 	andeq	r0, r3, r0
     314:	000000cc 	andeq	r0, r0, ip, asr #1
     318:	0efb0102 	cdpeq	1, 15, cr0, cr11, cr2, {0}
     31c:	0101000d 	tsteq	r1, sp
     320:	00000101 	andeq	r0, r0, r1, lsl #2
     324:	00000100 	andeq	r0, r0, r0, lsl #2
     328:	6f682f01 	svcvs	0x00682f01
     32c:	652f656d 	strvs	r6, [pc, #-1389]!	; fffffdc7 <__bss_end__+0xffff526f>
     330:	656c676e 	strbvs	r6, [ip, #-1902]!	; 0xfffff892
     334:	6c632f72 	stclvs	15, cr2, [r3], #-456	; 0xfffffe38
     338:	2f737361 	svccs	0x00737361
     33c:	34317363 	ldrtcc	r7, [r1], #-867	; 0xfffffc9d
     340:	322d6530 	eorcc	r6, sp, #48, 10	; 0xc000000
     344:	6e697732 	mcrvs	7, 3, r7, cr9, cr2, {1}
     348:	696c2f2f 	stmdbvs	ip!, {r0, r1, r2, r3, r5, r8, r9, sl, fp, sp}^
     34c:	2f697062 	svccs	0x00697062
     350:	6c636e69 	stclvs	14, cr6, [r3], #-420	; 0xfffffe5c
     354:	00656475 	rsbeq	r6, r5, r5, ror r4
     358:	7273752f 	rsbsvc	r7, r3, #197132288	; 0xbc00000
     35c:	6168732f 	cmnvs	r8, pc, lsr #6
     360:	672f6572 			; <UNDEFINED> instruction: 0x672f6572
     364:	612d6363 			; <UNDEFINED> instruction: 0x612d6363
     368:	6e2d6d72 	mcrvs	13, 1, r6, cr13, cr2, {3}
     36c:	2d656e6f 	stclcs	14, cr6, [r5, #-444]!	; 0xfffffe44
     370:	69626165 	stmdbvs	r2!, {r0, r2, r5, r6, r8, sp, lr}^
     374:	2e30312d 	rsfcssp	f3, f0, #5.0
     378:	30322d33 	eorscc	r2, r2, r3, lsr sp
     37c:	312e3132 			; <UNDEFINED> instruction: 0x312e3132
     380:	696c2f30 	stmdbvs	ip!, {r4, r5, r8, r9, sl, fp, sp}^
     384:	63672f62 	cmnvs	r7, #392	; 0x188
     388:	72612f63 	rsbvc	r2, r1, #396	; 0x18c
     38c:	6f6e2d6d 	svcvs	0x006e2d6d
     390:	652d656e 	strvs	r6, [sp, #-1390]!	; 0xfffffa92
     394:	2f696261 	svccs	0x00696261
     398:	332e3031 			; <UNDEFINED> instruction: 0x332e3031
     39c:	692f312e 	stmdbvs	pc!, {r1, r2, r3, r5, r8, ip, sp}	; <UNPREDICTABLE>
     3a0:	756c636e 	strbvc	r6, [ip, #-878]!	; 0xfffffc92
     3a4:	00006564 	andeq	r6, r0, r4, ror #10
     3a8:	66617473 			; <UNDEFINED> instruction: 0x66617473
     3ac:	6f6c2d66 	svcvs	0x006c2d66
     3b0:	72656461 	rsbvc	r6, r5, #1627389952	; 0x61000000
     3b4:	0000632e 	andeq	r6, r0, lr, lsr #6
     3b8:	72740000 	rsbsvc	r0, r4, #0
     3bc:	61697669 	cmnvs	r9, r9, ror #12
     3c0:	736f2d6c 	cmnvc	pc, #108, 26	; 0x1b00
     3c4:	0000682e 	andeq	r6, r0, lr, lsr #16
     3c8:	70720000 	rsbsvc	r0, r2, r0
     3cc:	00682e69 	rsbeq	r2, r8, r9, ror #28
     3d0:	73000001 	movwvc	r0, #1
     3d4:	6e696474 	mcrvs	4, 3, r6, cr9, cr4, {3}
     3d8:	63672d74 	cmnvs	r7, #116, 26	; 0x1d00
     3dc:	00682e63 	rsbeq	r2, r8, r3, ror #28
     3e0:	00000002 	andeq	r0, r0, r2
     3e4:	05001a05 	streq	r1, [r0, #-2565]	; 0xfffff5fb
     3e8:	00840802 	addeq	r0, r4, r2, lsl #16
     3ec:	01110300 	tsteq	r1, r0, lsl #6
     3f0:	134b0505 	movtne	r0, #46341	; 0xb505
     3f4:	01011413 	tsteq	r1, r3, lsl r4
     3f8:	13010113 	movwne	r0, #4371	; 0x1113
     3fc:	01060e05 	tsteq	r6, r5, lsl #28
     400:	4b060505 	blmi	18181c <__bss_end__+0x176cc4>
     404:	01130101 	tsteq	r3, r1, lsl #2
     408:	0e051401 	cdpeq	4, 0, cr1, cr5, cr1, {0}
     40c:	05050106 	streq	r0, [r5, #-262]	; 0xfffffefa
     410:	01012f06 	tsteq	r1, r6, lsl #30
     414:	02000115 	andeq	r0, r0, #1073741829	; 0x40000005
     418:	004a0204 	subeq	r0, sl, r4, lsl #4
     41c:	01020402 	tsteq	r2, r2, lsl #8
     420:	02040200 	andeq	r0, r4, #0, 4
     424:	000b0514 	andeq	r0, fp, r4, lsl r5
     428:	06020402 	streq	r0, [r2], -r2, lsl #8
     42c:	00050501 	andeq	r0, r5, r1, lsl #10
     430:	06020402 	streq	r0, [r2], -r2, lsl #8
     434:	0402004b 	streq	r0, [r2], #-75	; 0xffffffb5
     438:	02000102 	andeq	r0, r0, #-2147483648	; 0x80000000
     43c:	00010204 	andeq	r0, r1, r4, lsl #4
     440:	14020402 	strne	r0, [r2], #-1026	; 0xfffffbfe
     444:	02040200 	andeq	r0, r4, #0, 4
     448:	04020001 	streq	r0, [r2], #-1
     44c:	02000102 	andeq	r0, r0, #-2147483648	; 0x80000000
     450:	00130204 	andseq	r0, r3, r4, lsl #4
     454:	4c020402 	cfstrsmi	mvf0, [r2], {2}
     458:	02040200 	andeq	r0, r4, #0, 4
     45c:	04020001 	streq	r0, [r2], #-1
     460:	02000102 	andeq	r0, r0, #-2147483648	; 0x80000000
     464:	00010204 	andeq	r0, r1, r4, lsl #4
     468:	14020402 	strne	r0, [r2], #-1026	; 0xfffffbfe
     46c:	02040200 	andeq	r0, r4, #0, 4
     470:	04020001 	streq	r0, [r2], #-1
     474:	02008202 	andeq	r8, r0, #536870912	; 0x20000000
     478:	00010204 	andeq	r0, r1, r4, lsl #4
     47c:	13020402 	movwne	r0, #9218	; 0x2402
     480:	02040200 	andeq	r0, r4, #0, 4
     484:	04020085 	streq	r0, [r2], #-133	; 0xffffff7b
     488:	02000102 	andeq	r0, r0, #-2147483648	; 0x80000000
     48c:	00010204 	andeq	r0, r1, r4, lsl #4
     490:	13020402 	movwne	r0, #9218	; 0x2402
     494:	02002405 	andeq	r2, r0, #83886080	; 0x5000000
     498:	01060204 	tsteq	r6, r4, lsl #4
     49c:	02000a05 	andeq	r0, r0, #20480	; 0x5000
     4a0:	052e0204 	streq	r0, [lr, #-516]!	; 0xfffffdfc
     4a4:	04020005 	streq	r0, [r2], #-5
     4a8:	00300602 	eorseq	r0, r0, r2, lsl #12
     4ac:	01020402 	tsteq	r2, r2, lsl #8
     4b0:	02040200 	andeq	r0, r4, #0, 4
     4b4:	00010501 	andeq	r0, r1, r1, lsl #10
     4b8:	06020402 	streq	r0, [r2], -r2, lsl #8
     4bc:	00050513 	andeq	r0, r5, r3, lsl r5
     4c0:	06010402 	streq	r0, [r1], -r2, lsl #8
     4c4:	004a6e03 	subeq	r6, sl, r3, lsl #28
     4c8:	01010402 	tsteq	r1, r2, lsl #8
     4cc:	01040200 	mrseq	r0, R12_usr
     4d0:	02008206 	andeq	r8, r0, #1610612736	; 0x60000000
     4d4:	66060104 	strvs	r0, [r6], -r4, lsl #2
     4d8:	01040200 	mrseq	r0, R12_usr
     4dc:	002e0a03 	eoreq	r0, lr, r3, lsl #20
     4e0:	01010402 	tsteq	r1, r2, lsl #8
     4e4:	01040200 	mrseq	r0, R12_usr
     4e8:	031f05d6 	tsteq	pc, #897581056	; 0x35800000
     4ec:	0620080a 	strteq	r0, [r0], -sl, lsl #16
     4f0:	06050501 	streq	r0, [r5], -r1, lsl #10
     4f4:	0101014b 	tsteq	r1, fp, asr #2
     4f8:	02000113 	andeq	r0, r0, #-1073741820	; 0xc0000004
     4fc:	009e0204 	addseq	r0, lr, r4, lsl #4
     500:	01020402 	tsteq	r2, r2, lsl #8
     504:	02040200 	andeq	r0, r4, #0, 4
     508:	04020013 	streq	r0, [r2], #-19	; 0xffffffed
     50c:	02000102 	andeq	r0, r0, #-2147483648	; 0x80000000
     510:	00820204 	addeq	r0, r2, r4, lsl #4
     514:	01020402 	tsteq	r2, r2, lsl #8
     518:	02040200 	andeq	r0, r4, #0, 4
     51c:	04020013 	streq	r0, [r2], #-19	; 0xffffffed
     520:	00660602 	rsbeq	r0, r6, r2, lsl #12
     524:	06020402 	streq	r0, [r2], -r2, lsl #8
     528:	000c052f 	andeq	r0, ip, pc, lsr #10
     52c:	06020402 	streq	r0, [r2], -r2, lsl #8
     530:	00010501 	andeq	r0, r1, r1, lsl #10
     534:	68020402 	stmdavs	r2, {r1, sl}
     538:	02000505 	andeq	r0, r0, #20971520	; 0x1400000
     53c:	61060104 	tstvs	r6, r4, lsl #2
     540:	01040200 	mrseq	r0, R12_usr
     544:	04020001 	streq	r0, [r2], #-1
     548:	00ba0601 	adcseq	r0, sl, r1, lsl #12
     54c:	06010402 	streq	r0, [r1], -r2, lsl #8
     550:	0402002e 	streq	r0, [r2], #-46	; 0xffffffd2
     554:	02002f01 	andeq	r2, r0, #1, 30
     558:	00010104 	andeq	r0, r1, r4, lsl #2
     55c:	06010402 	streq	r0, [r1], -r2, lsl #8
     560:	040200ba 	streq	r0, [r2], #-186	; 0xffffff46
     564:	022e0601 	eoreq	r0, lr, #1048576	; 0x100000
     568:	01010010 	tsteq	r1, r0, lsl r0
     56c:	00000125 	andeq	r0, r0, r5, lsr #2
     570:	00db0003 	sbcseq	r0, fp, r3
     574:	01020000 	mrseq	r0, (UNDEF: 2)
     578:	000d0efb 	strdeq	r0, [sp], -fp
     57c:	01010101 	tsteq	r1, r1, lsl #2
     580:	01000000 	mrseq	r0, (UNDEF: 0)
     584:	2f010000 	svccs	0x00010000
     588:	656d6f68 	strbvs	r6, [sp, #-3944]!	; 0xfffff098
     58c:	676e652f 	strbvs	r6, [lr, -pc, lsr #10]!
     590:	2f72656c 	svccs	0x0072656c
     594:	73616c63 	cmnvc	r1, #25344	; 0x6300
     598:	73632f73 	cmnvc	r3, #460	; 0x1cc
     59c:	65303431 	ldrvs	r3, [r0, #-1073]!	; 0xfffffbcf
     5a0:	7732322d 	ldrvc	r3, [r2, -sp, lsr #4]!
     5a4:	2f2f6e69 	svccs	0x002f6e69
     5a8:	7062696c 	rsbvc	r6, r2, ip, ror #18
     5ac:	6e692f69 	cdpvs	15, 6, cr2, cr9, cr9, {3}
     5b0:	64756c63 	ldrbtvs	r6, [r5], #-3171	; 0xfffff39d
     5b4:	752f0065 	strvc	r0, [pc, #-101]!	; 557 <__code_start__-0x7aa9>
     5b8:	732f7273 			; <UNDEFINED> instruction: 0x732f7273
     5bc:	65726168 	ldrbvs	r6, [r2, #-360]!	; 0xfffffe98
     5c0:	6363672f 	cmnvs	r3, #12320768	; 0xbc0000
     5c4:	6d72612d 	ldfvse	f6, [r2, #-180]!	; 0xffffff4c
     5c8:	6e6f6e2d 	cdpvs	14, 6, cr6, cr15, cr13, {1}
     5cc:	61652d65 	cmnvs	r5, r5, ror #26
     5d0:	312d6962 			; <UNDEFINED> instruction: 0x312d6962
     5d4:	2d332e30 	ldccs	14, cr2, [r3, #-192]!	; 0xffffff40
     5d8:	31323032 	teqcc	r2, r2, lsr r0
     5dc:	2f30312e 	svccs	0x0030312e
     5e0:	2f62696c 	svccs	0x0062696c
     5e4:	2f636367 	svccs	0x00636367
     5e8:	2d6d7261 	sfmcs	f7, 2, [sp, #-388]!	; 0xfffffe7c
     5ec:	656e6f6e 	strbvs	r6, [lr, #-3950]!	; 0xfffff092
     5f0:	6261652d 	rsbvs	r6, r1, #188743680	; 0xb400000
     5f4:	30312f69 	eorscc	r2, r1, r9, ror #30
     5f8:	312e332e 			; <UNDEFINED> instruction: 0x312e332e
     5fc:	636e692f 	cmnvs	lr, #770048	; 0xbc000
     600:	6564756c 	strbvs	r7, [r4, #-1388]!	; 0xfffffa94
     604:	69730000 	ldmdbvs	r3!, {}^	; <UNPREDICTABLE>
     608:	656c676e 	strbvs	r6, [ip, #-1902]!	; 0xfffff892
     60c:	6574732d 	ldrbvs	r7, [r4, #-813]!	; 0xfffffcd3
     610:	00632e70 	rsbeq	r2, r3, r0, ror lr
     614:	62000000 	andvs	r0, r0, #0
     618:	6b616572 	blvs	1859be8 <__bss_end__+0x184f090>
     61c:	6e696f70 	mcrvs	15, 3, r6, cr9, cr0, {3}
     620:	00682e74 	rsbeq	r2, r8, r4, ror lr
     624:	74000000 	strvc	r0, [r0], #-0
     628:	69766972 	ldmdbvs	r6!, {r1, r4, r5, r6, r8, fp, sp, lr}^
     62c:	6f2d6c61 	svcvs	0x002d6c61
     630:	00682e73 	rsbeq	r2, r8, r3, ror lr
     634:	72000000 	andvc	r0, r0, #0
     638:	682e6970 	stmdavs	lr!, {r4, r5, r6, r8, fp, sp, lr}
     63c:	00000100 	andeq	r0, r0, r0, lsl #2
     640:	69647473 	stmdbvs	r4!, {r0, r1, r4, r5, r6, sl, ip, sp, lr}^
     644:	672d746e 	strvs	r7, [sp, -lr, ror #8]!
     648:	682e6363 	stmdavs	lr!, {r0, r1, r5, r6, r8, r9, sp, lr}
     64c:	00000200 	andeq	r0, r0, r0, lsl #4
     650:	002e0500 	eoreq	r0, lr, r0, lsl #10
     654:	85740205 	ldrbhi	r0, [r4, #-517]!	; 0xfffffdfb
     658:	06190000 	ldreq	r0, [r9], -r0
     65c:	06050501 	streq	r0, [r5], -r1, lsl #10
     660:	064a064b 	strbeq	r0, [sl], -fp, asr #12
     664:	17054c30 	smladxne	r5, r0, ip, r4
     668:	01050106 	tsteq	r5, r6, lsl #2
     66c:	063b0583 	ldrteq	r0, [fp], -r3, lsl #11
     670:	0501066a 	streq	r0, [r1, #-1642]	; 0xfffff996
     674:	2f670605 	svccs	0x00670605
     678:	01060d05 	tsteq	r6, r5, lsl #26
     67c:	83060505 	movwhi	r0, #25861	; 0x6505
     680:	0601052f 	streq	r0, [r1], -pc, lsr #10
     684:	06200513 			; <UNDEFINED> instruction: 0x06200513
     688:	1305054c 	movwne	r0, #21836	; 0x554c
     68c:	13060105 	movwne	r0, #24837	; 0x6105
     690:	01000802 	tsteq	r0, r2, lsl #16
     694:	00029801 	andeq	r9, r2, r1, lsl #16
     698:	35000300 	strcc	r0, [r0, #-768]	; 0xfffffd00
     69c:	02000001 	andeq	r0, r0, #1
     6a0:	0d0efb01 	vstreq	d15, [lr, #-4]
     6a4:	01010100 	mrseq	r0, (UNDEF: 17)
     6a8:	00000001 	andeq	r0, r0, r1
     6ac:	01000001 	tsteq	r0, r1
     6b0:	6d6f682f 	stclvs	8, cr6, [pc, #-188]!	; 5fc <__code_start__-0x7a04>
     6b4:	6e652f65 	cdpvs	15, 6, cr2, cr5, cr5, {3}
     6b8:	72656c67 	rsbvc	r6, r5, #26368	; 0x6700
     6bc:	616c632f 	cmnvs	ip, pc, lsr #6
     6c0:	632f7373 			; <UNDEFINED> instruction: 0x632f7373
     6c4:	30343173 	eorscc	r3, r4, r3, ror r1
     6c8:	32322d65 	eorscc	r2, r2, #6464	; 0x1940
     6cc:	2f6e6977 	svccs	0x006e6977
     6d0:	62696c2f 	rsbvs	r6, r9, #12032	; 0x2f00
     6d4:	692f6970 	stmdbvs	pc!, {r4, r5, r6, r8, fp, sp, lr}	; <UNPREDICTABLE>
     6d8:	756c636e 	strbvc	r6, [ip, #-878]!	; 0xfffffc92
     6dc:	2f006564 	svccs	0x00006564
     6e0:	656d6f68 	strbvs	r6, [sp, #-3944]!	; 0xfffff098
     6e4:	676e652f 	strbvs	r6, [lr, -pc, lsr #10]!
     6e8:	2f72656c 	svccs	0x0072656c
     6ec:	73616c63 	cmnvc	r1, #25344	; 0x6300
     6f0:	73632f73 	cmnvc	r3, #460	; 0x1cc
     6f4:	65303431 	ldrvs	r3, [r0, #-1073]!	; 0xfffffbcf
     6f8:	7732322d 	ldrvc	r3, [r2, -sp, lsr #4]!
     6fc:	2f2f6e69 	svccs	0x002f6e69
     700:	7062696c 	rsbvc	r6, r2, ip, ror #18
     704:	696c2f69 	stmdbvs	ip!, {r0, r3, r5, r6, r8, r9, sl, fp, sp}^
     708:	2f006362 	svccs	0x00006362
     70c:	2f727375 	svccs	0x00727375
     710:	72616873 	rsbvc	r6, r1, #7536640	; 0x730000
     714:	63672f65 	cmnvs	r7, #404	; 0x194
     718:	72612d63 	rsbvc	r2, r1, #6336	; 0x18c0
     71c:	6f6e2d6d 	svcvs	0x006e2d6d
     720:	652d656e 	strvs	r6, [sp, #-1390]!	; 0xfffffa92
     724:	2d696261 	sfmcs	f6, 2, [r9, #-388]!	; 0xfffffe7c
     728:	332e3031 			; <UNDEFINED> instruction: 0x332e3031
     72c:	3230322d 	eorscc	r3, r0, #-805306366	; 0xd0000002
     730:	30312e31 	eorscc	r2, r1, r1, lsr lr
     734:	62696c2f 	rsbvs	r6, r9, #12032	; 0x2f00
     738:	6363672f 	cmnvs	r3, #12320768	; 0xbc0000
     73c:	6d72612f 	ldfvse	f6, [r2, #-188]!	; 0xffffff44
     740:	6e6f6e2d 	cdpvs	14, 6, cr6, cr15, cr13, {1}
     744:	61652d65 	cmnvs	r5, r5, ror #26
     748:	312f6962 			; <UNDEFINED> instruction: 0x312f6962
     74c:	2e332e30 	mrccs	14, 1, r2, cr3, cr0, {1}
     750:	6e692f31 	mcrvs	15, 3, r2, cr9, cr1, {1}
     754:	64756c63 	ldrbtvs	r6, [r5], #-3171	; 0xfffff39d
     758:	65000065 	strvs	r0, [r0, #-101]	; 0xffffff9b
     75c:	76697571 			; <UNDEFINED> instruction: 0x76697571
     760:	0000632e 	andeq	r6, r0, lr, lsr #6
     764:	70630000 	rsbvc	r0, r3, r0
     768:	752d7273 	strvc	r7, [sp, #-627]!	; 0xfffffd8d
     76c:	2e6c6974 			; <UNDEFINED> instruction: 0x2e6c6974
     770:	00000068 	andeq	r0, r0, r8, rrx
     774:	69707200 	ldmdbvs	r0!, {r9, ip, sp, lr}^
     778:	746e692d 	strbtvc	r6, [lr], #-2349	; 0xfffff6d3
     77c:	75727265 	ldrbvc	r7, [r2, #-613]!	; 0xfffffd9b
     780:	2e737470 	mrccs	4, 3, r7, cr3, cr0, {3}
     784:	00010068 	andeq	r0, r1, r8, rrx
     788:	74696200 	strbtvc	r6, [r9], #-512	; 0xfffffe00
     78c:	7075732d 	rsbsvc	r7, r5, sp, lsr #6
     790:	74726f70 	ldrbtvc	r6, [r2], #-3952	; 0xfffff090
     794:	0200682e 	andeq	r6, r0, #3014656	; 0x2e0000
     798:	74730000 	ldrbtvc	r0, [r3], #-0
     79c:	746e6964 	strbtvc	r6, [lr], #-2404	; 0xfffff69c
     7a0:	6363672d 	cmnvs	r3, #11796480	; 0xb40000
     7a4:	0300682e 	movweq	r6, #2094	; 0x82e
     7a8:	70720000 	rsbsvc	r0, r2, r0
     7ac:	00682e69 	rsbeq	r2, r8, r9, ror #28
     7b0:	62000001 	andvs	r0, r0, #1
     7b4:	6b616572 	blvs	1859d84 <__bss_end__+0x184f22c>
     7b8:	6e696f70 	mcrvs	15, 3, r6, cr9, cr0, {3}
     7bc:	00682e74 	rsbeq	r2, r8, r4, ror lr
     7c0:	74000000 	strvc	r0, [r0], #-0
     7c4:	69766972 	ldmdbvs	r6!, {r1, r4, r5, r6, r8, fp, sp, lr}^
     7c8:	6f2d6c61 	svcvs	0x002d6c61
     7cc:	00682e73 	rsbeq	r2, r8, r3, ror lr
     7d0:	00000000 	andeq	r0, r0, r0
     7d4:	05002b05 	streq	r2, [r0, #-2821]	; 0xfffff4fb
     7d8:	0085e802 	addeq	lr, r5, r2, lsl #16
     7dc:	011b0300 	tsteq	fp, r0, lsl #6
     7e0:	05050106 	streq	r0, [r5, #-262]	; 0xfffffefa
     7e4:	06012f06 	streq	r2, [r1], -r6, lsl #30
     7e8:	052e0682 	streq	r0, [lr, #-1666]!	; 0xfffff97e
     7ec:	82090347 	andhi	r0, r9, #469762049	; 0x1c000001
     7f0:	05050106 	streq	r0, [r5, #-262]	; 0xfffffefa
     7f4:	06012f06 	streq	r2, [r1], -r6, lsl #30
     7f8:	062e2e4a 	strteq	r2, [lr], -sl, asr #28
     7fc:	8747052e 	strbhi	r0, [r7, -lr, lsr #10]
     800:	05050106 	streq	r0, [r5, #-262]	; 0xfffffefa
     804:	0d059f06 	stceq	15, cr9, [r5, #-24]	; 0xffffffe8
     808:	2e4a0106 	dvfcse	f0, f2, f6
     80c:	2f060505 	svccs	0x00060505
     810:	2f062e06 	svccs	0x00062e06
     814:	01061b05 	tsteq	r6, r5, lsl #22
     818:	2f060505 	svccs	0x00060505
     81c:	05020401 	streq	r0, [r2, #-1025]	; 0xfffffbff
     820:	01790313 	cmneq	r9, r3, lsl r3
     824:	05012905 	streq	r2, [r1, #-2309]	; 0xfffff6fb
     828:	2c051113 	stfcss	f1, [r5], {19}
     82c:	05030401 	streq	r0, [r3, #-1025]	; 0xfffffbff
     830:	05051318 	streq	r1, [r5, #-792]	; 0xfffffce8
     834:	062f1313 			; <UNDEFINED> instruction: 0x062f1313
     838:	05020401 	streq	r0, [r2, #-1025]	; 0xfffffbff
     83c:	66030618 			; <UNDEFINED> instruction: 0x66030618
     840:	13050501 	movwne	r0, #21761	; 0x5501
     844:	01050404 	tsteq	r5, r4, lsl #8
     848:	05012603 	streq	r2, [r1, #-1539]	; 0xfffff9fd
     84c:	01011305 	tsteq	r1, r5, lsl #6
     850:	01011301 	tsteq	r1, r1, lsl #6
     854:	01061301 	tsteq	r6, r1, lsl #6
     858:	01750306 	cmneq	r5, r6, lsl #6
     85c:	01010114 	tsteq	r1, r4, lsl r1
     860:	06160513 			; <UNDEFINED> instruction: 0x06160513
     864:	02042e1a 	andeq	r2, r4, #416	; 0x1a0
     868:	03060505 	movweq	r0, #25861	; 0x6505
     86c:	05010158 	streq	r0, [r1, #-344]	; 0xfffffea8
     870:	01740313 	cmneq	r4, r3, lsl r3
     874:	05130505 	ldreq	r0, [r3, #-1285]	; 0xfffffafb
     878:	05010607 	streq	r0, [r1, #-1543]	; 0xfffff9f9
     87c:	05686909 	strbeq	r6, [r8, #-2313]!	; 0xfffff6f7
     880:	0567060d 	strbeq	r0, [r7, #-1549]!	; 0xfffff9f3
     884:	01061305 	tsteq	r6, r5, lsl #6
     888:	13011606 	movwne	r1, #5638	; 0x1606
     88c:	01040106 	tsteq	r4, r6, lsl #2
     890:	00011b03 	andeq	r1, r1, r3, lsl #22
     894:	06010402 	streq	r0, [r1], -r2, lsl #8
     898:	0402004a 	streq	r0, [r2], #-74	; 0xffffffb6
     89c:	02000101 	andeq	r0, r0, #1073741824	; 0x40000000
     8a0:	04d60104 	ldrbeq	r0, [r6], #260	; 0x104
     8a4:	2e600302 	cdpcs	3, 6, cr0, cr0, cr2, {0}
     8a8:	064a0601 	strbeq	r0, [sl], -r1, lsl #12
     8ac:	042e0682 	strteq	r0, [lr], #-1666	; 0xfffff97e
     8b0:	04020001 	streq	r0, [r2], #-1
     8b4:	20030602 	andcs	r0, r3, r2, lsl #12
     8b8:	04020001 	streq	r0, [r2], #-1
     8bc:	02000102 	andeq	r0, r0, #-2147483648	; 0x80000000
     8c0:	00150204 	andseq	r0, r5, r4, lsl #4
     8c4:	2f020402 	svccs	0x00020402
     8c8:	02000d05 	andeq	r0, r0, #320	; 0x140
     8cc:	01060204 	tsteq	r6, r4, lsl #4
     8d0:	02000505 	andeq	r0, r0, #20971520	; 0x1400000
     8d4:	67060204 	strvs	r0, [r6, -r4, lsl #4]
     8d8:	02040200 	andeq	r0, r4, #0, 4
     8dc:	04020001 	streq	r0, [r2], #-1
     8e0:	23059e02 	movwcs	r9, #24066	; 0x5e02
     8e4:	01064008 	tsteq	r6, r8
     8e8:	67060505 	strvs	r0, [r6, -r5, lsl #10]
     8ec:	01061105 	tsteq	r6, r5, lsl #2
     8f0:	0605054a 	streq	r0, [r5], -sl, asr #10
     8f4:	0607054c 	streq	r0, [r7], -ip, asr #10
     8f8:	03010501 	movweq	r0, #5377	; 0x1501
     8fc:	054a4a0a 	strbeq	r4, [sl, #-2570]	; 0xfffff5f6
     900:	78030605 	stmdavc	r3, {r0, r2, r9, sl}
     904:	0905672e 	stmdbeq	r5, {r1, r2, r3, r5, r8, r9, sl, sp, lr}
     908:	664a0113 			; <UNDEFINED> instruction: 0x664a0113
     90c:	05130505 	ldreq	r0, [r3, #-1285]	; 0xfffffafb
     910:	05010609 	streq	r0, [r1, #-1545]	; 0xfffff9f7
     914:	0a052e07 	beq	14c138 <__bss_end__+0x1415e0>
     918:	0e054d06 	cdpeq	13, 0, cr4, cr5, cr6, {0}
     91c:	0c050106 	stfeqs	f0, [r5], {6}
     920:	0609052e 	streq	r0, [r9], -lr, lsr #10
     924:	664a014b 	strbvs	r0, [sl], -fp, asr #2
     928:	664a012b 	strbvs	r0, [sl], -fp, lsr #2
     92c:	01000e02 	tsteq	r0, r2, lsl #28
     930:	00089a01 	andeq	r9, r8, r1, lsl #20
     934:	f4000300 	vst2.8	{d0-d3}, [r0], r0
     938:	02000000 	andeq	r0, r0, #0
     93c:	0d0efb01 	vstreq	d15, [lr, #-4]
     940:	01010100 	mrseq	r0, (UNDEF: 17)
     944:	00000001 	andeq	r0, r0, r1
     948:	01000001 	tsteq	r0, r1
     94c:	6d6f682f 	stclvs	8, cr6, [pc, #-188]!	; 898 <__code_start__-0x7768>
     950:	6e652f65 	cdpvs	15, 6, cr2, cr5, cr5, {3}
     954:	72656c67 	rsbvc	r6, r5, #26368	; 0x6700
     958:	616c632f 	cmnvs	ip, pc, lsr #6
     95c:	632f7373 			; <UNDEFINED> instruction: 0x632f7373
     960:	30343173 	eorscc	r3, r4, r3, ror r1
     964:	31322d65 	teqcc	r2, r5, ror #26
     968:	2f727073 	svccs	0x00727073
     96c:	62696c2f 	rsbvs	r6, r9, #12032	; 0x2f00
     970:	692f6970 	stmdbvs	pc!, {r4, r5, r6, r8, fp, sp, lr}	; <UNPREDICTABLE>
     974:	756c636e 	strbvc	r6, [ip, #-878]!	; 0xfffffc92
     978:	2f006564 	svccs	0x00006564
     97c:	656d6f68 	strbvs	r6, [sp, #-3944]!	; 0xfffff098
     980:	676e652f 	strbvs	r6, [lr, -pc, lsr #10]!
     984:	2f72656c 	svccs	0x0072656c
     988:	73616c63 	cmnvc	r1, #25344	; 0x6300
     98c:	73632f73 	cmnvc	r3, #460	; 0x1cc
     990:	65303431 	ldrvs	r3, [r0, #-1073]!	; 0xfffffbcf
     994:	7331322d 	teqvc	r1, #-805306366	; 0xd0000002
     998:	2f2f7270 	svccs	0x002f7270
     99c:	7062696c 	rsbvc	r6, r2, ip, ror #18
     9a0:	696c2f69 	stmdbvs	ip!, {r0, r3, r5, r6, r8, r9, sl, fp, sp}^
     9a4:	2f006362 	svccs	0x00006362
     9a8:	2f727375 	svccs	0x00727375
     9ac:	2f62696c 	svccs	0x0062696c
     9b0:	2f636367 	svccs	0x00636367
     9b4:	2d6d7261 	sfmcs	f7, 2, [sp, #-388]!	; 0xfffffe7c
     9b8:	656e6f6e 	strbvs	r6, [lr, #-3950]!	; 0xfffff092
     9bc:	6261652d 	rsbvs	r6, r1, #188743680	; 0xb400000
     9c0:	2e392f69 	cdpcs	15, 3, cr2, cr9, cr9, {3}
     9c4:	2f312e32 	svccs	0x00312e32
     9c8:	6c636e69 	stclvs	14, cr6, [r3], #-420	; 0xfffffe5c
     9cc:	00656475 	rsbeq	r6, r5, r5, ror r4
     9d0:	61747300 	cmnvs	r4, r0, lsl #6
     9d4:	622d6666 	eorvs	r6, sp, #106954752	; 0x6600000
     9d8:	6b616572 	blvs	1859fa8 <__bss_end__+0x184f450>
     9dc:	6e696f70 	mcrvs	15, 3, r6, cr9, cr0, {3}
     9e0:	00632e74 	rsbeq	r2, r3, r4, ror lr
     9e4:	61000000 	mrsvs	r0, (UNDEF: 0)
     9e8:	682d6d73 	stmdavs	sp!, {r0, r1, r4, r5, r6, r8, sl, fp, sp, lr}
     9ec:	65706c65 	ldrbvs	r6, [r0, #-3173]!	; 0xfffff39b
     9f0:	682e7372 	stmdavs	lr!, {r1, r4, r5, r6, r8, r9, ip, sp, lr}
     9f4:	00000100 	andeq	r0, r0, r0, lsl #2
     9f8:	2d746962 			; <UNDEFINED> instruction: 0x2d746962
     9fc:	70707573 	rsbsvc	r7, r0, r3, ror r5
     a00:	2e74726f 	cdpcs	2, 7, cr7, cr4, cr15, {3}
     a04:	00020068 	andeq	r0, r2, r8, rrx
     a08:	31706300 	cmncc	r0, r0, lsl #6
     a0c:	65642d34 	strbvs	r2, [r4, #-3380]!	; 0xfffff2cc
     a10:	2e677562 	cdpcs	5, 6, cr7, cr7, cr2, {3}
     a14:	00000068 	andeq	r0, r0, r8, rrx
     a18:	69707200 	ldmdbvs	r0!, {r9, ip, sp, lr}^
     a1c:	0100682e 	tsteq	r0, lr, lsr #16
     a20:	74730000 	ldrbtvc	r0, [r3], #-0
     a24:	746e6964 	strbtvc	r6, [lr], #-2404	; 0xfffff69c
     a28:	0300682e 	movweq	r6, #2094	; 0x82e
     a2c:	05000000 	streq	r0, [r0, #-0]
     a30:	02050040 	andeq	r0, r5, #64	; 0x40
     a34:	000087d4 	ldrdeq	r8, [r0], -r4
     a38:	01019c03 	tsteq	r1, r3, lsl #24
     a3c:	05050106 	streq	r0, [r5, #-262]	; 0xfffffefa
     a40:	01055106 	tsteq	r5, r6, lsl #2
     a44:	01015603 	tsteq	r1, r3, lsl #12
     a48:	0502042e 	streq	r0, [r2, #-1070]	; 0xfffffbd2
     a4c:	7f8b0314 	svcvc	0x008b0314
     a50:	13050501 	movwne	r0, #21761	; 0x5501
     a54:	044a0613 	strbeq	r0, [sl], #-1555	; 0xfffff9ed
     a58:	9e030601 	cfmadd32ls	mvax0, mvfx0, mvfx3, mvfx1
     a5c:	05010101 	streq	r0, [r1, #-257]	; 0xfffffeff
     a60:	01550301 	cmpeq	r5, r1, lsl #6
     a64:	062e0101 	strteq	r0, [lr], -r1, lsl #2
     a68:	03050501 	movweq	r0, #21761	; 0x5501
     a6c:	4a06012b 	bmi	180f20 <__bss_end__+0x1763c8>
     a70:	18051501 	stmdane	r5, {r0, r8, sl, ip}
     a74:	05015e03 	streq	r5, [r1, #-3587]	; 0xfffff1fd
     a78:	13131405 	tstne	r3, #83886080	; 0x5000000
     a7c:	06070514 			; <UNDEFINED> instruction: 0x06070514
     a80:	05054801 	streq	r4, [r5, #-2049]	; 0xfffff7ff
     a84:	01063206 	tsteq	r6, r6, lsl #4
     a88:	011b0306 	tsteq	fp, r6, lsl #6
     a8c:	52030105 	andpl	r0, r3, #1073741825	; 0x40000001
     a90:	042e0101 	strteq	r0, [lr], #-257	; 0xfffffeff
     a94:	03140502 	tsteq	r4, #8388608	; 0x800000
     a98:	05017f8a 	streq	r7, [r1, #-3978]	; 0xfffff076
     a9c:	06131305 	ldreq	r1, [r3], -r5, lsl #6
     aa0:	0601044a 	streq	r0, [r1], -sl, asr #8
     aa4:	0101a303 	tsteq	r1, r3, lsl #6
     aa8:	03010501 	movweq	r0, #5377	; 0x1501
     aac:	01010151 	tsteq	r1, r1, asr r1
     ab0:	0501062e 	streq	r0, [r1, #-1582]	; 0xfffff9d2
     ab4:	012f0305 			; <UNDEFINED> instruction: 0x012f0305
     ab8:	054f0105 	strbeq	r0, [pc, #-261]	; 9bb <__code_start__-0x7645>
     abc:	04020005 	streq	r0, [r2], #-5
     ac0:	76030601 	strvc	r0, [r3], -r1, lsl #12
     ac4:	0402004a 	streq	r0, [r2], #-74	; 0xffffffb6
     ac8:	02000101 	andeq	r0, r0, #1073741824	; 0x40000000
     acc:	9e060104 	adflss	f0, f6, f4
     ad0:	01040200 	mrseq	r0, R12_usr
     ad4:	0402002e 	streq	r0, [r2], #-46	; 0xffffffd2
     ad8:	052e0601 	streq	r0, [lr, #-1537]!	; 0xfffff9ff
     adc:	6803060b 	stmdavs	r3, {r0, r1, r3, r9, sl}
     ae0:	05054a2e 	streq	r4, [r5, #-2606]	; 0xfffff5d2
     ae4:	01040200 	mrseq	r0, R12_usr
     ae8:	011d0306 	tsteq	sp, r6, lsl #6
     aec:	01040200 	mrseq	r0, R12_usr
     af0:	04020001 	streq	r0, [r2], #-1
     af4:	002e0601 	eoreq	r0, lr, r1, lsl #12
     af8:	82010402 	andhi	r0, r1, #33554432	; 0x2000000
     afc:	01040200 	mrseq	r0, R12_usr
     b00:	0402002e 	streq	r0, [r2], #-46	; 0xffffffd2
     b04:	052e0601 	streq	r0, [lr, #-1537]!	; 0xfffff9ff
     b08:	f26b0322 	vcgt.s32	d16, d11, d18
     b0c:	05130505 	ldreq	r0, [r3, #-1285]	; 0xfffffafb
     b10:	01650301 	cmneq	r5, r1, lsl #6
     b14:	062e0101 	strteq	r0, [lr], -r1, lsl #2
     b18:	06030401 	streq	r0, [r3], -r1, lsl #8
     b1c:	017f8c03 	cmneq	pc, r3, lsl #24
     b20:	01130505 	tsteq	r3, r5, lsl #10
     b24:	05130101 	ldreq	r0, [r3, #-257]	; 0xfffffeff
     b28:	2e01060e 	cfmadd32cs	mvax0, mvfx0, mvfx1, mvfx14
     b2c:	01050104 	tsteq	r5, r4, lsl #2
     b30:	00f20306 	rscseq	r0, r2, r6, lsl #6
     b34:	042e0101 	strteq	r0, [lr], #-257	; 0xfffffeff
     b38:	03140502 	tsteq	r4, #8388608	; 0x800000
     b3c:	05017f8a 	streq	r7, [r1, #-3978]	; 0xfffff076
     b40:	06131305 	ldreq	r1, [r3], -r5, lsl #6
     b44:	01042e2e 	tsteq	r4, lr, lsr #28
     b48:	01900306 	orrseq	r0, r0, r6, lsl #6
     b4c:	05020401 	streq	r0, [r2, #-1025]	; 0xfffffbff
     b50:	7eee0314 	mcrvc	3, 7, r0, cr14, cr4, {0}
     b54:	13050501 	movwne	r0, #21761	; 0x5501
     b58:	03010413 	movweq	r0, #5139	; 0x1413
     b5c:	012e0191 			; <UNDEFINED> instruction: 0x012e0191
     b60:	63030105 	movwvs	r0, #12549	; 0x3105
     b64:	2e010101 	adfcss	f0, f1, f1
     b68:	03040106 	movweq	r0, #16646	; 0x4106
     b6c:	7fa30306 	svcvc	0x00a30306
     b70:	13050501 	movwne	r0, #21761	; 0x5501
     b74:	13010101 	movwne	r0, #4353	; 0x1101
     b78:	01040106 	tsteq	r4, r6, lsl #2
     b7c:	0100f803 	tsteq	r0, r3, lsl #16	; <UNPREDICTABLE>
     b80:	02002205 	andeq	r2, r0, #1342177280	; 0x50000000
     b84:	05470104 	strbeq	r0, [r7, #-260]	; 0xfffffefc
     b88:	04020005 	streq	r0, [r2], #-5
     b8c:	004d0601 	subeq	r0, sp, r1, lsl #12
     b90:	01010402 	tsteq	r1, r2, lsl #8
     b94:	01040200 	mrseq	r0, R12_usr
     b98:	033305d6 	teqeq	r3, #897581056	; 0x35800000
     b9c:	069e7f90 			; <UNDEFINED> instruction: 0x069e7f90
     ba0:	06050501 	streq	r0, [r5], -r1, lsl #10
     ba4:	0301054b 	movweq	r0, #5451	; 0x154b
     ba8:	0101016d 	tsteq	r1, sp, ror #2
     bac:	0401062e 	streq	r0, [r1], #-1582	; 0xfffff9d2
     bb0:	71030603 	tstvc	r3, r3, lsl #12
     bb4:	13050501 	movwne	r0, #21761	; 0x5501
     bb8:	13010101 	movwne	r0, #4353	; 0x1101
     bbc:	01060e05 	tsteq	r6, r5, lsl #28
     bc0:	0501042e 	streq	r0, [r1, #-1070]	; 0xfffffbd2
     bc4:	0d030601 	stceq	6, cr0, [r3, #-4]
     bc8:	042e0101 	strteq	r0, [lr], #-257	; 0xfffffeff
     bcc:	03140502 	tsteq	r4, #8388608	; 0x800000
     bd0:	0505016f 	streq	r0, [r5, #-367]	; 0xfffffe91
     bd4:	2e061313 	mcrcs	3, 0, r1, cr6, cr3, {0}
     bd8:	0601042e 	streq	r0, [r1], -lr, lsr #8
     bdc:	13012403 	movwne	r2, #5123	; 0x1403
     be0:	69030105 	stmdbvs	r3, {r0, r2, r8}
     be4:	042e0101 	strteq	r0, [lr], #-257	; 0xfffffeff
     be8:	03140502 	tsteq	r4, #8388608	; 0x800000
     bec:	05050170 	streq	r0, [r5, #-368]	; 0xfffffe90
     bf0:	2e061313 	mcrcs	3, 0, r1, cr6, cr3, {0}
     bf4:	03060104 	movweq	r0, #24836	; 0x6104
     bf8:	05010126 	streq	r0, [r1, #-294]	; 0xfffffeda
     bfc:	01680301 	cmneq	r8, r1, lsl #6
     c00:	062e0101 	strteq	r0, [lr], -r1, lsl #2
     c04:	03050501 	movweq	r0, #21761	; 0x5501
     c08:	02000118 	andeq	r0, r0, #24, 2
     c0c:	4a060204 	bmi	181424 <__bss_end__+0x1768cc>
     c10:	02040200 	andeq	r0, r4, #0, 4
     c14:	04020001 	streq	r0, [r2], #-1
     c18:	02001502 	andeq	r1, r0, #8388608	; 0x800000
     c1c:	00130204 	andseq	r0, r3, r4, lsl #4
     c20:	13020402 	movwne	r0, #9218	; 0x2402
     c24:	02040200 	andeq	r0, r4, #0, 4
     c28:	04020013 	streq	r0, [r2], #-19	; 0xffffffed
     c2c:	01051302 	tsteq	r5, r2, lsl #6
     c30:	02040200 	andeq	r0, r4, #0, 4
     c34:	00016203 	andeq	r6, r1, r3, lsl #4
     c38:	01020402 	tsteq	r2, r2, lsl #8
     c3c:	02040200 	andeq	r0, r4, #0, 4
     c40:	0502044a 	streq	r0, [r2, #-1098]	; 0xfffffbb6
     c44:	04020014 	streq	r0, [r2], #-20	; 0xffffffec
     c48:	016f0302 	cmneq	pc, r2, lsl #6
     c4c:	02000505 	andeq	r0, r0, #20971520	; 0x1400000
     c50:	00130204 	andseq	r0, r3, r4, lsl #4
     c54:	13020402 	movwne	r0, #9218	; 0x2402
     c58:	02040200 	andeq	r0, r4, #0, 4
     c5c:	01044a06 	tsteq	r4, r6, lsl #20
     c60:	02040200 	andeq	r0, r4, #0, 4
     c64:	012e0306 			; <UNDEFINED> instruction: 0x012e0306
     c68:	02040200 	andeq	r0, r4, #0, 4
     c6c:	00010501 	andeq	r0, r1, r1, lsl #10
     c70:	03020402 	movweq	r0, #9218	; 0x2402
     c74:	02000161 	andeq	r0, r0, #1073741848	; 0x40000018
     c78:	00010204 	andeq	r0, r1, r4, lsl #4
     c7c:	01020402 	tsteq	r2, r2, lsl #8
     c80:	02040200 	andeq	r0, r4, #0, 4
     c84:	0402002e 	streq	r0, [r2], #-46	; 0xffffffd2
     c88:	05010602 	streq	r0, [r1, #-1538]	; 0xfffff9fe
     c8c:	04020005 	streq	r0, [r2], #-5
     c90:	011f0302 	tsteq	pc, r2, lsl #6
     c94:	14014a06 	strne	r4, [r1], #-2566	; 0xfffff5fa
     c98:	14050204 	strne	r0, [r5], #-516	; 0xfffffdfc
     c9c:	05014e03 	streq	r4, [r1, #-3587]	; 0xfffff1fd
     ca0:	04131305 	ldreq	r1, [r3], #-773	; 0xfffffcfb
     ca4:	4a310301 	bmi	c418b0 <__bss_end__+0xc36d58>
     ca8:	01061605 	tsteq	r6, r5, lsl #12
     cac:	054b0105 	strbeq	r0, [fp, #-261]	; 0xfffffefb
     cb0:	04020005 	streq	r0, [r2], #-5
     cb4:	74030601 	strvc	r0, [r3], #-1537	; 0xfffff9ff
     cb8:	0402004a 	streq	r0, [r2], #-74	; 0xffffffb6
     cbc:	02000101 	andeq	r0, r0, #1073741824	; 0x40000000
     cc0:	9e060104 	adflss	f0, f6, f4
     cc4:	01040200 	mrseq	r0, R12_usr
     cc8:	0402002e 	streq	r0, [r2], #-46	; 0xffffffd2
     ccc:	002e0601 	eoreq	r0, lr, r1, lsl #12
     cd0:	36010402 	strcc	r0, [r1], -r2, lsl #8
     cd4:	01040200 	mrseq	r0, R12_usr
     cd8:	04020001 	streq	r0, [r2], #-1
     cdc:	009e0601 	addseq	r0, lr, r1, lsl #12
     ce0:	2e010402 	cdpcs	4, 0, cr0, cr1, cr2, {0}
     ce4:	01040200 	mrseq	r0, R12_usr
     ce8:	2b052e06 	blcs	14c508 <__bss_end__+0x1419b0>
     cec:	06d60a03 	ldrbeq	r0, [r6], r3, lsl #20
     cf0:	06050501 	streq	r0, [r5], -r1, lsl #10
     cf4:	ba061367 	blt	185a98 <__bss_end__+0x17af40>
     cf8:	04042f06 	streq	r2, [r4], #-3846	; 0xfffff0fa
     cfc:	32031805 	andcc	r1, r3, #327680	; 0x50000
     d00:	13050501 	movwne	r0, #21761	; 0x5501
     d04:	78031805 	stmdavc	r3, {r0, r2, fp, ip}
     d08:	13050501 	movwne	r0, #21761	; 0x5501
     d0c:	01062f13 	tsteq	r6, r3, lsl pc
     d10:	01050304 	tsteq	r5, r4, lsl #6
     d14:	7fae0306 	svcvc	0x00ae0306
     d18:	13050501 	movwne	r0, #21761	; 0x5501
     d1c:	13010101 	movwne	r0, #4353	; 0x1101
     d20:	01040106 	tsteq	r4, r6, lsl #2
     d24:	22030705 	andcs	r0, r3, #1310720	; 0x140000
     d28:	06090501 	streq	r0, [r9], -r1, lsl #10
     d2c:	4e05054b 	cfsh32mi	mvfx0, mvfx5, #43
     d30:	18050404 	stmdane	r5, {r2, sl}
     d34:	05013c03 	streq	r3, [r1, #-3075]	; 0xfffff3fd
     d38:	18051305 	stmdane	r5, {r0, r2, r8, r9, ip}
     d3c:	05016903 	streq	r6, [r1, #-2307]	; 0xfffff6fd
     d40:	2f131305 	svccs	0x00131305
     d44:	03060106 	movweq	r0, #24838	; 0x6106
     d48:	18050115 	stmdane	r5, {r0, r2, r4, r8}
     d4c:	05017703 	streq	r7, [r1, #-1795]	; 0xfffff8fd
     d50:	03041505 	movweq	r1, #17669	; 0x4505
     d54:	9f030105 	svcls	0x00030105
     d58:	0505017f 	streq	r0, [r5, #-383]	; 0xfffffe81
     d5c:	01010113 	tsteq	r1, r3, lsl r1
     d60:	04010613 	streq	r0, [r1], #-1555	; 0xfffff9ed
     d64:	03220504 			; <UNDEFINED> instruction: 0x03220504
     d68:	660100df 			; <UNDEFINED> instruction: 0x660100df
     d6c:	1807052e 	stmdane	r7, {r1, r2, r3, r5, r8, sl}
     d70:	42030104 	andmi	r0, r3, #4, 2
     d74:	0609054a 	streq	r0, [r9], -sl, asr #10
     d78:	1505054b 	strne	r0, [r5, #-1355]	; 0xfffffab5
     d7c:	01050404 	tsteq	r5, r4, lsl #8
     d80:	01011e03 	tsteq	r1, r3, lsl #28
     d84:	01062e01 	tsteq	r6, r1, lsl #28
     d88:	05050104 	streq	r0, [r5, #-260]	; 0xfffffefc
     d8c:	06016203 	streq	r6, [r1], -r3, lsl #4
     d90:	04040183 	streq	r0, [r4], #-387	; 0xfffffe7d
     d94:	1d030105 	stfnes	f0, [r3, #-20]	; 0xffffffec
     d98:	2e010101 	adfcss	f0, f1, f1
     d9c:	01040106 	tsteq	r4, r6, lsl #2
     da0:	63030505 	movwvs	r0, #13573	; 0x3505
     da4:	04020001 	streq	r0, [r2], #-1
     da8:	00660602 	rsbeq	r0, r6, r2, lsl #12
     dac:	01020402 	tsteq	r2, r2, lsl #8
     db0:	02040200 	andeq	r0, r4, #0, 4
     db4:	04020014 	streq	r0, [r2], #-20	; 0xffffffec
     db8:	01820102 	orreq	r0, r2, r2, lsl #2
     dbc:	05040414 	streq	r0, [r4, #-1044]	; 0xfffffbec
     dc0:	013e0318 	teqeq	lr, r8, lsl r3
     dc4:	13130505 	tstne	r3, #20971520	; 0x1400000
     dc8:	0401062f 	streq	r0, [r1], #-1583	; 0xfffff9d1
     dcc:	40030601 	andmi	r0, r3, r1, lsl #12
     dd0:	01056901 	tsteq	r5, r1, lsl #18
     dd4:	0905bb06 	stmdbeq	r5, {r1, r2, r8, r9, fp, ip, sp, pc}
     dd8:	4a700306 	bmi	1c019f8 <__bss_end__+0x1bf6ea0>
     ddc:	01050304 	tsteq	r5, r4, lsl #6
     de0:	05667403 	strbeq	r7, [r6, #-1027]!	; 0xfffffbfd
     de4:	01011305 	tsteq	r1, r5, lsl #6
     de8:	01011301 	tsteq	r1, r1, lsl #6
     dec:	01061301 	tsteq	r6, r1, lsl #6
     df0:	01750306 	cmneq	r5, r6, lsl #6
     df4:	01010114 	tsteq	r1, r4, lsl r1
     df8:	06160513 			; <UNDEFINED> instruction: 0x06160513
     dfc:	04042e1a 	streq	r2, [r4], #-3610	; 0xfffff1e6
     e00:	c3032205 	movwgt	r2, #12805	; 0x3205
     e04:	059e0100 	ldreq	r0, [lr, #256]	; 0x100
     e08:	051a0609 	ldreq	r0, [sl, #-1545]	; 0xfffff9f7
     e0c:	01051505 	tsteq	r5, r5, lsl #10
     e10:	01016003 	tsteq	r1, r3
     e14:	01062e01 	tsteq	r6, r1, lsl #28
     e18:	03060304 	movweq	r0, #25348	; 0x6304
     e1c:	0505014f 	streq	r0, [r5, #-335]	; 0xfffffeb1
     e20:	01010113 	tsteq	r1, r3, lsl r1
     e24:	01010113 	tsteq	r1, r3, lsl r1
     e28:	060f0513 			; <UNDEFINED> instruction: 0x060f0513
     e2c:	05052e01 	streq	r2, [r5, #-3585]	; 0xfffff1ff
     e30:	01750306 	cmneq	r5, r6, lsl #6
     e34:	01010114 	tsteq	r1, r4, lsl r1
     e38:	06160513 			; <UNDEFINED> instruction: 0x06160513
     e3c:	04042e1a 	streq	r2, [r4], #-3610	; 0xfffff1e6
     e40:	ce032705 	cdpgt	7, 0, cr2, cr3, cr5, {0}
     e44:	01040100 	mrseq	r0, (UNDEF: 20)
     e48:	03060905 	movweq	r0, #26885	; 0x6905
     e4c:	01827fbe 			; <UNDEFINED> instruction: 0x01827fbe
     e50:	0005059e 	muleq	r5, lr, r5
     e54:	32010402 	andcc	r0, r1, #33554432	; 0x2000000
     e58:	01040200 	mrseq	r0, R12_usr
     e5c:	04020001 	streq	r0, [r2], #-1
     e60:	0200d601 	andeq	sp, r0, #1048576	; 0x100000
     e64:	00300104 	eorseq	r0, r0, r4, lsl #2
     e68:	01010402 	tsteq	r1, r2, lsl #8
     e6c:	01040200 	mrseq	r0, R12_usr
     e70:	031805d6 	tsteq	r8, #897581056	; 0x35800000
     e74:	05900809 	ldreq	r0, [r0, #2057]	; 0x809
     e78:	0b034b05 	bleq	d3a94 <__bss_end__+0xc8f3c>
     e7c:	03180501 	tsteq	r8, #4194304	; 0x400000
     e80:	05017fb9 	streq	r7, [r1, #-4025]	; 0xfffff047
     e84:	2f131305 	svccs	0x00131305
     e88:	03060106 	movweq	r0, #24838	; 0x6106
     e8c:	010100c5 	smlabteq	r1, r5, r0, r0
     e90:	01050304 	tsteq	r5, r4, lsl #6
     e94:	017fba03 	cmneq	pc, r3, lsl #20
     e98:	01130505 	tsteq	r3, r5, lsl #10
     e9c:	06130101 	ldreq	r0, [r3], -r1, lsl #2
     ea0:	03010401 	movweq	r0, #5121	; 0x1401
     ea4:	060100c4 	streq	r0, [r1], -r4, asr #1
     ea8:	0113014a 	tsteq	r3, sl, asr #2
     eac:	01050304 	tsteq	r5, r4, lsl #6
     eb0:	017fb903 	cmneq	pc, r3, lsl #18
     eb4:	01130505 	tsteq	r3, r5, lsl #10
     eb8:	06130101 	ldreq	r0, [r3], -r1, lsl #2
     ebc:	03010401 	movweq	r0, #5121	; 0x1401
     ec0:	060100c5 	streq	r0, [r1], -r5, asr #1
     ec4:	0113014a 	tsteq	r3, sl, asr #2
     ec8:	01050304 	tsteq	r5, r4, lsl #6
     ecc:	05015303 	streq	r5, [r1, #-771]	; 0xfffffcfd
     ed0:	01011305 	tsteq	r1, r5, lsl #6
     ed4:	01011301 	tsteq	r1, r1, lsl #6
     ed8:	01061301 	tsteq	r6, r1, lsl #6
     edc:	01750306 	cmneq	r5, r6, lsl #6
     ee0:	01010114 	tsteq	r1, r4, lsl r1
     ee4:	06010413 			; <UNDEFINED> instruction: 0x06010413
     ee8:	06013203 	streq	r3, [r1], -r3, lsl #4
     eec:	0113014a 	tsteq	r3, sl, asr #2
     ef0:	01050304 	tsteq	r5, r4, lsl #6
     ef4:	05015203 	streq	r5, [r1, #-515]	; 0xfffffdfd
     ef8:	01011305 	tsteq	r1, r5, lsl #6
     efc:	01011301 	tsteq	r1, r1, lsl #6
     f00:	01061301 	tsteq	r6, r1, lsl #6
     f04:	01750306 	cmneq	r5, r6, lsl #6
     f08:	01010114 	tsteq	r1, r4, lsl r1
     f0c:	06010413 			; <UNDEFINED> instruction: 0x06010413
     f10:	06013303 	streq	r3, [r1], -r3, lsl #6
     f14:	0414014a 	ldreq	r0, [r4], #-330	; 0xfffffeb6
     f18:	03010503 	movweq	r0, #5379	; 0x1503
     f1c:	05017fa5 	streq	r7, [r1, #-4005]	; 0xfffff05b
     f20:	01011305 	tsteq	r1, r5, lsl #6
     f24:	0e051301 	cdpeq	3, 0, cr1, cr5, cr1, {0}
     f28:	042e0106 	strteq	r0, [lr], #-262	; 0xfffffefa
     f2c:	06140501 	ldreq	r0, [r4], -r1, lsl #10
     f30:	05011203 	streq	r1, [r1, #-515]	; 0xfffffdfd
     f34:	2e061305 	cdpcs	3, 0, cr1, cr6, cr5, {0}
     f38:	00c70306 	sbceq	r0, r7, r6, lsl #6
     f3c:	03180501 	tsteq	r8, #4194304	; 0x400000
     f40:	05017fb2 	streq	r7, [r1, #-4018]	; 0xfffff04e
     f44:	2f131305 	svccs	0x00131305
     f48:	03060106 	movweq	r0, #24838	; 0x6106
     f4c:	010100cc 	smlabteq	r1, ip, r0, r0
     f50:	01050304 	tsteq	r5, r4, lsl #6
     f54:	017fb303 	cmneq	pc, r3, lsl #6
     f58:	01130505 	tsteq	r3, r5, lsl #10
     f5c:	06130101 	ldreq	r0, [r3], -r1, lsl #2
     f60:	03010401 	movweq	r0, #5121	; 0x1401
     f64:	060100cb 	streq	r0, [r1], -fp, asr #1
     f68:	0113014a 	tsteq	r3, sl, asr #2
     f6c:	01050304 	tsteq	r5, r4, lsl #6
     f70:	017fb203 	cmneq	pc, r3, lsl #4
     f74:	01130505 	tsteq	r3, r5, lsl #10
     f78:	06130101 	ldreq	r0, [r3], -r1, lsl #2
     f7c:	03010401 	movweq	r0, #5121	; 0x1401
     f80:	060100cc 	streq	r0, [r1], -ip, asr #1
     f84:	0414014a 	ldreq	r0, [r4], #-330	; 0xfffffeb6
     f88:	03140502 	tsteq	r4, #8388608	; 0x800000
     f8c:	05017f97 	streq	r7, [r1, #-3991]	; 0xfffff069
     f90:	06131305 	ldreq	r1, [r3], -r5, lsl #6
     f94:	0501042e 	streq	r0, [r1, #-1070]	; 0xfffffbd2
     f98:	00ea0301 	rsceq	r0, sl, r1, lsl #6
     f9c:	0005052e 	andeq	r0, r5, lr, lsr #10
     fa0:	06010402 	streq	r0, [r1], -r2, lsl #8
     fa4:	004a7303 	subeq	r7, sl, r3, lsl #6
     fa8:	01010402 	tsteq	r1, r2, lsl #8
     fac:	01040200 	mrseq	r0, R12_usr
     fb0:	02002e06 	andeq	r2, r0, #6, 28	; 0x60
     fb4:	ba060104 	blt	1813cc <__bss_end__+0x176874>
     fb8:	01040200 	mrseq	r0, R12_usr
     fbc:	0402002f 	streq	r0, [r2], #-47	; 0xffffffd1
     fc0:	02000101 	andeq	r0, r0, #1073741824	; 0x40000000
     fc4:	2e060104 	adfcss	f0, f6, f4
     fc8:	01040200 	mrseq	r0, R12_usr
     fcc:	0200ba06 	andeq	fp, r0, #24576	; 0x6000
     fd0:	002f0104 	eoreq	r0, pc, r4, lsl #2
     fd4:	01010402 	tsteq	r1, r2, lsl #8
     fd8:	01040200 	mrseq	r0, R12_usr
     fdc:	02002e06 	andeq	r2, r0, #6, 28	; 0x60
     fe0:	ba060104 	blt	1813f8 <__bss_end__+0x1768a0>
     fe4:	01040200 	mrseq	r0, R12_usr
     fe8:	0402002f 	streq	r0, [r2], #-47	; 0xffffffd1
     fec:	02000101 	andeq	r0, r0, #1073741824	; 0x40000000
     ff0:	2e060104 	adfcss	f0, f6, f4
     ff4:	01040200 	mrseq	r0, R12_usr
     ff8:	0200ba06 	andeq	fp, r0, #24576	; 0x6000
     ffc:	00320104 	eorseq	r0, r2, r4, lsl #2
    1000:	01010402 	tsteq	r1, r2, lsl #8
    1004:	01040200 	mrseq	r0, R12_usr
    1008:	02002e06 	andeq	r2, r0, #6, 28	; 0x60
    100c:	ba060104 	blt	181424 <__bss_end__+0x1768cc>
    1010:	01040200 	mrseq	r0, R12_usr
    1014:	0402002f 	streq	r0, [r2], #-47	; 0xffffffd1
    1018:	02000101 	andeq	r0, r0, #1073741824	; 0x40000000
    101c:	2e060104 	adfcss	f0, f6, f4
    1020:	01040200 	mrseq	r0, R12_usr
    1024:	3305ba06 	movwcc	fp, #23046	; 0x5a06
    1028:	0800c503 	stmdaeq	r0, {r0, r1, r8, sl, lr, pc}
    102c:	05010620 	streq	r0, [r1, #-1568]	; 0xfffff9e0
    1030:	064b0605 	strbeq	r0, [fp], -r5, lsl #12
    1034:	052f062e 	streq	r0, [pc, #-1582]!	; a0e <__code_start__-0x75f2>
    1038:	05010614 	streq	r0, [r1, #-1556]	; 0xfffff9ec
    103c:	29054b01 	stmdbcs	r5, {r0, r8, r9, fp, lr}
    1040:	01064e06 	tsteq	r6, r6, lsl #28
    1044:	68060505 	stmdavs	r6, {r0, r2, r8, sl}
    1048:	18050404 	stmdane	r5, {r2, sl}
    104c:	1305050e 	movwne	r0, #21774	; 0x550e
    1050:	71031805 	tstvc	r3, r5, lsl #16
    1054:	13050501 	movwne	r0, #21761	; 0x5501
    1058:	01062f13 	tsteq	r6, r3, lsl pc
    105c:	03061805 	movweq	r1, #26629	; 0x6805
    1060:	05050151 	streq	r0, [r5, #-337]	; 0xfffffeaf
    1064:	05030415 	streq	r0, [r3, #-1045]	; 0xfffffbeb
    1068:	7f9f0301 	svcvc	0x009f0301
    106c:	13050501 	movwne	r0, #21761	; 0x5501
    1070:	13010101 	movwne	r0, #4353	; 0x1101
    1074:	04040106 	streq	r0, [r4], #-262	; 0xfffffefa
    1078:	df032205 	svcle	0x00032205
    107c:	2e660100 	powcss	f0, f6, f0
    1080:	38030705 	stmdacc	r3, {r0, r2, r8, r9, sl}
    1084:	4d010401 	cfstrsmi	mvf0, [r1, #-4]
    1088:	4b060905 	blmi	1834a4 <__bss_end__+0x17894c>
    108c:	01190505 	tsteq	r9, r5, lsl #10
    1090:	02040200 	andeq	r0, r4, #0, 4
    1094:	04020082 	streq	r0, [r2], #-130	; 0xffffff7e
    1098:	02000102 	andeq	r0, r0, #-2147483648	; 0x80000000
    109c:	04130204 	ldreq	r0, [r3], #-516	; 0xfffffdfc
    10a0:	00180504 	andseq	r0, r8, r4, lsl #10
    10a4:	03020402 	movweq	r0, #9218	; 0x2402
    10a8:	0505014b 	streq	r0, [r5, #-331]	; 0xfffffeb5
    10ac:	02040200 	andeq	r0, r4, #0, 4
    10b0:	04020013 	streq	r0, [r2], #-19	; 0xffffffed
    10b4:	02001302 	andeq	r1, r0, #134217728	; 0x8000000
    10b8:	002f0204 	eoreq	r0, pc, r4, lsl #4
    10bc:	06020402 	streq	r0, [r2], -r2, lsl #8
    10c0:	00010401 	andeq	r0, r1, r1, lsl #8
    10c4:	03020402 	movweq	r0, #9218	; 0x2402
    10c8:	02000132 	andeq	r0, r0, #-2147483636	; 0x8000000c
    10cc:	052e0204 	streq	r0, [lr, #-516]!	; 0xfffffdfc
    10d0:	04020001 	streq	r0, [r2], #-1
    10d4:	03042f02 	movweq	r2, #20226	; 0x4f02
    10d8:	7ef50306 	cdpvc	3, 15, cr0, cr5, cr6, {0}
    10dc:	1305054a 	movwne	r0, #21834	; 0x554a
    10e0:	13010101 	movwne	r0, #4353	; 0x1101
    10e4:	13010101 	movwne	r0, #4353	; 0x1101
    10e8:	03060106 	movweq	r0, #24838	; 0x6106
    10ec:	01140175 	tsteq	r4, r5, ror r1
    10f0:	05130101 	ldreq	r0, [r3, #-257]	; 0xfffffeff
    10f4:	2e1a0616 	mrccs	6, 0, r0, cr10, cr6, {0}
    10f8:	22050404 	andcs	r0, r5, #4, 8	; 0x4000000
    10fc:	0100c303 	tsteq	r0, r3, lsl #6
    1100:	0605059e 			; <UNDEFINED> instruction: 0x0605059e
    1104:	05013b03 	streq	r3, [r1, #-2819]	; 0xfffff4fd
    1108:	7fb00301 	svcvc	0x00b00301
    110c:	2e010101 	adfcss	f0, f1, f1
    1110:	03040106 	movweq	r0, #16646	; 0x4106
    1114:	014f0306 	cmpeq	pc, r6, lsl #6
    1118:	01130505 	tsteq	r3, r5, lsl #10
    111c:	01130101 	tsteq	r3, r1, lsl #2
    1120:	05130101 	ldreq	r0, [r3, #-257]	; 0xfffffeff
    1124:	2e01060f 	cfmadd32cs	mvax0, mvfx0, mvfx1, mvfx15
    1128:	03060505 	movweq	r0, #25861	; 0x6505
    112c:	01140175 	tsteq	r4, r5, ror r1
    1130:	05130101 	ldreq	r0, [r3, #-257]	; 0xfffffeff
    1134:	2e1a0616 	mrccs	6, 0, r0, cr10, cr6, {0}
    1138:	27050404 	strcs	r0, [r5, -r4, lsl #8]
    113c:	0100fe03 	tsteq	r0, r3, lsl #28	; <UNPREDICTABLE>
    1140:	09050104 	stmdbeq	r5, {r2, r8}
    1144:	06018306 	streq	r8, [r1], -r6, lsl #6
    1148:	052e0682 	streq	r0, [lr, #-1666]!	; 0xfffff97e
    114c:	04020005 	streq	r0, [r2], #-5
    1150:	02003501 	andeq	r3, r0, #4194304	; 0x400000
    1154:	00010104 	andeq	r0, r1, r4, lsl #2
    1158:	06010402 	streq	r0, [r1], -r2, lsl #8
    115c:	040200ba 	streq	r0, [r2], #-186	; 0xffffff46
    1160:	052e0601 	streq	r0, [lr, #-1537]!	; 0xfffff9ff
    1164:	d60c031d 			; <UNDEFINED> instruction: 0xd60c031d
    1168:	012f0505 			; <UNDEFINED> instruction: 0x012f0505
    116c:	852d059e 	strhi	r0, [sp, #-1438]!	; 0xfffffa62
    1170:	05050106 	streq	r0, [r5, #-262]	; 0xfffffefa
    1174:	01052f06 	tsteq	r5, r6, lsl #30
    1178:	3c054b06 			; <UNDEFINED> instruction: 0x3c054b06
    117c:	01063006 	tsteq	r6, r6
    1180:	4b060505 	blmi	18259c <__bss_end__+0x177a44>
    1184:	2f062e06 	svccs	0x00062e06
    1188:	01061405 	tsteq	r6, r5, lsl #8
    118c:	054b0105 	strbeq	r0, [fp, #-261]	; 0xfffffefb
    1190:	064d062d 	strbeq	r0, [sp], -sp, lsr #12
    1194:	06050501 	streq	r0, [r5], -r1, lsl #10
    1198:	0601052f 	streq	r0, [r1], -pc, lsr #10
    119c:	0621052f 	strteq	r0, [r1], -pc, lsr #10
    11a0:	052e0a03 	streq	r0, [lr, #-2563]!	; 0xfffff5fd
    11a4:	05132f05 	ldreq	r2, [r3, #-3845]	; 0xfffff0fb
    11a8:	05050111 	streq	r0, [r5, #-273]	; 0xfffffeef
    11ac:	0601052f 	streq	r0, [r1], -pc, lsr #10
    11b0:	0628054b 	strteq	r0, [r8], -fp, asr #10
    11b4:	05010630 	streq	r0, [r1, #-1584]	; 0xfffff9d0
    11b8:	052f0605 	streq	r0, [pc, #-1541]!	; bbb <__code_start__-0x7445>
    11bc:	052f0601 	streq	r0, [pc, #-1537]!	; bc3 <__code_start__-0x743d>
    11c0:	05310620 	ldreq	r0, [r1, #-1568]!	; 0xfffff9e0
    11c4:	01052f05 	tsteq	r5, r5, lsl #30
    11c8:	02024b06 	andeq	r4, r2, #6144	; 0x1800
    11cc:	08010100 	stmdaeq	r1, {r8}
    11d0:	03000001 	movweq	r0, #1
    11d4:	0000d600 	andeq	sp, r0, r0, lsl #12
    11d8:	fb010200 	blx	419e2 <__bss_end__+0x36e8a>
    11dc:	01000d0e 	tsteq	r0, lr, lsl #26
    11e0:	00010101 	andeq	r0, r1, r1, lsl #2
    11e4:	00010000 	andeq	r0, r1, r0
    11e8:	2f2e0100 	svccs	0x002e0100
    11ec:	6362696c 	cmnvs	r2, #108, 18	; 0x1b0000
    11f0:	73752f00 	cmnvc	r5, #0, 30
    11f4:	68732f72 	ldmdavs	r3!, {r1, r4, r5, r6, r8, r9, sl, fp, sp}^
    11f8:	2f657261 	svccs	0x00657261
    11fc:	2d636367 	stclcs	3, cr6, [r3, #-412]!	; 0xfffffe64
    1200:	2d6d7261 	sfmcs	f7, 2, [sp, #-388]!	; 0xfffffe7c
    1204:	656e6f6e 	strbvs	r6, [lr, #-3950]!	; 0xfffff092
    1208:	6261652d 	rsbvs	r6, r1, #188743680	; 0xb400000
    120c:	30312d69 	eorscc	r2, r1, r9, ror #26
    1210:	322d332e 	eorcc	r3, sp, #-1207959552	; 0xb8000000
    1214:	2e313230 	mrccs	2, 1, r3, cr1, cr0, {1}
    1218:	6c2f3031 	stcvs	0, cr3, [pc], #-196	; 115c <__code_start__-0x6ea4>
    121c:	672f6269 	strvs	r6, [pc, -r9, ror #4]!
    1220:	612f6363 			; <UNDEFINED> instruction: 0x612f6363
    1224:	6e2d6d72 	mcrvs	13, 1, r6, cr13, cr2, {3}
    1228:	2d656e6f 	stclcs	14, cr6, [r5, #-444]!	; 0xfffffe44
    122c:	69626165 	stmdbvs	r2!, {r0, r2, r5, r6, r8, sp, lr}^
    1230:	2e30312f 	rsfcssp	f3, f0, #10.0
    1234:	2f312e33 	svccs	0x00312e33
    1238:	6c636e69 	stclvs	14, cr6, [r3], #-420	; 0xfffffe5c
    123c:	00656475 	rsbeq	r6, r5, r5, ror r4
    1240:	6d6f682f 	stclvs	8, cr6, [pc, #-188]!	; 118c <__code_start__-0x6e74>
    1244:	6e652f65 	cdpvs	15, 6, cr2, cr5, cr5, {3}
    1248:	72656c67 	rsbvc	r6, r5, #26368	; 0x6700
    124c:	616c632f 	cmnvs	ip, pc, lsr #6
    1250:	632f7373 			; <UNDEFINED> instruction: 0x632f7373
    1254:	30343173 	eorscc	r3, r4, r3, ror r1
    1258:	32322d65 	eorscc	r2, r2, #6464	; 0x1940
    125c:	2f6e6977 	svccs	0x006e6977
    1260:	62696c2f 	rsbvs	r6, r9, #12032	; 0x2f00
    1264:	692f6970 	stmdbvs	pc!, {r4, r5, r6, r8, fp, sp, lr}	; <UNPREDICTABLE>
    1268:	756c636e 	strbvc	r6, [ip, #-878]!	; 0xfffffc92
    126c:	00006564 	andeq	r6, r0, r4, ror #10
    1270:	6e697270 	mcrvs	2, 3, r7, cr9, cr0, {3}
    1274:	632e6b74 			; <UNDEFINED> instruction: 0x632e6b74
    1278:	00000100 	andeq	r0, r0, r0, lsl #2
    127c:	61647473 	smcvs	18243	; 0x4743
    1280:	682e6772 	stmdavs	lr!, {r1, r4, r5, r6, r8, r9, sl, sp, lr}
    1284:	00000200 	andeq	r0, r0, r0, lsl #4
    1288:	6975623c 	ldmdbvs	r5!, {r2, r3, r4, r5, r9, sp, lr}^
    128c:	692d746c 	pushvs	{r2, r3, r5, r6, sl, ip, sp, lr}
    1290:	00003e6e 	andeq	r3, r0, lr, ror #28
    1294:	70720000 	rsbsvc	r0, r2, r0
    1298:	00682e69 	rsbeq	r2, r8, r9, ror #28
    129c:	76000003 	strvc	r0, [r0], -r3
    12a0:	72702d61 	rsbsvc	r2, r0, #6208	; 0x1840
    12a4:	6b746e69 	blvs	1d1cc50 <__bss_end__+0x1d120f8>
    12a8:	0100682e 	tsteq	r0, lr, lsr #16
    12ac:	05000000 	streq	r0, [r0, #-0]
    12b0:	02050022 	andeq	r0, r5, #34	; 0x22
    12b4:	00008dec 	andeq	r8, r0, ip, ror #27
    12b8:	05010617 	streq	r0, [r1, #-1559]	; 0xfffff9e9
    12bc:	13680605 	cmnne	r8, #5242880	; 0x500000
    12c0:	4b090514 	blmi	242718 <__bss_end__+0x237bc0>
    12c4:	01061205 	tsteq	r6, r5, lsl #4
    12c8:	bb060505 	bllt	1826e4 <__bss_end__+0x177b8c>
    12cc:	06660616 			; <UNDEFINED> instruction: 0x06660616
    12d0:	06010534 			; <UNDEFINED> instruction: 0x06010534
    12d4:	08026613 	stmdaeq	r2, {r0, r1, r4, r9, sl, sp, lr}
    12d8:	c9010100 	stmdbgt	r1, {r8}
    12dc:	03000000 	movweq	r0, #0
    12e0:	00008100 	andeq	r8, r0, r0, lsl #2
    12e4:	fb010200 	blx	41aee <__bss_end__+0x36f96>
    12e8:	01000d0e 	tsteq	r0, lr, lsl #26
    12ec:	00010101 	andeq	r0, r1, r1, lsl #2
    12f0:	00010000 	andeq	r0, r1, r0
    12f4:	2f2e0100 	svccs	0x002e0100
    12f8:	6362696c 	cmnvs	r2, #108, 18	; 0x1b0000
    12fc:	73752f00 	cmnvc	r5, #0, 30
    1300:	68732f72 	ldmdavs	r3!, {r1, r4, r5, r6, r8, r9, sl, fp, sp}^
    1304:	2f657261 	svccs	0x00657261
    1308:	2d636367 	stclcs	3, cr6, [r3, #-412]!	; 0xfffffe64
    130c:	2d6d7261 	sfmcs	f7, 2, [sp, #-388]!	; 0xfffffe7c
    1310:	656e6f6e 	strbvs	r6, [lr, #-3950]!	; 0xfffff092
    1314:	6261652d 	rsbvs	r6, r1, #188743680	; 0xb400000
    1318:	30312d69 	eorscc	r2, r1, r9, ror #26
    131c:	322d332e 	eorcc	r3, sp, #-1207959552	; 0xb8000000
    1320:	2e313230 	mrccs	2, 1, r3, cr1, cr0, {1}
    1324:	6c2f3031 	stcvs	0, cr3, [pc], #-196	; 1268 <__code_start__-0x6d98>
    1328:	672f6269 	strvs	r6, [pc, -r9, ror #4]!
    132c:	612f6363 			; <UNDEFINED> instruction: 0x612f6363
    1330:	6e2d6d72 	mcrvs	13, 1, r6, cr13, cr2, {3}
    1334:	2d656e6f 	stclcs	14, cr6, [r5, #-444]!	; 0xfffffe44
    1338:	69626165 	stmdbvs	r2!, {r0, r2, r5, r6, r8, sp, lr}^
    133c:	2e30312f 	rsfcssp	f3, f0, #10.0
    1340:	2f312e33 	svccs	0x00312e33
    1344:	6c636e69 	stclvs	14, cr6, [r3], #-420	; 0xfffffe5c
    1348:	00656475 	rsbeq	r6, r5, r5, ror r4
    134c:	72747300 	rsbsvc	r7, r4, #0, 6
    1350:	2e6e656c 	cdpcs	5, 6, cr6, cr14, cr12, {3}
    1354:	00010063 	andeq	r0, r1, r3, rrx
    1358:	64747300 	ldrbtvs	r7, [r4], #-768	; 0xfffffd00
    135c:	2e666564 	cdpcs	5, 6, cr6, cr6, cr4, {3}
    1360:	00020068 	andeq	r0, r2, r8, rrx
    1364:	1e050000 	cdpne	0, 0, cr0, cr5, cr0, {0}
    1368:	44020500 	strmi	r0, [r2], #-1280	; 0xfffffb00
    136c:	1400008e 	strne	r0, [r0], #-142	; 0xffffff72
    1370:	05050106 	streq	r0, [r5, #-262]	; 0xfffffefa
    1374:	05132f06 	ldreq	r2, [r3, #-3846]	; 0xfffff0fa
    1378:	0501060e 	streq	r0, [r1, #-1550]	; 0xfffff9f2
    137c:	09052e05 	stmdbeq	r5, {r0, r2, r9, sl, fp, sp}
    1380:	03040200 	movweq	r0, #16896	; 0x4200
    1384:	1b052f06 	blne	14cfa4 <__bss_end__+0x14244c>
    1388:	03040200 	movweq	r0, #16896	; 0x4200
    138c:	00130511 	andseq	r0, r3, r1, lsl r5
    1390:	2e010402 	cdpcs	4, 0, cr0, cr1, cr2, {0}
    1394:	02001405 	andeq	r1, r0, #83886080	; 0x5000000
    1398:	01060104 	tsteq	r6, r4, lsl #2
    139c:	02000505 	andeq	r0, r0, #20971520	; 0x1400000
    13a0:	022e0104 	eoreq	r0, lr, #4, 2
    13a4:	01010006 	tsteq	r1, r6
    13a8:	00000068 	andeq	r0, r0, r8, rrx
    13ac:	00260003 	eoreq	r0, r6, r3
    13b0:	01020000 	mrseq	r0, (UNDEF: 2)
    13b4:	000d0efb 	strdeq	r0, [sp], -fp
    13b8:	01010101 	tsteq	r1, r1, lsl #2
    13bc:	01000000 	mrseq	r0, (UNDEF: 0)
    13c0:	2e010000 	cdpcs	0, 0, cr0, cr1, cr0, {0}
    13c4:	62696c2f 	rsbvs	r6, r9, #12032	; 0x2f00
    13c8:	73000063 	movwvc	r0, #99	; 0x63
    13cc:	70637274 	rsbvc	r7, r3, r4, ror r2
    13d0:	00632e79 	rsbeq	r2, r3, r9, ror lr
    13d4:	00000001 	andeq	r0, r0, r1
    13d8:	05002a05 	streq	r2, [r0, #-2565]	; 0xfffff5fb
    13dc:	008e6402 	addeq	r6, lr, r2, lsl #8
    13e0:	05051400 	streq	r1, [r5, #-1024]	; 0xfffffc00
    13e4:	14051313 	strne	r1, [r5], #-787	; 0xfffffced
    13e8:	22051106 	andcs	r1, r5, #-2147483647	; 0x80000001
    13ec:	01040200 	mrseq	r0, R12_usr
    13f0:	0b052f06 	bleq	14d010 <__bss_end__+0x1424b8>
    13f4:	01040200 	mrseq	r0, R12_usr
    13f8:	00150501 	andseq	r0, r5, r1, lsl #10
    13fc:	06010402 	streq	r0, [r1], -r2, lsl #8
    1400:	00130501 	andseq	r0, r3, r1, lsl #10
    1404:	4a010402 	bmi	42414 <__bss_end__+0x378bc>
    1408:	02000b05 	andeq	r0, r0, #5120	; 0x1400
    140c:	024a0104 	subeq	r0, sl, #4, 2
    1410:	01010006 	tsteq	r1, r6
    1414:	00000168 	andeq	r0, r0, r8, ror #2
    1418:	00810003 	addeq	r0, r1, r3
    141c:	01020000 	mrseq	r0, (UNDEF: 2)
    1420:	000d0efb 	strdeq	r0, [sp], -fp
    1424:	01010101 	tsteq	r1, r1, lsl #2
    1428:	01000000 	mrseq	r0, (UNDEF: 0)
    142c:	2e010000 	cdpcs	0, 0, cr0, cr1, cr0, {0}
    1430:	62696c2f 	rsbvs	r6, r9, #12032	; 0x2f00
    1434:	752f0063 	strvc	r0, [pc, #-99]!	; 13d9 <__code_start__-0x6c27>
    1438:	732f7273 			; <UNDEFINED> instruction: 0x732f7273
    143c:	65726168 	ldrbvs	r6, [r2, #-360]!	; 0xfffffe98
    1440:	6363672f 	cmnvs	r3, #12320768	; 0xbc0000
    1444:	6d72612d 	ldfvse	f6, [r2, #-180]!	; 0xffffff4c
    1448:	6e6f6e2d 	cdpvs	14, 6, cr6, cr15, cr13, {1}
    144c:	61652d65 	cmnvs	r5, r5, ror #26
    1450:	312d6962 			; <UNDEFINED> instruction: 0x312d6962
    1454:	2d332e30 	ldccs	14, cr2, [r3, #-192]!	; 0xffffff40
    1458:	31323032 	teqcc	r2, r2, lsr r0
    145c:	2f30312e 	svccs	0x0030312e
    1460:	2f62696c 	svccs	0x0062696c
    1464:	2f636367 	svccs	0x00636367
    1468:	2d6d7261 	sfmcs	f7, 2, [sp, #-388]!	; 0xfffffe7c
    146c:	656e6f6e 	strbvs	r6, [lr, #-3950]!	; 0xfffff092
    1470:	6261652d 	rsbvs	r6, r1, #188743680	; 0xb400000
    1474:	30312f69 	eorscc	r2, r1, r9, ror #30
    1478:	312e332e 			; <UNDEFINED> instruction: 0x312e332e
    147c:	636e692f 	cmnvs	lr, #770048	; 0xbc000
    1480:	6564756c 	strbvs	r7, [r4, #-1388]!	; 0xfffffa94
    1484:	656d0000 	strbvs	r0, [sp, #-0]!
    1488:	7970636d 	ldmdbvc	r0!, {r0, r2, r3, r5, r6, r8, r9, sp, lr}^
    148c:	0100632e 	tsteq	r0, lr, lsr #6
    1490:	74730000 	ldrbtvc	r0, [r3], #-0
    1494:	66656464 	strbtvs	r6, [r5], -r4, ror #8
    1498:	0200682e 	andeq	r6, r0, #3014656	; 0x2e0000
    149c:	05000000 	streq	r0, [r0, #-0]
    14a0:	02050039 	andeq	r0, r5, #57	; 0x39
    14a4:	00008e84 	andeq	r8, r0, r4, lsl #29
    14a8:	17050517 	smladne	r5, r7, r5, r0
    14ac:	01060705 	tsteq	r6, r5, lsl #14
    14b0:	02001605 	andeq	r1, r0, #5242880	; 0x500000
    14b4:	054a0104 	strbeq	r0, [sl, #-260]	; 0xfffffefc
    14b8:	04020027 	streq	r0, [r2], #-39	; 0xffffffd9
    14bc:	09054a02 	stmdbeq	r5, {r1, r9, fp, lr}
    14c0:	02040200 	andeq	r0, r4, #0, 4
    14c4:	02004b06 	andeq	r4, r0, #6144	; 0x1800
    14c8:	00010204 	andeq	r0, r1, r4, lsl #4
    14cc:	01020402 	tsteq	r2, r2, lsl #8
    14d0:	02040200 	andeq	r0, r4, #0, 4
    14d4:	04020001 	streq	r0, [r2], #-1
    14d8:	12051302 	andne	r1, r5, #134217728	; 0x8000000
    14dc:	02040200 	andeq	r0, r4, #0, 4
    14e0:	09050106 	stmdbeq	r5, {r1, r2, r8}
    14e4:	02040200 	andeq	r0, r4, #0, 4
    14e8:	02002f06 	andeq	r2, r0, #6, 30
    14ec:	00130204 	andseq	r0, r3, r4, lsl #4
    14f0:	14020402 	strne	r0, [r2], #-1026	; 0xfffffbfe
    14f4:	02000d05 	andeq	r0, r0, #320	; 0x140
    14f8:	05010204 	streq	r0, [r1, #-516]	; 0xfffffdfc
    14fc:	04020009 	streq	r0, [r2], #-9
    1500:	05010602 	streq	r0, [r1, #-1538]	; 0xfffff9fe
    1504:	0402000d 	streq	r0, [r2], #-13
    1508:	052f0603 	streq	r0, [pc, #-1539]!	; f0d <__code_start__-0x70f3>
    150c:	04020015 	streq	r0, [r2], #-21	; 0xffffffeb
    1510:	05010603 	streq	r0, [r1, #-1539]	; 0xfffff9fd
    1514:	04020012 	streq	r0, [r2], #-18	; 0xffffffee
    1518:	24052e03 	strcs	r2, [r5], #-3587	; 0xfffff1fd
    151c:	03040200 	movweq	r0, #16896	; 0x4200
    1520:	25052d06 	strcs	r2, [r5, #-3334]	; 0xfffff2fa
    1524:	03040200 	movweq	r0, #16896	; 0x4200
    1528:	1d050106 	stfnes	f0, [r5, #-24]	; 0xffffffe8
    152c:	01040200 	mrseq	r0, R12_usr
    1530:	09052e06 	stmdbeq	r5, {r1, r2, r9, sl, fp, sp}
    1534:	01040200 	mrseq	r0, R12_usr
    1538:	02000106 	andeq	r0, r0, #-2147483647	; 0x80000001
    153c:	05660104 	strbeq	r0, [r6, #-260]!	; 0xfffffefc
    1540:	0402000d 	streq	r0, [r2], #-13
    1544:	05180603 	ldreq	r0, [r8, #-1539]	; 0xfffff9fd
    1548:	04020015 	streq	r0, [r2], #-21	; 0xffffffeb
    154c:	05010603 	streq	r0, [r1, #-1539]	; 0xfffff9fd
    1550:	04020012 	streq	r0, [r2], #-18	; 0xffffffee
    1554:	29052e03 	stmdbcs	r5, {r0, r1, r9, sl, fp, sp}
    1558:	03040200 	movweq	r0, #16896	; 0x4200
    155c:	2a052d06 	bcs	14c97c <__bss_end__+0x141e24>
    1560:	03040200 	movweq	r0, #16896	; 0x4200
    1564:	1d050106 	stfnes	f0, [r5, #-24]	; 0xffffffe8
    1568:	01040200 	mrseq	r0, R12_usr
    156c:	09052e06 	stmdbeq	r5, {r1, r2, r9, sl, fp, sp}
    1570:	01040200 	mrseq	r0, R12_usr
    1574:	02000106 	andeq	r0, r0, #-2147483647	; 0x80000001
    1578:	02660104 	rsbeq	r0, r6, #4, 2
    157c:	01010008 	tsteq	r1, r8
    1580:	000000a3 	andeq	r0, r0, r3, lsr #1
    1584:	005c0003 	subseq	r0, ip, r3
    1588:	01020000 	mrseq	r0, (UNDEF: 2)
    158c:	000d0efb 	strdeq	r0, [sp], -fp
    1590:	01010101 	tsteq	r1, r1, lsl #2
    1594:	01000000 	mrseq	r0, (UNDEF: 0)
    1598:	2e010000 	cdpcs	0, 0, cr0, cr1, cr0, {0}
    159c:	62696c2f 	rsbvs	r6, r9, #12032	; 0x2f00
    15a0:	682f0063 	stmdavs	pc!, {r0, r1, r5, r6}	; <UNPREDICTABLE>
    15a4:	2f656d6f 	svccs	0x00656d6f
    15a8:	6c676e65 	stclvs	14, cr6, [r7], #-404	; 0xfffffe6c
    15ac:	632f7265 			; <UNDEFINED> instruction: 0x632f7265
    15b0:	7373616c 	cmnvc	r3, #108, 2
    15b4:	3173632f 	cmncc	r3, pc, lsr #6
    15b8:	2d653034 	stclcs	0, cr3, [r5, #-208]!	; 0xffffff30
    15bc:	69773232 	ldmdbvs	r7!, {r1, r4, r5, r9, ip, sp}^
    15c0:	6c2f2f6e 	stcvs	15, cr2, [pc], #-440	; 1410 <__code_start__-0x6bf0>
    15c4:	69706269 	ldmdbvs	r0!, {r0, r3, r5, r6, r9, sp, lr}^
    15c8:	636e692f 	cmnvs	lr, #770048	; 0xbc000
    15cc:	6564756c 	strbvs	r7, [r4, #-1388]!	; 0xfffffa94
    15d0:	75700000 	ldrbvc	r0, [r0, #-0]!
    15d4:	632e6b74 			; <UNDEFINED> instruction: 0x632e6b74
    15d8:	00000100 	andeq	r0, r0, r0, lsl #2
    15dc:	2e697072 	mcrcs	0, 3, r7, cr9, cr2, {3}
    15e0:	00020068 	andeq	r0, r2, r8, rrx
    15e4:	22050000 	andcs	r0, r5, #0
    15e8:	e4020500 	str	r0, [r2], #-1280	; 0xfffffb00
    15ec:	1500008e 	strne	r0, [r0, #-142]	; 0xffffff72
    15f0:	05050106 	streq	r0, [r5, #-262]	; 0xfffffefa
    15f4:	09054b06 	stmdbeq	r5, {r1, r2, r8, r9, fp, lr}
    15f8:	02040200 	andeq	r0, r4, #0, 4
    15fc:	000f052f 	andeq	r0, pc, pc, lsr #10
    1600:	65020402 	strvs	r0, [r2, #-1026]	; 0xfffffbfe
    1604:	02001005 	andeq	r1, r0, #5
    1608:	01060204 	tsteq	r6, r4, lsl #4
    160c:	02000b05 	andeq	r0, r0, #5120	; 0x1400
    1610:	2e060104 	adfcss	f0, f6, f4
    1614:	02000505 	andeq	r0, r0, #20971520	; 0x1400000
    1618:	2e060104 	adfcss	f0, f6, f4
    161c:	01054e06 	tsteq	r5, r6, lsl #28
    1620:	06021306 	streq	r1, [r2], -r6, lsl #6
    1624:	9d010100 	stflss	f0, [r1, #-0]
    1628:	03000000 	movweq	r0, #0
    162c:	00005f00 	andeq	r5, r0, r0, lsl #30
    1630:	fb010200 	blx	41e3a <__bss_end__+0x372e2>
    1634:	01000d0e 	tsteq	r0, lr, lsl #26
    1638:	00010101 	andeq	r0, r1, r1, lsl #2
    163c:	00010000 	andeq	r0, r1, r0
    1640:	2f2e0100 	svccs	0x002e0100
    1644:	6362696c 	cmnvs	r2, #108, 18	; 0x1b0000
    1648:	6f682f00 	svcvs	0x00682f00
    164c:	652f656d 	strvs	r6, [pc, #-1389]!	; 10e7 <__code_start__-0x6f19>
    1650:	656c676e 	strbvs	r6, [ip, #-1902]!	; 0xfffff892
    1654:	6c632f72 	stclvs	15, cr2, [r3], #-456	; 0xfffffe38
    1658:	2f737361 	svccs	0x00737361
    165c:	34317363 	ldrtcc	r7, [r1], #-867	; 0xfffffc9d
    1660:	322d6530 	eorcc	r6, sp, #48, 10	; 0xc000000
    1664:	6e697732 	mcrvs	7, 3, r7, cr9, cr2, {1}
    1668:	696c2f2f 	stmdbvs	ip!, {r0, r1, r2, r3, r5, r8, r9, sl, fp, sp}^
    166c:	2f697062 	svccs	0x00697062
    1670:	6c636e69 	stclvs	14, cr6, [r3], #-420	; 0xfffffe5c
    1674:	00656475 	rsbeq	r6, r5, r5, ror r4
    1678:	74757000 	ldrbtvc	r7, [r5], #-0
    167c:	72616863 	rsbvc	r6, r1, #6488064	; 0x630000
    1680:	0100632e 	tsteq	r0, lr, lsr #6
    1684:	70720000 	rsbsvc	r0, r2, r0
    1688:	00682e69 	rsbeq	r2, r8, r9, ror #28
    168c:	00000002 	andeq	r0, r0, r2
    1690:	05002405 	streq	r2, [r0, #-1029]	; 0xfffffbfb
    1694:	008f1802 	addeq	r1, pc, r2, lsl #16
    1698:	01061400 	tsteq	r6, r0, lsl #8
    169c:	4a062605 	bmi	18aeb8 <__bss_end__+0x180360>
    16a0:	052e3405 	streq	r3, [lr, #-1029]!	; 0xfffffbfb
    16a4:	0501063e 	streq	r0, [r1, #-1598]	; 0xfffff9c2
    16a8:	054f061b 	strbeq	r0, [pc, #-1563]	; 1095 <__code_start__-0x6f6b>
    16ac:	11051305 	tstne	r5, r5, lsl #6
    16b0:	01050106 	tsteq	r5, r6, lsl #2
    16b4:	06230567 	strteq	r0, [r3], -r7, ror #10
    16b8:	13050567 	movwne	r0, #21863	; 0x5567
    16bc:	01061105 	tsteq	r6, r5, lsl #2
    16c0:	024b0105 	subeq	r0, fp, #1073741825	; 0x40000001
    16c4:	01010004 	tsteq	r1, r4
    16c8:	000000b6 	strheq	r0, [r0], -r6
    16cc:	00810003 	addeq	r0, r1, r3
    16d0:	01020000 	mrseq	r0, (UNDEF: 2)
    16d4:	000d0efb 	strdeq	r0, [sp], -fp
    16d8:	01010101 	tsteq	r1, r1, lsl #2
    16dc:	01000000 	mrseq	r0, (UNDEF: 0)
    16e0:	2e010000 	cdpcs	0, 0, cr0, cr1, cr0, {0}
    16e4:	62696c2f 	rsbvs	r6, r9, #12032	; 0x2f00
    16e8:	752f0063 	strvc	r0, [pc, #-99]!	; 168d <__code_start__-0x6973>
    16ec:	732f7273 			; <UNDEFINED> instruction: 0x732f7273
    16f0:	65726168 	ldrbvs	r6, [r2, #-360]!	; 0xfffffe98
    16f4:	6363672f 	cmnvs	r3, #12320768	; 0xbc0000
    16f8:	6d72612d 	ldfvse	f6, [r2, #-180]!	; 0xffffff4c
    16fc:	6e6f6e2d 	cdpvs	14, 6, cr6, cr15, cr13, {1}
    1700:	61652d65 	cmnvs	r5, r5, ror #26
    1704:	312d6962 			; <UNDEFINED> instruction: 0x312d6962
    1708:	2d332e30 	ldccs	14, cr2, [r3, #-192]!	; 0xffffff40
    170c:	31323032 	teqcc	r2, r2, lsr r0
    1710:	2f30312e 	svccs	0x0030312e
    1714:	2f62696c 	svccs	0x0062696c
    1718:	2f636367 	svccs	0x00636367
    171c:	2d6d7261 	sfmcs	f7, 2, [sp, #-388]!	; 0xfffffe7c
    1720:	656e6f6e 	strbvs	r6, [lr, #-3950]!	; 0xfffff092
    1724:	6261652d 	rsbvs	r6, r1, #188743680	; 0xb400000
    1728:	30312f69 	eorscc	r2, r1, r9, ror #30
    172c:	312e332e 			; <UNDEFINED> instruction: 0x312e332e
    1730:	636e692f 	cmnvs	lr, #770048	; 0xbc000
    1734:	6564756c 	strbvs	r7, [r4, #-1388]!	; 0xfffffa94
    1738:	656d0000 	strbvs	r0, [sp, #-0]!
    173c:	7465736d 	strbtvc	r7, [r5], #-877	; 0xfffffc93
    1740:	0100632e 	tsteq	r0, lr, lsr #6
    1744:	74730000 	ldrbtvc	r0, [r3], #-0
    1748:	66656464 	strbtvs	r6, [r5], -r4, ror #8
    174c:	0200682e 	andeq	r6, r0, #3014656	; 0x2e0000
    1750:	05000000 	streq	r0, [r0, #-0]
    1754:	02050029 	andeq	r0, r5, #41	; 0x29
    1758:	00008f54 	andeq	r8, r0, r4, asr pc
    175c:	13050515 	movwne	r0, #21781	; 0x5515
    1760:	01061405 	tsteq	r6, r5, lsl #8
    1764:	30060505 	andcc	r0, r6, r5, lsl #10
    1768:	10060b05 	andne	r0, r6, r5, lsl #22
    176c:	05300a05 	ldreq	r0, [r0, #-2565]!	; 0xfffff5fb
    1770:	052f0609 	streq	r0, [pc, #-1545]!	; 116f <__code_start__-0x6e91>
    1774:	0501060e 	streq	r0, [r1, #-1550]	; 0xfffff9f2
    1778:	062d060a 	strteq	r0, [sp], -sl, lsl #12
    177c:	0002024a 	andeq	r0, r2, sl, asr #4
    1780:	009b0101 	addseq	r0, fp, r1, lsl #2
    1784:	00030000 	andeq	r0, r3, r0
    1788:	0000007b 	andeq	r0, r0, fp, ror r0
    178c:	0efb0102 	cdpeq	1, 15, cr0, cr11, cr2, {0}
    1790:	0101000d 	tsteq	r1, sp
    1794:	00000101 	andeq	r0, r0, r1, lsl #2
    1798:	00000100 	andeq	r0, r0, r0, lsl #2
    179c:	732f2e01 			; <UNDEFINED> instruction: 0x732f2e01
    17a0:	66666174 			; <UNDEFINED> instruction: 0x66666174
    17a4:	6372732d 	cmnvs	r2, #-1275068416	; 0xb4000000
    17a8:	6f682f00 	svcvs	0x00682f00
    17ac:	652f656d 	strvs	r6, [pc, #-1389]!	; 1247 <__code_start__-0x6db9>
    17b0:	656c676e 	strbvs	r6, [ip, #-1902]!	; 0xfffff892
    17b4:	6c632f72 	stclvs	15, cr2, [r3], #-456	; 0xfffffe38
    17b8:	2f737361 	svccs	0x00737361
    17bc:	34317363 	ldrtcc	r7, [r1], #-867	; 0xfffffc9d
    17c0:	322d6530 	eorcc	r6, sp, #48, 10	; 0xc000000
    17c4:	6e697732 	mcrvs	7, 3, r7, cr9, cr2, {1}
    17c8:	696c2f2f 	stmdbvs	ip!, {r0, r1, r2, r3, r5, r8, r9, sl, fp, sp}^
    17cc:	2f697062 	svccs	0x00697062
    17d0:	6c636e69 	stclvs	14, cr6, [r3], #-420	; 0xfffffe5c
    17d4:	00656475 	rsbeq	r6, r5, r5, ror r4
    17d8:	66656400 	strbtvs	r6, [r5], -r0, lsl #8
    17dc:	746c7561 	strbtvc	r7, [ip], #-1377	; 0xfffffa9f
    17e0:	6e61682d 	cdpvs	8, 6, cr6, cr1, cr13, {1}
    17e4:	72656c64 	rsbvc	r6, r5, #100, 24	; 0x6400
    17e8:	646e752d 	strbtvs	r7, [lr], #-1325	; 0xfffffad3
    17ec:	6e696665 	cdpvs	6, 6, cr6, cr9, cr5, {3}
    17f0:	692d6465 	pushvs	{r0, r2, r5, r6, sl, sp, lr}
    17f4:	2e74736e 	cdpcs	3, 7, cr7, cr4, cr14, {3}
    17f8:	00010063 	andeq	r0, r1, r3, rrx
    17fc:	69707200 	ldmdbvs	r0!, {r9, ip, sp, lr}^
    1800:	0200682e 	andeq	r6, r0, #3014656	; 0x2e0000
    1804:	05000000 	streq	r0, [r0, #-0]
    1808:	02050030 	andeq	r0, r5, #48	; 0x30
    180c:	00008f70 	andeq	r8, r0, r0, ror pc
    1810:	05010613 	streq	r0, [r1, #-1555]	; 0xfffff9ed
    1814:	014a0632 	cmpeq	sl, r2, lsr r6
    1818:	2e06d606 	cfmadd32cs	mvax0, mvfx13, mvfx6, mvfx6
    181c:	01000a02 	tsteq	r0, r2, lsl #20
    1820:	0000f501 	andeq	pc, r0, r1, lsl #10
    1824:	c7000300 	strgt	r0, [r0, -r0, lsl #6]
    1828:	02000000 	andeq	r0, r0, #0
    182c:	0d0efb01 	vstreq	d15, [lr, #-4]
    1830:	01010100 	mrseq	r0, (UNDEF: 17)
    1834:	00000001 	andeq	r0, r0, r1
    1838:	01000001 	tsteq	r0, r1
    183c:	74732f2e 	ldrbtvc	r2, [r3], #-3886	; 0xfffff0d2
    1840:	2d666661 	stclcs	6, cr6, [r6, #-388]!	; 0xfffffe7c
    1844:	00637273 	rsbeq	r7, r3, r3, ror r2
    1848:	6d6f682f 	stclvs	8, cr6, [pc, #-188]!	; 1794 <__code_start__-0x686c>
    184c:	6e652f65 	cdpvs	15, 6, cr2, cr5, cr5, {3}
    1850:	72656c67 	rsbvc	r6, r5, #26368	; 0x6700
    1854:	616c632f 	cmnvs	ip, pc, lsr #6
    1858:	632f7373 			; <UNDEFINED> instruction: 0x632f7373
    185c:	30343173 	eorscc	r3, r4, r3, ror r1
    1860:	32322d65 	eorscc	r2, r2, #6464	; 0x1940
    1864:	2f6e6977 	svccs	0x006e6977
    1868:	62696c2f 	rsbvs	r6, r9, #12032	; 0x2f00
    186c:	692f6970 	stmdbvs	pc!, {r4, r5, r6, r8, fp, sp, lr}	; <UNPREDICTABLE>
    1870:	756c636e 	strbvc	r6, [ip, #-878]!	; 0xfffffc92
    1874:	2f006564 	svccs	0x00006564
    1878:	2f727375 	svccs	0x00727375
    187c:	72616873 	rsbvc	r6, r1, #7536640	; 0x730000
    1880:	63672f65 	cmnvs	r7, #404	; 0x194
    1884:	72612d63 	rsbvc	r2, r1, #6336	; 0x18c0
    1888:	6f6e2d6d 	svcvs	0x006e2d6d
    188c:	652d656e 	strvs	r6, [sp, #-1390]!	; 0xfffffa92
    1890:	2d696261 	sfmcs	f6, 2, [r9, #-388]!	; 0xfffffe7c
    1894:	332e3031 			; <UNDEFINED> instruction: 0x332e3031
    1898:	3230322d 	eorscc	r3, r0, #-805306366	; 0xd0000002
    189c:	30312e31 	eorscc	r2, r1, r1, lsr lr
    18a0:	62696c2f 	rsbvs	r6, r9, #12032	; 0x2f00
    18a4:	6363672f 	cmnvs	r3, #12320768	; 0xbc0000
    18a8:	6d72612f 	ldfvse	f6, [r2, #-188]!	; 0xffffff44
    18ac:	6e6f6e2d 	cdpvs	14, 6, cr6, cr15, cr13, {1}
    18b0:	61652d65 	cmnvs	r5, r5, ror #26
    18b4:	312f6962 			; <UNDEFINED> instruction: 0x312f6962
    18b8:	2e332e30 	mrccs	14, 1, r2, cr3, cr0, {1}
    18bc:	6e692f31 	mcrvs	15, 3, r2, cr9, cr1, {1}
    18c0:	64756c63 	ldrbtvs	r6, [r5], #-3171	; 0xfffff39d
    18c4:	61000065 	tstvs	r0, r5, rrx
    18c8:	682d6d73 	stmdavs	sp!, {r0, r1, r4, r5, r6, r8, sl, fp, sp, lr}
    18cc:	65706c65 	ldrbvs	r6, [r0, #-3173]!	; 0xfffff39b
    18d0:	632e7372 			; <UNDEFINED> instruction: 0x632e7372
    18d4:	00000100 	andeq	r0, r0, r0, lsl #2
    18d8:	2e697072 	mcrcs	0, 3, r7, cr9, cr2, {3}
    18dc:	00020068 	andeq	r0, r2, r8, rrx
    18e0:	64747300 	ldrbtvs	r7, [r4], #-768	; 0xfffffd00
    18e4:	2d746e69 	ldclcs	14, cr6, [r4, #-420]!	; 0xfffffe5c
    18e8:	2e636367 	cdpcs	3, 6, cr6, cr3, cr7, {3}
    18ec:	00030068 	andeq	r0, r3, r8, rrx
    18f0:	2a050000 	bcs	1418f8 <__bss_end__+0x136da0>
    18f4:	ac020500 	cfstr32ge	mvfx0, [r2], {-0}
    18f8:	1400008f 	strne	r0, [r0], #-143	; 0xffffff71
    18fc:	05050106 	streq	r0, [r5, #-262]	; 0xfffffefa
    1900:	06014b06 	streq	r4, [r1], -r6, lsl #22
    1904:	052e069e 	streq	r0, [lr, #-1694]!	; 0xfffff962
    1908:	0106842e 	tsteq	r6, lr, lsr #8
    190c:	4b060505 	blmi	182d28 <__bss_end__+0x1781d0>
    1910:	069e0601 	ldreq	r0, [lr], r1, lsl #12
    1914:	0008022e 	andeq	r0, r8, lr, lsr #4
    1918:	00900101 	addseq	r0, r0, r1, lsl #2
    191c:	00030000 	andeq	r0, r3, r0
    1920:	00000070 	andeq	r0, r0, r0, ror r0
    1924:	0efb0102 	cdpeq	1, 15, cr0, cr11, cr2, {0}
    1928:	0101000d 	tsteq	r1, sp
    192c:	00000101 	andeq	r0, r0, r1, lsl #2
    1930:	00000100 	andeq	r0, r0, r0, lsl #2
    1934:	732f2e01 			; <UNDEFINED> instruction: 0x732f2e01
    1938:	66666174 			; <UNDEFINED> instruction: 0x66666174
    193c:	6372732d 	cmnvs	r2, #-1275068416	; 0xb4000000
    1940:	6f682f00 	svcvs	0x00682f00
    1944:	652f656d 	strvs	r6, [pc, #-1389]!	; 13df <__code_start__-0x6c21>
    1948:	656c676e 	strbvs	r6, [ip, #-1902]!	; 0xfffff892
    194c:	6c632f72 	stclvs	15, cr2, [r3], #-456	; 0xfffffe38
    1950:	2f737361 	svccs	0x00737361
    1954:	34317363 	ldrtcc	r7, [r1], #-867	; 0xfffffc9d
    1958:	322d6530 	eorcc	r6, sp, #48, 10	; 0xc000000
    195c:	6e697732 	mcrvs	7, 3, r7, cr9, cr2, {1}
    1960:	696c2f2f 	stmdbvs	ip!, {r0, r1, r2, r3, r5, r8, r9, sl, fp, sp}^
    1964:	2f697062 	svccs	0x00697062
    1968:	6c636e69 	stclvs	14, cr6, [r3], #-420	; 0xfffffe5c
    196c:	00656475 	rsbeq	r6, r5, r5, ror r4
    1970:	66656400 	strbtvs	r6, [r5], -r0, lsl #8
    1974:	746c7561 	strbtvc	r7, [ip], #-1377	; 0xfffffa9f
    1978:	6e61682d 	cdpvs	8, 6, cr6, cr1, cr13, {1}
    197c:	72656c64 	rsbvc	r6, r5, #100, 24	; 0x6400
    1980:	746e692d 	strbtvc	r6, [lr], #-2349	; 0xfffff6d3
    1984:	0100632e 	tsteq	r0, lr, lsr #6
    1988:	70720000 	rsbsvc	r0, r2, r0
    198c:	00682e69 	rsbeq	r2, r8, r9, ror #28
    1990:	00000002 	andeq	r0, r0, r2
    1994:	05001e05 	streq	r1, [r0, #-3589]	; 0xfffff1fb
    1998:	00900c02 	addseq	r0, r0, r2, lsl #24
    199c:	01061400 	tsteq	r6, r0, lsl #8
    19a0:	4a062005 	bmi	1899bc <__bss_end__+0x17ee64>
    19a4:	06d60601 	ldrbeq	r0, [r6], r1, lsl #12
    19a8:	000a022e 	andeq	r0, sl, lr, lsr #4
    19ac:	00920101 	addseq	r0, r2, r1, lsl #2
    19b0:	00030000 	andeq	r0, r3, r0
    19b4:	00000072 	andeq	r0, r0, r2, ror r0
    19b8:	0efb0102 	cdpeq	1, 15, cr0, cr11, cr2, {0}
    19bc:	0101000d 	tsteq	r1, sp
    19c0:	00000101 	andeq	r0, r0, r1, lsl #2
    19c4:	00000100 	andeq	r0, r0, r0, lsl #2
    19c8:	732f2e01 			; <UNDEFINED> instruction: 0x732f2e01
    19cc:	66666174 			; <UNDEFINED> instruction: 0x66666174
    19d0:	6372732d 	cmnvs	r2, #-1275068416	; 0xb4000000
    19d4:	6f682f00 	svcvs	0x00682f00
    19d8:	652f656d 	strvs	r6, [pc, #-1389]!	; 1473 <__code_start__-0x6b8d>
    19dc:	656c676e 	strbvs	r6, [ip, #-1902]!	; 0xfffff892
    19e0:	6c632f72 	stclvs	15, cr2, [r3], #-456	; 0xfffffe38
    19e4:	2f737361 	svccs	0x00737361
    19e8:	34317363 	ldrtcc	r7, [r1], #-867	; 0xfffffc9d
    19ec:	322d6530 	eorcc	r6, sp, #48, 10	; 0xc000000
    19f0:	6e697732 	mcrvs	7, 3, r7, cr9, cr2, {1}
    19f4:	696c2f2f 	stmdbvs	ip!, {r0, r1, r2, r3, r5, r8, r9, sl, fp, sp}^
    19f8:	2f697062 	svccs	0x00697062
    19fc:	6c636e69 	stclvs	14, cr6, [r3], #-420	; 0xfffffe5c
    1a00:	00656475 	rsbeq	r6, r5, r5, ror r4
    1a04:	66656400 	strbtvs	r6, [r5], -r0, lsl #8
    1a08:	746c7561 	strbtvc	r7, [ip], #-1377	; 0xfffffa9f
    1a0c:	6e61682d 	cdpvs	8, 6, cr6, cr1, cr13, {1}
    1a10:	72656c64 	rsbvc	r6, r5, #100, 24	; 0x6400
    1a14:	7365722d 	cmnvc	r5, #-805306366	; 0xd0000002
    1a18:	632e7465 			; <UNDEFINED> instruction: 0x632e7465
    1a1c:	00000100 	andeq	r0, r0, r0, lsl #2
    1a20:	2e697072 	mcrcs	0, 3, r7, cr9, cr2, {3}
    1a24:	00020068 	andeq	r0, r2, r8, rrx
    1a28:	20050000 	andcs	r0, r5, r0
    1a2c:	48020500 	stmdami	r2, {r8, sl}
    1a30:	13000090 	movwne	r0, #144	; 0x90
    1a34:	22050106 	andcs	r0, r5, #-2147483647	; 0x80000001
    1a38:	06014a06 	streq	r4, [r1], -r6, lsl #20
    1a3c:	022e06d6 	eoreq	r0, lr, #224395264	; 0xd600000
    1a40:	0101000a 	tsteq	r1, sl
    1a44:	00000097 	muleq	r0, r7, r0
    1a48:	00770003 	rsbseq	r0, r7, r3
    1a4c:	01020000 	mrseq	r0, (UNDEF: 2)
    1a50:	000d0efb 	strdeq	r0, [sp], -fp
    1a54:	01010101 	tsteq	r1, r1, lsl #2
    1a58:	01000000 	mrseq	r0, (UNDEF: 0)
    1a5c:	2e010000 	cdpcs	0, 0, cr0, cr1, cr0, {0}
    1a60:	6174732f 	cmnvs	r4, pc, lsr #6
    1a64:	732d6666 			; <UNDEFINED> instruction: 0x732d6666
    1a68:	2f006372 	svccs	0x00006372
    1a6c:	656d6f68 	strbvs	r6, [sp, #-3944]!	; 0xfffff098
    1a70:	676e652f 	strbvs	r6, [lr, -pc, lsr #10]!
    1a74:	2f72656c 	svccs	0x0072656c
    1a78:	73616c63 	cmnvc	r1, #25344	; 0x6300
    1a7c:	73632f73 	cmnvc	r3, #460	; 0x1cc
    1a80:	65303431 	ldrvs	r3, [r0, #-1073]!	; 0xfffffbcf
    1a84:	7732322d 	ldrvc	r3, [r2, -sp, lsr #4]!
    1a88:	2f2f6e69 	svccs	0x002f6e69
    1a8c:	7062696c 	rsbvc	r6, r2, ip, ror #18
    1a90:	6e692f69 	cdpvs	15, 6, cr2, cr9, cr9, {3}
    1a94:	64756c63 	ldrbtvs	r6, [r5], #-3171	; 0xfffff39d
    1a98:	64000065 	strvs	r0, [r0], #-101	; 0xffffff9b
    1a9c:	75616665 	strbvc	r6, [r1, #-1637]!	; 0xfffff99b
    1aa0:	682d746c 	stmdavs	sp!, {r2, r3, r5, r6, sl, ip, sp, lr}
    1aa4:	6c646e61 	stclvs	14, cr6, [r4], #-388	; 0xfffffe7c
    1aa8:	642d7265 	strtvs	r7, [sp], #-613	; 0xfffffd9b
    1aac:	2d617461 	cfstrdcs	mvd7, [r1, #-388]!	; 0xfffffe7c
    1ab0:	726f6261 	rsbvc	r6, pc, #268435462	; 0x10000006
    1ab4:	00632e74 	rsbeq	r2, r3, r4, ror lr
    1ab8:	72000001 	andvc	r0, r0, #1
    1abc:	682e6970 	stmdavs	lr!, {r4, r5, r6, r8, fp, sp, lr}
    1ac0:	00000200 	andeq	r0, r0, r0, lsl #4
    1ac4:	00250500 	eoreq	r0, r5, r0, lsl #10
    1ac8:	90840205 	addls	r0, r4, r5, lsl #4
    1acc:	06130000 	ldreq	r0, [r3], -r0
    1ad0:	06270501 	strteq	r0, [r7], -r1, lsl #10
    1ad4:	d606014a 	strle	r0, [r6], -sl, asr #2
    1ad8:	0a022e06 	beq	8d2f8 <__bss_end__+0x827a0>
    1adc:	a0010100 	andge	r0, r1, r0, lsl #2
    1ae0:	03000000 	movweq	r0, #0
    1ae4:	00006300 	andeq	r6, r0, r0, lsl #6
    1ae8:	fb010200 	blx	422f2 <__bss_end__+0x3779a>
    1aec:	01000d0e 	tsteq	r0, lr, lsl #26
    1af0:	00010101 	andeq	r0, r1, r1, lsl #2
    1af4:	00010000 	andeq	r0, r1, r0
    1af8:	2f2e0100 	svccs	0x002e0100
    1afc:	66617473 			; <UNDEFINED> instruction: 0x66617473
    1b00:	72732d66 	rsbsvc	r2, r3, #6528	; 0x1980
    1b04:	682f0063 	stmdavs	pc!, {r0, r1, r5, r6}	; <UNPREDICTABLE>
    1b08:	2f656d6f 	svccs	0x00656d6f
    1b0c:	6c676e65 	stclvs	14, cr6, [r7], #-404	; 0xfffffe6c
    1b10:	632f7265 			; <UNDEFINED> instruction: 0x632f7265
    1b14:	7373616c 	cmnvc	r3, #108, 2
    1b18:	3173632f 	cmncc	r3, pc, lsr #6
    1b1c:	2d653034 	stclcs	0, cr3, [r5, #-208]!	; 0xffffff30
    1b20:	69773232 	ldmdbvs	r7!, {r1, r4, r5, r9, ip, sp}^
    1b24:	6c2f2f6e 	stcvs	15, cr2, [pc], #-440	; 1974 <__code_start__-0x668c>
    1b28:	69706269 	ldmdbvs	r0!, {r0, r3, r5, r6, r9, sp, lr}^
    1b2c:	636e692f 	cmnvs	lr, #770048	; 0xbc000
    1b30:	6564756c 	strbvs	r7, [r4, #-1388]!	; 0xfffffa94
    1b34:	73630000 	cmnvc	r3, #0
    1b38:	74726174 	ldrbtvc	r6, [r2], #-372	; 0xfffffe8c
    1b3c:	0100632e 	tsteq	r0, lr, lsr #6
    1b40:	70720000 	rsbsvc	r0, r2, r0
    1b44:	00682e69 	rsbeq	r2, r8, r9, ror #28
    1b48:	00000002 	andeq	r0, r0, r2
    1b4c:	05001005 	streq	r1, [r0, #-5]
    1b50:	0090c002 	addseq	ip, r0, r2
    1b54:	05051500 	streq	r1, [r5, #-1280]	; 0xfffffb00
    1b58:	1302052f 	movwne	r0, #9519	; 0x252f
    1b5c:	30140505 	andscc	r0, r4, r5, lsl #10
    1b60:	0a051413 	beq	146bb4 <__bss_end__+0x13c05c>
    1b64:	05310f06 	ldreq	r0, [r1, #-3846]!	; 0xfffff0fa
    1b68:	052f0609 	streq	r0, [pc, #-1545]!	; 1567 <__code_start__-0x6a99>
    1b6c:	05010610 	streq	r0, [r1, #-1552]	; 0xfffff9f0
    1b70:	0549060a 	strbeq	r0, [r9, #-1546]	; 0xfffff9f6
    1b74:	01326905 	teqeq	r2, r5, lsl #18
    1b78:	05144a01 	ldreq	r4, [r4, #-2561]	; 0xfffff5ff
    1b7c:	06022f02 	streq	r2, [r2], -r2, lsl #30
    1b80:	d3010100 	movwle	r0, #4352	; 0x1100
    1b84:	03000000 	movweq	r0, #0
    1b88:	00006300 	andeq	r6, r0, r0, lsl #6
    1b8c:	fb010200 	blx	42396 <__bss_end__+0x3783e>
    1b90:	01000d0e 	tsteq	r0, lr, lsl #26
    1b94:	00010101 	andeq	r0, r1, r1, lsl #2
    1b98:	00010000 	andeq	r0, r1, r0
    1b9c:	2f2e0100 	svccs	0x002e0100
    1ba0:	66617473 			; <UNDEFINED> instruction: 0x66617473
    1ba4:	72732d66 	rsbsvc	r2, r3, #6528	; 0x1980
    1ba8:	682f0063 	stmdavs	pc!, {r0, r1, r5, r6}	; <UNPREDICTABLE>
    1bac:	2f656d6f 	svccs	0x00656d6f
    1bb0:	6c676e65 	stclvs	14, cr6, [r7], #-404	; 0xfffffe6c
    1bb4:	632f7265 			; <UNDEFINED> instruction: 0x632f7265
    1bb8:	7373616c 	cmnvc	r3, #108, 2
    1bbc:	3173632f 	cmncc	r3, pc, lsr #6
    1bc0:	2d653034 	stclcs	0, cr3, [r5, #-208]!	; 0xffffff30
    1bc4:	69773232 	ldmdbvs	r7!, {r1, r4, r5, r9, ip, sp}^
    1bc8:	6c2f2f6e 	stcvs	15, cr2, [pc], #-440	; 1a18 <__code_start__-0x65e8>
    1bcc:	69706269 	ldmdbvs	r0!, {r0, r3, r5, r6, r9, sp, lr}^
    1bd0:	636e692f 	cmnvs	lr, #770048	; 0xbc000
    1bd4:	6564756c 	strbvs	r7, [r4, #-1388]!	; 0xfffffa94
    1bd8:	65720000 	ldrbvs	r0, [r2, #-0]!
    1bdc:	746f6f62 	strbtvc	r6, [pc], #-3938	; 1be4 <__code_start__-0x641c>
    1be0:	0100632e 	tsteq	r0, lr, lsr #6
    1be4:	70720000 	rsbsvc	r0, r2, r0
    1be8:	00682e69 	rsbeq	r2, r8, r9, ror #28
    1bec:	00000002 	andeq	r0, r0, r2
    1bf0:	05001905 	streq	r1, [r0, #-2309]	; 0xfffff6fb
    1bf4:	00910002 	addseq	r0, r1, r2
    1bf8:	010d0300 	mrseq	r0, SP_mon
    1bfc:	13130505 	tstne	r3, #20971520	; 0x1400000
    1c00:	06130531 			; <UNDEFINED> instruction: 0x06130531
    1c04:	2f010501 	svccs	0x00010501
    1c08:	85061b05 	strhi	r1, [r6, #-2821]	; 0xfffff4fb
    1c0c:	14130505 	ldrne	r0, [r3], #-1285	; 0xfffffafb
    1c10:	052f0905 	streq	r0, [pc, #-2309]!	; 1313 <__code_start__-0x6ced>
    1c14:	05010616 	streq	r0, [r1, #-1558]	; 0xfffff9ea
    1c18:	05052e0e 	streq	r2, [r5, #-3598]	; 0xfffff1f2
    1c1c:	01052f06 	tsteq	r5, r6, lsl #30
    1c20:	17052f06 	strne	r2, [r5, -r6, lsl #30]
    1c24:	05053006 	streq	r3, [r5, #-6]
    1c28:	0608052f 	streq	r0, [r8], -pc, lsr #10
    1c2c:	2e070501 	cfsh32cs	mvfx0, mvfx7, #1
    1c30:	03060505 	movweq	r0, #25861	; 0x6505
    1c34:	4d2f4a0b 	vstmdbmi	pc!, {s8-s18}
    1c38:	15131313 	ldrne	r1, [r3, #-787]	; 0xfffffced
    1c3c:	04020067 	streq	r0, [r2], #-103	; 0xffffff99
    1c40:	0d056701 	stceq	7, cr6, [r5, #-4]
    1c44:	01040200 	mrseq	r0, R12_usr
    1c48:	000a0501 	andeq	r0, sl, r1, lsl #10
    1c4c:	01010402 	tsteq	r1, r2, lsl #8
    1c50:	6a030905 	bvs	c406c <__bss_end__+0xb9514>
    1c54:	000c022e 	andeq	r0, ip, lr, lsr #4
    1c58:	00840101 	addeq	r0, r4, r1, lsl #2
    1c5c:	00030000 	andeq	r0, r3, r0
    1c60:	00000069 	andeq	r0, r0, r9, rrx
    1c64:	0efb0102 	cdpeq	1, 15, cr0, cr11, cr2, {0}
    1c68:	0101000d 	tsteq	r1, sp
    1c6c:	00000101 	andeq	r0, r0, r1, lsl #2
    1c70:	00000100 	andeq	r0, r0, r0, lsl #2
    1c74:	732f2e01 			; <UNDEFINED> instruction: 0x732f2e01
    1c78:	66666174 			; <UNDEFINED> instruction: 0x66666174
    1c7c:	6372732d 	cmnvs	r2, #-1275068416	; 0xb4000000
    1c80:	6f682f00 	svcvs	0x00682f00
    1c84:	652f656d 	strvs	r6, [pc, #-1389]!	; 171f <__code_start__-0x68e1>
    1c88:	656c676e 	strbvs	r6, [ip, #-1902]!	; 0xfffff892
    1c8c:	6c632f72 	stclvs	15, cr2, [r3], #-456	; 0xfffffe38
    1c90:	2f737361 	svccs	0x00737361
    1c94:	34317363 	ldrtcc	r7, [r1], #-867	; 0xfffffc9d
    1c98:	322d6530 	eorcc	r6, sp, #48, 10	; 0xc000000
    1c9c:	6e697732 	mcrvs	7, 3, r7, cr9, cr2, {1}
    1ca0:	696c2f2f 	stmdbvs	ip!, {r0, r1, r2, r3, r5, r8, r9, sl, fp, sp}^
    1ca4:	2f697062 	svccs	0x00697062
    1ca8:	6c636e69 	stclvs	14, cr6, [r3], #-420	; 0xfffffe5c
    1cac:	00656475 	rsbeq	r6, r5, r5, ror r4
    1cb0:	656c6300 	strbvs	r6, [ip, #-768]!	; 0xfffffd00
    1cb4:	722d6e61 	eorvc	r6, sp, #1552	; 0x610
    1cb8:	6f6f6265 	svcvs	0x006f6265
    1cbc:	00632e74 	rsbeq	r2, r3, r4, ror lr
    1cc0:	72000001 	andvc	r0, r0, #1
    1cc4:	682e6970 	stmdavs	lr!, {r4, r5, r6, r8, fp, sp, lr}
    1cc8:	00000200 	andeq	r0, r0, r0, lsl #4
    1ccc:	00190500 	andseq	r0, r9, r0, lsl #10
    1cd0:	917c0205 	cmnls	ip, r5, lsl #4
    1cd4:	05150000 	ldreq	r0, [r5, #-0]
    1cd8:	2f832f05 	svccs	0x00832f05
    1cdc:	0006024b 	andeq	r0, r6, fp, asr #4
    1ce0:	00d90101 	sbcseq	r0, r9, r1, lsl #2
    1ce4:	00030000 	andeq	r0, r3, r0
    1ce8:	00000062 	andeq	r0, r0, r2, rrx
    1cec:	0efb0102 	cdpeq	1, 15, cr0, cr11, cr2, {0}
    1cf0:	0101000d 	tsteq	r1, sp
    1cf4:	00000101 	andeq	r0, r0, r1, lsl #2
    1cf8:	00000100 	andeq	r0, r0, r0, lsl #2
    1cfc:	732f2e01 			; <UNDEFINED> instruction: 0x732f2e01
    1d00:	66666174 			; <UNDEFINED> instruction: 0x66666174
    1d04:	6372732d 	cmnvs	r2, #-1275068416	; 0xb4000000
    1d08:	6f682f00 	svcvs	0x00682f00
    1d0c:	652f656d 	strvs	r6, [pc, #-1389]!	; 17a7 <__code_start__-0x6859>
    1d10:	656c676e 	strbvs	r6, [ip, #-1902]!	; 0xfffff892
    1d14:	6c632f72 	stclvs	15, cr2, [r3], #-456	; 0xfffffe38
    1d18:	2f737361 	svccs	0x00737361
    1d1c:	34317363 	ldrtcc	r7, [r1], #-867	; 0xfffffc9d
    1d20:	322d6530 	eorcc	r6, sp, #48, 10	; 0xc000000
    1d24:	6e697732 	mcrvs	7, 3, r7, cr9, cr2, {1}
    1d28:	696c2f2f 	stmdbvs	ip!, {r0, r1, r2, r3, r5, r8, r9, sl, fp, sp}^
    1d2c:	2f697062 	svccs	0x00697062
    1d30:	6c636e69 	stclvs	14, cr6, [r3], #-420	; 0xfffffe5c
    1d34:	00656475 	rsbeq	r6, r5, r5, ror r4
    1d38:	6d697400 	cfstrdvs	mvd7, [r9, #-0]
    1d3c:	632e7265 			; <UNDEFINED> instruction: 0x632e7265
    1d40:	00000100 	andeq	r0, r0, r0, lsl #2
    1d44:	2e697072 	mcrcs	0, 3, r7, cr9, cr2, {3}
    1d48:	00020068 	andeq	r0, r2, r8, rrx
    1d4c:	23050000 	movwcs	r0, #20480	; 0x5000
    1d50:	a8020500 	stmdage	r2, {r8, sl}
    1d54:	15000091 	strne	r0, [r0, #-145]	; 0xffffff6f
    1d58:	052f0505 	streq	r0, [pc, #-1285]!	; 185b <__code_start__-0x67a5>
    1d5c:	0501060c 	streq	r0, [r1, #-1548]	; 0xfffff9f4
    1d60:	1f054b01 	svcne	0x00054b01
    1d64:	05054d06 	streq	r4, [r5, #-3334]	; 0xfffff2fa
    1d68:	12052f31 	andne	r2, r5, #49, 30	; 0xc4
    1d6c:	05050106 	streq	r0, [r5, #-262]	; 0xfffffefa
    1d70:	052f4b06 	streq	r4, [pc, #-2822]!	; 1272 <__code_start__-0x6d8e>
    1d74:	05130601 	ldreq	r0, [r3, #-1537]	; 0xfffff9ff
    1d78:	064c061c 			; <UNDEFINED> instruction: 0x064c061c
    1d7c:	06050501 	streq	r0, [r5], -r1, lsl #10
    1d80:	0613054b 	ldreq	r0, [r3], -fp, asr #10
    1d84:	05052e01 	streq	r2, [r5, #-3585]	; 0xfffff1ff
    1d88:	09052f06 	stmdbeq	r5, {r1, r2, r8, r9, sl, fp, sp}
    1d8c:	06170513 			; <UNDEFINED> instruction: 0x06170513
    1d90:	06090501 	streq	r0, [r9], -r1, lsl #10
    1d94:	0611052f 	ldreq	r0, [r1], -pc, lsr #10
    1d98:	2e0c0501 	cfsh32cs	mvfx0, mvfx12, #1
    1d9c:	6b061c05 	blvs	188db8 <__bss_end__+0x17e260>
    1da0:	05050106 	streq	r0, [r5, #-262]	; 0xfffffefa
    1da4:	4a062f06 	bmi	18d9c4 <__bss_end__+0x182e6c>
    1da8:	054b0105 	strbeq	r0, [fp, #-261]	; 0xfffffefb
    1dac:	062f061e 			; <UNDEFINED> instruction: 0x062f061e
    1db0:	06050501 	streq	r0, [r5], -r1, lsl #10
    1db4:	054a062f 	strbeq	r0, [sl, #-1583]	; 0xfffff9d1
    1db8:	02024b01 	andeq	r4, r2, #1024	; 0x400
    1dbc:	04010100 	streq	r0, [r1], #-256	; 0xffffff00
    1dc0:	03000002 	movweq	r0, #2
    1dc4:	0000c800 	andeq	ip, r0, r0, lsl #16
    1dc8:	fb010200 	blx	425d2 <__bss_end__+0x37a7a>
    1dcc:	01000d0e 	tsteq	r0, lr, lsl #26
    1dd0:	00010101 	andeq	r0, r1, r1, lsl #2
    1dd4:	00010000 	andeq	r0, r1, r0
    1dd8:	682f0100 	stmdavs	pc!, {r8}	; <UNPREDICTABLE>
    1ddc:	2f656d6f 	svccs	0x00656d6f
    1de0:	6c676e65 	stclvs	14, cr6, [r7], #-404	; 0xfffffe6c
    1de4:	632f7265 			; <UNDEFINED> instruction: 0x632f7265
    1de8:	7373616c 	cmnvc	r3, #108, 2
    1dec:	3173632f 	cmncc	r3, pc, lsr #6
    1df0:	2d653034 	stclcs	0, cr3, [r5, #-208]!	; 0xffffff30
    1df4:	69773232 	ldmdbvs	r7!, {r1, r4, r5, r9, ip, sp}^
    1df8:	6c2f2f6e 	stcvs	15, cr2, [pc], #-440	; 1c48 <__code_start__-0x63b8>
    1dfc:	69706269 	ldmdbvs	r0!, {r0, r3, r5, r6, r9, sp, lr}^
    1e00:	636e692f 	cmnvs	lr, #770048	; 0xbc000
    1e04:	6564756c 	strbvs	r7, [r4, #-1388]!	; 0xfffffa94
    1e08:	73752f00 	cmnvc	r5, #0, 30
    1e0c:	68732f72 	ldmdavs	r3!, {r1, r4, r5, r6, r8, r9, sl, fp, sp}^
    1e10:	2f657261 	svccs	0x00657261
    1e14:	2d636367 	stclcs	3, cr6, [r3, #-412]!	; 0xfffffe64
    1e18:	2d6d7261 	sfmcs	f7, 2, [sp, #-388]!	; 0xfffffe7c
    1e1c:	656e6f6e 	strbvs	r6, [lr, #-3950]!	; 0xfffff092
    1e20:	6261652d 	rsbvs	r6, r1, #188743680	; 0xb400000
    1e24:	30312d69 	eorscc	r2, r1, r9, ror #26
    1e28:	322d332e 	eorcc	r3, sp, #-1207959552	; 0xb8000000
    1e2c:	2e313230 	mrccs	2, 1, r3, cr1, cr0, {1}
    1e30:	6c2f3031 	stcvs	0, cr3, [pc], #-196	; 1d74 <__code_start__-0x628c>
    1e34:	672f6269 	strvs	r6, [pc, -r9, ror #4]!
    1e38:	612f6363 			; <UNDEFINED> instruction: 0x612f6363
    1e3c:	6e2d6d72 	mcrvs	13, 1, r6, cr13, cr2, {3}
    1e40:	2d656e6f 	stclcs	14, cr6, [r5, #-444]!	; 0xfffffe44
    1e44:	69626165 	stmdbvs	r2!, {r0, r2, r5, r6, r8, sp, lr}^
    1e48:	2e30312f 	rsfcssp	f3, f0, #10.0
    1e4c:	2f312e33 	svccs	0x00312e33
    1e50:	6c636e69 	stclvs	14, cr6, [r3], #-420	; 0xfffffe5c
    1e54:	00656475 	rsbeq	r6, r5, r5, ror r4
    1e58:	72617500 	rsbvc	r7, r1, #0, 10
    1e5c:	00632e74 	rsbeq	r2, r3, r4, ror lr
    1e60:	75000000 	strvc	r0, [r0, #-0]
    1e64:	2e747261 	cdpcs	2, 7, cr7, cr4, cr1, {3}
    1e68:	00010068 	andeq	r0, r1, r8, rrx
    1e6c:	69707200 	ldmdbvs	r0!, {r9, ip, sp, lr}^
    1e70:	0100682e 	tsteq	r0, lr, lsr #16
    1e74:	70670000 	rsbvc	r0, r7, r0
    1e78:	682e6f69 	stmdavs	lr!, {r0, r3, r5, r6, r8, r9, sl, fp, sp, lr}
    1e7c:	00000100 	andeq	r0, r0, r0, lsl #2
    1e80:	69647473 	stmdbvs	r4!, {r0, r1, r4, r5, r6, sl, ip, sp, lr}^
    1e84:	672d746e 	strvs	r7, [sp, -lr, ror #8]!
    1e88:	682e6363 	stmdavs	lr!, {r0, r1, r5, r6, r8, r9, sp, lr}
    1e8c:	00000200 	andeq	r0, r0, r0, lsl #4
    1e90:	00390500 	eorseq	r0, r9, r0, lsl #10
    1e94:	922c0205 	eorls	r0, ip, #1342177280	; 0x50000000
    1e98:	30030000 	andcc	r0, r3, r0
    1e9c:	05010601 	streq	r0, [r1, #-1537]	; 0xfffff9ff
    1ea0:	05670605 	strbeq	r0, [r7, #-1541]!	; 0xfffff9fb
    1ea4:	05010611 	streq	r0, [r1, #-1553]	; 0xfffff9ef
    1ea8:	01052e05 	tsteq	r5, r5, lsl #28
    1eac:	06380567 	ldrteq	r0, [r8], -r7, ror #10
    1eb0:	05010629 	streq	r0, [r1, #-1577]	; 0xfffff9d7
    1eb4:	05670605 	strbeq	r0, [r7, #-1541]!	; 0xfffff9fb
    1eb8:	05010611 	streq	r0, [r1, #-1553]	; 0xfffff9ef
    1ebc:	01052e05 	tsteq	r5, r5, lsl #28
    1ec0:	06160567 	ldreq	r0, [r6], -r7, ror #10
    1ec4:	052e1503 	streq	r1, [lr, #-1283]!	; 0xfffffafd
    1ec8:	68673505 	stmdavs	r7!, {r0, r2, r8, sl, ip, sp}^
    1ecc:	0c036835 	stceq	8, cr6, [r3], {53}	; 0x35
    1ed0:	696b852e 	stmdbvs	fp!, {r1, r2, r3, r5, r8, sl, pc}^
    1ed4:	660c0369 	strvs	r0, [ip], -r9, ror #6
    1ed8:	05676b13 	strbeq	r6, [r7, #-2835]!	; 0xfffff4ed
    1edc:	052f0601 	streq	r0, [pc, #-1537]!	; 18e3 <__code_start__-0x671d>
    1ee0:	25080619 	strcs	r0, [r8, #-1561]	; 0xfffff9e7
    1ee4:	05340505 	ldreq	r0, [r4, #-1285]!	; 0xfffffafb
    1ee8:	0501060d 	streq	r0, [r1, #-1549]	; 0xfffff9f3
    1eec:	19054c01 	stmdbne	r5, {r0, sl, fp, lr}
    1ef0:	05056706 	streq	r6, [r5, #-1798]	; 0xfffff8fa
    1ef4:	060d0536 			; <UNDEFINED> instruction: 0x060d0536
    1ef8:	4a280501 	bmi	a03304 <__bss_end__+0x9f87ac>
    1efc:	05300105 	ldreq	r0, [r0, #-261]!	; 0xfffffefb
    1f00:	05870615 	streq	r0, [r7, #1557]	; 0x615
    1f04:	052f2f05 	streq	r2, [pc, #-3845]!	; 1007 <__code_start__-0x6ff9>
    1f08:	04020009 	streq	r0, [r2], #-9
    1f0c:	0a051301 	beq	146b18 <__bss_end__+0x13bfc0>
    1f10:	01040200 	mrseq	r0, R12_usr
    1f14:	000c0511 	andeq	r0, ip, r1, lsl r5
    1f18:	06010402 	streq	r0, [r1], -r2, lsl #8
    1f1c:	000a0501 	andeq	r0, sl, r1, lsl #10
    1f20:	2e010402 	cdpcs	4, 0, cr0, cr1, cr2, {0}
    1f24:	4c060505 	cfstr32mi	mvfx0, [r6], {5}
    1f28:	01060e05 	tsteq	r6, r5, lsl #28
    1f2c:	054a0905 	strbeq	r0, [sl, #-2309]	; 0xfffff6fb
    1f30:	2f2f0605 	svccs	0x002f0605
    1f34:	13060105 	movwne	r0, #24837	; 0x6105
    1f38:	67061c05 	strvs	r1, [r6, -r5, lsl #24]
    1f3c:	05050106 	streq	r0, [r5, #-262]	; 0xfffffefa
    1f40:	052f4b06 	streq	r4, [pc, #-2822]!	; 1442 <__code_start__-0x6bbe>
    1f44:	04020009 	streq	r0, [r2], #-9
    1f48:	0a051301 	beq	146b54 <__bss_end__+0x13bffc>
    1f4c:	01040200 	mrseq	r0, R12_usr
    1f50:	000c0511 	andeq	r0, ip, r1, lsl r5
    1f54:	06010402 	streq	r0, [r1], -r2, lsl #8
    1f58:	000a0501 	andeq	r0, sl, r1, lsl #10
    1f5c:	2e010402 	cdpcs	4, 0, cr0, cr1, cr2, {0}
    1f60:	4c060505 	cfstr32mi	mvfx0, [r6], {5}
    1f64:	06010567 	streq	r0, [r1], -r7, ror #10
    1f68:	0619052f 	ldreq	r0, [r9], -pc, lsr #10
    1f6c:	2e1b054c 	cfmac32cs	mvfx0, mvfx11, mvfx12
    1f70:	052e2a05 	streq	r2, [lr, #-2565]!	; 0xfffff5fb
    1f74:	05010631 	streq	r0, [r1, #-1585]	; 0xfffff9cf
    1f78:	1c052e42 	stcne	14, cr2, [r5], {66}	; 0x42
    1f7c:	05053106 	streq	r3, [r5, #-262]	; 0xfffffefa
    1f80:	2e09032f 	cdpcs	3, 0, cr0, cr9, cr15, {1}
    1f84:	01060e05 	tsteq	r6, r5, lsl #28
    1f88:	054a2105 	strbeq	r2, [sl, #-261]	; 0xfffffefb
    1f8c:	2e0a0301 	cdpcs	3, 0, cr0, cr10, cr1, {0}
    1f90:	68061a05 	stmdavs	r6, {r0, r2, r9, fp, ip}
    1f94:	02000905 	andeq	r0, r0, #81920	; 0x14000
    1f98:	05300104 	ldreq	r0, [r0, #-260]!	; 0xfffffefc
    1f9c:	0402000a 	streq	r0, [r2], #-10
    1fa0:	0c051101 	stfeqs	f1, [r5], {1}
    1fa4:	01040200 	mrseq	r0, R12_usr
    1fa8:	0a050106 	beq	1423c8 <__bss_end__+0x137870>
    1fac:	01040200 	mrseq	r0, R12_usr
    1fb0:	0619052e 	ldreq	r0, [r9], -lr, lsr #10
    1fb4:	667ee803 	ldrbtvs	lr, [lr], -r3, lsl #16
    1fb8:	2f2f0505 	svccs	0x002f0505
    1fbc:	0105672f 	tsteq	r5, pc, lsr #14
    1fc0:	04022f06 	streq	r2, [r2], #-3846	; 0xfffff0fa
    1fc4:	cb010100 	blgt	423cc <__bss_end__+0x37874>
    1fc8:	03000005 	movweq	r0, #5
    1fcc:	0000da00 	andeq	sp, r0, r0, lsl #20
    1fd0:	fb010200 	blx	427da <__bss_end__+0x37c82>
    1fd4:	01000d0e 	tsteq	r0, lr, lsl #26
    1fd8:	00010101 	andeq	r0, r1, r1, lsl #2
    1fdc:	00010000 	andeq	r0, r1, r0
    1fe0:	2f2e0100 	svccs	0x002e0100
    1fe4:	6362696c 	cmnvs	r2, #108, 18	; 0x1b0000
    1fe8:	73752f00 	cmnvc	r5, #0, 30
    1fec:	68732f72 	ldmdavs	r3!, {r1, r4, r5, r6, r8, r9, sl, fp, sp}^
    1ff0:	2f657261 	svccs	0x00657261
    1ff4:	2d636367 	stclcs	3, cr6, [r3, #-412]!	; 0xfffffe64
    1ff8:	2d6d7261 	sfmcs	f7, 2, [sp, #-388]!	; 0xfffffe7c
    1ffc:	656e6f6e 	strbvs	r6, [lr, #-3950]!	; 0xfffff092
    2000:	6261652d 	rsbvs	r6, r1, #188743680	; 0xb400000
    2004:	30312d69 	eorscc	r2, r1, r9, ror #26
    2008:	322d332e 	eorcc	r3, sp, #-1207959552	; 0xb8000000
    200c:	2e313230 	mrccs	2, 1, r3, cr1, cr0, {1}
    2010:	6c2f3031 	stcvs	0, cr3, [pc], #-196	; 1f54 <__code_start__-0x60ac>
    2014:	672f6269 	strvs	r6, [pc, -r9, ror #4]!
    2018:	612f6363 			; <UNDEFINED> instruction: 0x612f6363
    201c:	6e2d6d72 	mcrvs	13, 1, r6, cr13, cr2, {3}
    2020:	2d656e6f 	stclcs	14, cr6, [r5, #-444]!	; 0xfffffe44
    2024:	69626165 	stmdbvs	r2!, {r0, r2, r5, r6, r8, sp, lr}^
    2028:	2e30312f 	rsfcssp	f3, f0, #10.0
    202c:	2f312e33 	svccs	0x00312e33
    2030:	6c636e69 	stclvs	14, cr6, [r3], #-420	; 0xfffffe5c
    2034:	00656475 	rsbeq	r6, r5, r5, ror r4
    2038:	6d6f682f 	stclvs	8, cr6, [pc, #-188]!	; 1f84 <__code_start__-0x607c>
    203c:	6e652f65 	cdpvs	15, 6, cr2, cr5, cr5, {3}
    2040:	72656c67 	rsbvc	r6, r5, #26368	; 0x6700
    2044:	616c632f 	cmnvs	ip, pc, lsr #6
    2048:	632f7373 			; <UNDEFINED> instruction: 0x632f7373
    204c:	30343173 	eorscc	r3, r4, r3, ror r1
    2050:	32322d65 	eorscc	r2, r2, #6464	; 0x1940
    2054:	2f6e6977 	svccs	0x006e6977
    2058:	62696c2f 	rsbvs	r6, r9, #12032	; 0x2f00
    205c:	692f6970 	stmdbvs	pc!, {r4, r5, r6, r8, fp, sp, lr}	; <UNPREDICTABLE>
    2060:	756c636e 	strbvc	r6, [ip, #-878]!	; 0xfffffc92
    2064:	00006564 	andeq	r6, r0, r4, ror #10
    2068:	702d6176 	eorvc	r6, sp, r6, ror r1
    206c:	746e6972 	strbtvc	r6, [lr], #-2418	; 0xfffff68e
    2070:	00632e6b 	rsbeq	r2, r3, fp, ror #28
    2074:	73000001 	movwvc	r0, #1
    2078:	6e696474 	mcrvs	4, 3, r6, cr9, cr4, {3}
    207c:	63672d74 	cmnvs	r7, #116, 26	; 0x1d00
    2080:	00682e63 	rsbeq	r2, r8, r3, ror #28
    2084:	72000002 	andvc	r0, r0, #2
    2088:	682e6970 	stmdavs	lr!, {r4, r5, r6, r8, fp, sp, lr}
    208c:	00000300 	andeq	r0, r0, r0, lsl #6
    2090:	61647473 	smcvs	18243	; 0x4743
    2094:	682e6772 	stmdavs	lr!, {r1, r4, r5, r6, r8, r9, sl, sp, lr}
    2098:	00000200 	andeq	r0, r0, r0, lsl #4
    209c:	6975623c 	ldmdbvs	r5!, {r2, r3, r4, r5, r9, sp, lr}^
    20a0:	692d746c 	pushvs	{r2, r3, r5, r6, sl, ip, sp, lr}
    20a4:	00003e6e 	andeq	r3, r0, lr, ror #28
    20a8:	05000000 	streq	r0, [r0, #-0]
    20ac:	0205001b 	andeq	r0, r5, #27
    20b0:	0000941c 	andeq	r9, r0, ip, lsl r4
    20b4:	05012603 	streq	r2, [r1, #-1539]	; 0xfffff9fd
    20b8:	2d05011d 	stfcss	f0, [r5, #-116]	; 0xffffff8c
    20bc:	3a050106 	bcc	1424dc <__bss_end__+0x137984>
    20c0:	33054a2e 	movwcc	r4, #23086	; 0x5a2e
    20c4:	02055106 	andeq	r5, r5, #-2147483647	; 0x80000001
    20c8:	06060513 			; <UNDEFINED> instruction: 0x06060513
    20cc:	06020501 	streq	r0, [r2], -r1, lsl #10
    20d0:	00030530 	andeq	r0, r3, r0, lsr r5
    20d4:	2f020402 	svccs	0x00020402
    20d8:	02000805 	andeq	r0, r0, #327680	; 0x50000
    20dc:	01060204 	tsteq	r6, r4, lsl #4
    20e0:	02001505 	andeq	r1, r0, #20971520	; 0x1400000
    20e4:	49060204 	stmdbmi	r6, {r2, r9}
    20e8:	02001805 	andeq	r1, r0, #327680	; 0x50000
    20ec:	01060204 	tsteq	r6, r4, lsl #4
    20f0:	02000805 	andeq	r0, r0, #327680	; 0x50000
    20f4:	2e060104 	adfcss	f0, f6, f4
    20f8:	02000205 	andeq	r0, r0, #1342177280	; 0x50000000
    20fc:	01060104 	tsteq	r6, r4, lsl #2
    2100:	05054c06 	streq	r4, [r5, #-3078]	; 0xfffff3fa
    2104:	02050106 	andeq	r0, r5, #-2147483647	; 0x80000001
    2108:	01054b06 	tsteq	r5, r6, lsl #22
    210c:	3e051306 	cdpcc	3, 0, cr1, cr5, cr6, {0}
    2110:	02053106 	andeq	r3, r5, #-2147483647	; 0x80000001
    2114:	060e0514 			; <UNDEFINED> instruction: 0x060e0514
    2118:	2e060501 	cfsh32cs	mvfx0, mvfx6, #1
    211c:	2f060205 	svccs	0x00060205
    2120:	01060405 	tsteq	r6, r5, lsl #8
    2124:	2f060305 	svccs	0x00060305
    2128:	01061105 	tsteq	r6, r5, lsl #2
    212c:	052e0905 	streq	r0, [lr, #-2309]!	; 0xfffff6fb
    2130:	15300602 	ldrne	r0, [r0, #-1538]!	; 0xfffff9fe
    2134:	01060705 	tsteq	r6, r5, lsl #14
    2138:	2e2e0205 	cdpcs	2, 2, cr0, cr14, cr5, {0}
    213c:	02000305 	andeq	r0, r0, #335544320	; 0x14000000
    2140:	2f060304 	svccs	0x00060304
    2144:	02000c05 	andeq	r0, r0, #1280	; 0x500
    2148:	01060304 	tsteq	r6, r4, lsl #6
    214c:	02000a05 	andeq	r0, r0, #20480	; 0x5000
    2150:	052e0304 	streq	r0, [lr, #-772]!	; 0xfffffcfc
    2154:	04020017 	streq	r0, [r2], #-23	; 0xffffffe9
    2158:	052d0603 	streq	r0, [sp, #-1539]!	; 0xfffff9fd
    215c:	0402000b 	streq	r0, [r2], #-11
    2160:	02050101 	andeq	r0, r5, #1073741824	; 0x40000000
    2164:	01040200 	mrseq	r0, R12_usr
    2168:	4c060106 	stfmis	f0, [r6], {6}
    216c:	01060905 	tsteq	r6, r5, lsl #18
    2170:	0602052e 	streq	r0, [r2], -lr, lsr #10
    2174:	06010530 			; <UNDEFINED> instruction: 0x06010530
    2178:	06490513 			; <UNDEFINED> instruction: 0x06490513
    217c:	05010631 	streq	r0, [r1, #-1585]	; 0xfffff9cf
    2180:	05a00602 	streq	r0, [r0, #1538]!	; 0x602
    2184:	05010604 	streq	r0, [r1, #-1540]	; 0xfffff9fc
    2188:	052f0603 	streq	r0, [pc, #-1539]!	; 1b8d <__code_start__-0x6473>
    218c:	05010609 	streq	r0, [r1, #-1545]	; 0xfffff9f7
    2190:	13300602 	teqne	r0, #2097152	; 0x200000
    2194:	01060b05 	tsteq	r6, r5, lsl #22
    2198:	30060205 	andcc	r0, r6, r5, lsl #4
    219c:	04052e06 	streq	r2, [r5], #-3590	; 0xfffff1fa
    21a0:	15240206 	strne	r0, [r4, #-518]!	; 0xfffffdfa
    21a4:	060f0513 			; <UNDEFINED> instruction: 0x060f0513
    21a8:	06052e01 	streq	r2, [r5], -r1, lsl #28
    21ac:	0605054a 	streq	r0, [r5], -sl, asr #10
    21b0:	0905134b 	stmdbeq	r5, {r0, r1, r3, r6, r8, r9, ip}
    21b4:	05050106 	streq	r0, [r5, #-262]	; 0xfffffefa
    21b8:	0b052f06 	bleq	14ddd8 <__bss_end__+0x143280>
    21bc:	0d051006 	stceq	0, cr1, [r5, #-24]	; 0xffffffe8
    21c0:	01040200 	mrseq	r0, R12_usr
    21c4:	0004052c 	andeq	r0, r4, ip, lsr #10
    21c8:	06010402 	streq	r0, [r1], -r2, lsl #8
    21cc:	00050534 	andeq	r0, r5, r4, lsr r5
    21d0:	13010402 	movwne	r0, #5122	; 0x1402
    21d4:	02001b05 	andeq	r1, r0, #5120	; 0x1400
    21d8:	01060104 	tsteq	r6, r4, lsl #2
    21dc:	02000705 	andeq	r0, r0, #1310720	; 0x140000
    21e0:	05d60104 	ldrbeq	r0, [r6, #260]	; 0x104
    21e4:	04020018 	streq	r0, [r2], #-24	; 0xffffffe8
    21e8:	0a052e01 	beq	14d9f4 <__bss_end__+0x142e9c>
    21ec:	01040200 	mrseq	r0, R12_usr
    21f0:	000b054a 	andeq	r0, fp, sl, asr #10
    21f4:	06010402 	streq	r0, [r1], -r2, lsl #8
    21f8:	000e052f 	andeq	r0, lr, pc, lsr #10
    21fc:	06010402 	streq	r0, [r1], -r2, lsl #8
    2200:	0004052e 	andeq	r0, r4, lr, lsr #10
    2204:	2e010402 	cdpcs	4, 0, cr0, cr1, cr2, {0}
    2208:	06054b06 	streq	r4, [r5], -r6, lsl #22
    220c:	05050106 	streq	r0, [r5, #-262]	; 0xfffffefa
    2210:	0a052f06 	beq	14de30 <__bss_end__+0x1432d8>
    2214:	07050106 	streq	r0, [r5, -r6, lsl #2]
    2218:	0d052e4a 	stceq	14, cr2, [r5, #-296]	; 0xfffffed8
    221c:	4a2e7603 	bmi	b9fa30 <__bss_end__+0xb94ed8>
    2220:	050f0205 	streq	r0, [pc, #-517]	; 2023 <__code_start__-0x5fdd>
    2224:	0402000d 	streq	r0, [r2], #-13
    2228:	12030601 	andne	r0, r3, #1048576	; 0x100000
    222c:	0011052e 	andseq	r0, r1, lr, lsr #10
    2230:	13010402 	movwne	r0, #5122	; 0x1402
    2234:	02002d05 	andeq	r2, r0, #320	; 0x140
    2238:	01060104 	tsteq	r6, r4, lsl #2
    223c:	02002a05 	andeq	r2, r0, #20480	; 0x5000
    2240:	052e0104 	streq	r0, [lr, #-260]!	; 0xfffffefc
    2244:	04020016 	streq	r0, [r2], #-22	; 0xffffffea
    2248:	14054a01 	strne	r4, [r5], #-2561	; 0xfffff5ff
    224c:	01040200 	mrseq	r0, R12_usr
    2250:	0d054b06 	vstreq	d4, [r5, #-24]	; 0xffffffe8
    2254:	01040200 	mrseq	r0, R12_usr
    2258:	02000106 	andeq	r0, r0, #-2147483647	; 0x80000001
    225c:	064a0104 	strbeq	r0, [sl], -r4, lsl #2
    2260:	0612052f 	ldreq	r0, [r2], -pc, lsr #10
    2264:	0d054a01 	vstreq	s8, [r5, #-4]
    2268:	12052f06 	andne	r2, r5, #6, 30
    226c:	19050106 	stmdbne	r5, {r1, r2, r8}
    2270:	04054b06 	streq	r4, [r5], #-2822	; 0xfffff4fa
    2274:	02040200 	andeq	r0, r4, #0, 4
    2278:	00011103 	andeq	r1, r1, r3, lsl #2
    227c:	01020402 	tsteq	r2, r2, lsl #8
    2280:	02000205 	andeq	r0, r0, #1342177280	; 0x50000000
    2284:	05150204 	ldreq	r0, [r5, #-516]	; 0xfffffdfc
    2288:	04020009 	streq	r0, [r2], #-9
    228c:	00010602 	andeq	r0, r1, r2, lsl #12
    2290:	4a020402 	bmi	832a0 <__bss_end__+0x78748>
    2294:	02000105 	andeq	r0, r0, #1073741825	; 0x40000001
    2298:	059f0204 	ldreq	r0, [pc, #516]	; 24a4 <__code_start__-0x5b5c>
    229c:	6e030604 	cfmadd32vs	mvax0, mvfx0, mvfx3, mvfx4
    22a0:	0609054a 	streq	r0, [r9], -sl, asr #10
    22a4:	06040501 	streq	r0, [r4], -r1, lsl #10
    22a8:	0606052f 	streq	r0, [r6], -pc, lsr #10
    22ac:	2f040511 	svccs	0x00040511
    22b0:	65030205 	strvs	r0, [r3, #-517]	; 0xfffffdfb
    22b4:	0019052e 	andseq	r0, r9, lr, lsr #10
    22b8:	06010402 	streq	r0, [r1], -r2, lsl #8
    22bc:	052e2203 	streq	r2, [lr, #-515]!	; 0xfffffdfd
    22c0:	0402001a 	streq	r0, [r2], #-26	; 0xffffffe6
    22c4:	28051301 	stmdacs	r5, {r0, r8, r9, ip}
    22c8:	01040200 	mrseq	r0, R12_usr
    22cc:	25050106 	strcs	r0, [r5, #-262]	; 0xfffffefa
    22d0:	01040200 	mrseq	r0, R12_usr
    22d4:	001f052e 	andseq	r0, pc, lr, lsr #10
    22d8:	4a010402 	bmi	432e8 <__bss_end__+0x38790>
    22dc:	02000b05 	andeq	r0, r0, #5120	; 0x1400
    22e0:	4b060104 	blmi	1826f8 <__bss_end__+0x177ba0>
    22e4:	02000405 	andeq	r0, r0, #83886080	; 0x5000000
    22e8:	01060104 	tsteq	r6, r4, lsl #2
    22ec:	01040200 	mrseq	r0, R12_usr
    22f0:	0402004a 	streq	r0, [r2], #-74	; 0xffffffb6
    22f4:	004e0601 	subeq	r0, lr, r1, lsl #12
    22f8:	01010402 	tsteq	r1, r2, lsl #8
    22fc:	01040200 	mrseq	r0, R12_usr
    2300:	04020001 	streq	r0, [r2], #-1
    2304:	02000101 	andeq	r0, r0, #1073741824	; 0x40000000
    2308:	2e060104 	adfcss	f0, f6, f4
    230c:	01040200 	mrseq	r0, R12_usr
    2310:	04020066 	streq	r0, [r2], #-102	; 0xffffff9a
    2314:	02002e01 	andeq	r2, r0, #1, 28
    2318:	4a060104 	bmi	182730 <__bss_end__+0x177bd8>
    231c:	a6034805 	strge	r4, [r3], -r5, lsl #16
    2320:	0520087f 	streq	r0, [r0, #-2175]!	; 0xfffff781
    2324:	06011305 	streq	r1, [r1], -r5, lsl #6
    2328:	0402002e 	streq	r0, [r2], #-46	; 0xffffffd2
    232c:	002e0602 	eoreq	r0, lr, r2, lsl #12
    2330:	01020402 	tsteq	r2, r2, lsl #8
    2334:	02040200 	andeq	r0, r4, #0, 4
    2338:	00110513 	andseq	r0, r1, r3, lsl r5
    233c:	06020402 	streq	r0, [r2], -r2, lsl #8
    2340:	00050501 	andeq	r0, r5, r1, lsl #10
    2344:	06020402 	streq	r0, [r2], -r2, lsl #8
    2348:	0007054b 	andeq	r0, r7, fp, asr #10
    234c:	06020402 	streq	r0, [r2], -r2, lsl #8
    2350:	06090501 	streq	r0, [r9], -r1, lsl #10
    2354:	060e054b 	streq	r0, [lr], -fp, asr #10
    2358:	00480501 	subeq	r0, r8, r1, lsl #10
    235c:	62010402 	andvs	r0, r1, #33554432	; 0x2000000
    2360:	02000505 	andeq	r0, r0, #20971520	; 0x1400000
    2364:	4b060104 	blmi	18277c <__bss_end__+0x177c24>
    2368:	01040200 	mrseq	r0, R12_usr
    236c:	04020001 	streq	r0, [r2], #-1
    2370:	009e0601 	addseq	r0, lr, r1, lsl #12
    2374:	2e010402 	cdpcs	4, 0, cr0, cr1, cr2, {0}
    2378:	01040200 	mrseq	r0, R12_usr
    237c:	40052e06 	andmi	r2, r5, r6, lsl #28
    2380:	d600e103 	strle	lr, [r0], -r3, lsl #2
    2384:	02050106 	andeq	r0, r5, #-2147483647	; 0x80000001
    2388:	1e059f06 	cdpne	15, 0, cr9, cr5, cr6, {0}
    238c:	12050106 	andne	r0, r5, #-2147483647	; 0x80000001
    2390:	0605052e 	streq	r0, [r5], -lr, lsr #10
    2394:	1402052f 	strne	r0, [r2], #-1327	; 0xfffffad1
    2398:	01060905 	tsteq	r6, r5, lsl #18
    239c:	4b060505 	blmi	1837b8 <__bss_end__+0x178c60>
    23a0:	05130205 	ldreq	r0, [r3, #-517]	; 0xfffffdfb
    23a4:	050d0608 	streq	r0, [sp, #-1544]	; 0xfffff9f8
    23a8:	08053302 	stmdaeq	r5, {r1, r8, r9, ip, sp}
    23ac:	0e054e06 	cdpeq	14, 0, cr4, cr5, cr6, {0}
    23b0:	0a050106 	beq	1427d0 <__bss_end__+0x137c78>
    23b4:	0604052e 	streq	r0, [r4], -lr, lsr #10
    23b8:	0609054b 	streq	r0, [r9], -fp, asr #10
    23bc:	06040501 	streq	r0, [r4], -r1, lsl #10
    23c0:	0607052f 	streq	r0, [r7], -pc, lsr #10
    23c4:	06080501 	streq	r0, [r8], -r1, lsl #10
    23c8:	052e7a03 	streq	r7, [lr, #-2563]!	; 0xfffff5fd
    23cc:	052e0602 	streq	r0, [lr, #-1538]!	; 0xfffff9fe
    23d0:	0402000d 	streq	r0, [r2], #-13
    23d4:	03054a01 	movweq	r4, #23041	; 0x5a01
    23d8:	05054b06 	streq	r4, [r5, #-2822]	; 0xfffff4fa
    23dc:	04050106 	streq	r0, [r5], #-262	; 0xfffffefa
    23e0:	0f054b06 	svceq	0x00054b06
    23e4:	09050106 	stmdbeq	r5, {r1, r2, r8}
    23e8:	04052e2e 	streq	r2, [r5], #-3630	; 0xfffff1d2
    23ec:	07053406 	streq	r3, [r5, -r6, lsl #8]
    23f0:	04050106 	streq	r0, [r5], #-262	; 0xfffffefa
    23f4:	14133006 	ldrne	r3, [r3], #-6
    23f8:	10060d05 	andne	r0, r6, r5, lsl #26
    23fc:	05300905 	ldreq	r0, [r0, #-2309]!	; 0xfffff6fb
    2400:	052f0605 	streq	r0, [pc, #-1541]!	; 1e03 <__code_start__-0x61fd>
    2404:	05010612 	streq	r0, [r1, #-1554]	; 0xfffff9ee
    2408:	0b052e16 	bleq	14dc68 <__bss_end__+0x143110>
    240c:	0605052e 	streq	r0, [r5], -lr, lsr #10
    2410:	0608052f 	streq	r0, [r8], -pc, lsr #10
    2414:	06090501 	streq	r0, [r9], -r1, lsl #10
    2418:	0612052c 	ldreq	r0, [r2], -ip, lsr #10
    241c:	2e0a0501 	cfsh32cs	mvfx0, mvfx10, #1
    2420:	054a0905 	strbeq	r0, [sl, #-2309]	; 0xfffff6fb
    2424:	014e0604 	cmpeq	lr, r4, lsl #12
    2428:	0015014a 	andseq	r0, r5, sl, asr #2
    242c:	02010402 	andeq	r0, r1, #33554432	; 0x2000000
    2430:	02000f36 	andeq	r0, r0, #54, 30	; 0xd8
    2434:	00010104 	andeq	r0, r1, r4, lsl #2
    2438:	d6010402 	strle	r0, [r1], -r2, lsl #8
    243c:	13341105 	teqne	r4, #1073741825	; 0x40000001
    2440:	04020001 	streq	r0, [r2], #-1
    2444:	00ba0602 	adcseq	r0, sl, r2, lsl #12
    2448:	06030402 	streq	r0, [r3], -r2, lsl #8
    244c:	040200ba 	streq	r0, [r2], #-186	; 0xffffff46
    2450:	02000103 	andeq	r0, r0, #-1073741824	; 0xc0000000
    2454:	05140304 	ldreq	r0, [r4, #-772]	; 0xfffffcfc
    2458:	04020015 	streq	r0, [r2], #-21	; 0xffffffeb
    245c:	05010603 	streq	r0, [r1, #-1539]	; 0xfffff9fd
    2460:	04020011 	streq	r0, [r2], #-17	; 0xffffffef
    2464:	052f0603 	streq	r0, [pc, #-1539]!	; 1e69 <__code_start__-0x6197>
    2468:	0402001a 	streq	r0, [r2], #-26	; 0xffffffe6
    246c:	05010603 	streq	r0, [r1, #-1539]	; 0xfffff9fd
    2470:	04020011 	streq	r0, [r2], #-17	; 0xffffffef
    2474:	00d70603 	sbcseq	r0, r7, r3, lsl #12
    2478:	13030402 	movwne	r0, #13314	; 0x3402
    247c:	03040200 	movweq	r0, #16896	; 0x4200
    2480:	00140517 	andseq	r0, r4, r7, lsl r5
    2484:	06030402 	streq	r0, [r3], -r2, lsl #8
    2488:	00130501 	andseq	r0, r3, r1, lsl #10
    248c:	82030402 	andhi	r0, r3, #33554432	; 0x2000000
    2490:	4e061805 	cdpmi	8, 0, cr1, cr6, cr5, {0}
    2494:	01061b05 	tsteq	r6, r5, lsl #22
    2498:	05821a05 	streq	r1, [r2, #2565]	; 0xa05
    249c:	054b0609 	strbeq	r0, [fp, #-1545]	; 0xfffff9f7
    24a0:	2e01060d 	cfmadd32cs	mvax0, mvfx0, mvfx1, mvfx13
    24a4:	f3060905 	vmls.i8	d0, d6, d5
    24a8:	1505ba06 	strne	fp, [r5, #-2566]	; 0xfffff5fa
    24ac:	18053006 	stmdane	r5, {r1, r2, ip, sp}
    24b0:	17050106 	strne	r0, [r5, -r6, lsl #2]
    24b4:	06190566 	ldreq	r0, [r9], -r6, ror #10
    24b8:	0615054b 	ldreq	r0, [r5], -fp, asr #10
    24bc:	05666f03 	strbeq	r6, [r6, #-3843]!	; 0xfffff0fd
    24c0:	01480611 	cmpeq	r8, r1, lsl r6
    24c4:	030905d6 	movweq	r0, #38358	; 0x95d6
    24c8:	0d052e0b 	stceq	14, cr2, [r5, #-44]	; 0xffffffd4
    24cc:	052e0106 	streq	r0, [lr, #-262]!	; 0xfffffefa
    24d0:	06f30609 	ldrbteq	r0, [r3], r9, lsl #12
    24d4:	061505ba 			; <UNDEFINED> instruction: 0x061505ba
    24d8:	7503062f 	strvc	r0, [r3, #-1583]	; 0xfffff9d1
    24dc:	06190566 	ldreq	r0, [r9], -r6, ror #10
    24e0:	054a1303 	strbeq	r1, [sl, #-771]	; 0xfffffcfd
    24e4:	6d030615 	stcvs	6, cr0, [r3, #-84]	; 0xffffffac
    24e8:	15030666 	strne	r0, [r3, #-1638]	; 0xfffff99a
    24ec:	06ba014a 	ldrteq	r0, [sl], sl, asr #2
    24f0:	0605052e 	streq	r0, [r5], -lr, lsr #10
    24f4:	2e9e011a 	mrccs	1, 4, r0, cr14, cr10, {0}
    24f8:	05010e03 	streq	r0, [r1, #-3587]	; 0xfffff1fd
    24fc:	05010609 	streq	r0, [r1, #-1545]	; 0xfffff9f7
    2500:	75080605 	strvc	r0, [r8, #-1541]	; 0xfffff9fb
    2504:	18030405 	stmdane	r3, {r0, r2, sl}
    2508:	06070501 	streq	r0, [r7], -r1, lsl #10
    250c:	06040501 	streq	r0, [r4], -r1, lsl #10
    2510:	03050531 	movweq	r0, #21809	; 0x5531
    2514:	1c052e67 	stcne	14, cr2, [r5], {103}	; 0x67
    2518:	09050106 	stmdbeq	r5, {r1, r2, r8}
    251c:	06050582 	streq	r0, [r5], -r2, lsl #11
    2520:	1c0531f3 	stfnes	f3, [r5], {243}	; 0xf3
    2524:	09050106 	stmdbeq	r5, {r1, r2, r8}
    2528:	06050582 	streq	r0, [r5], -r2, lsl #11
    252c:	1b0530f3 	blne	14e900 <__bss_end__+0x143da8>
    2530:	09050106 	stmdbeq	r5, {r1, r2, r8}
    2534:	06050582 	streq	r0, [r5], -r2, lsl #11
    2538:	070530f3 			; <UNDEFINED> instruction: 0x070530f3
    253c:	05050106 	streq	r0, [r5, #-262]	; 0xfffffefa
    2540:	05308306 	ldreq	r8, [r0, #-774]!	; 0xfffffcfa
    2544:	05010609 	streq	r0, [r1, #-1545]	; 0xfffff9f7
    2548:	75080605 	strvc	r0, [r8, #-1541]	; 0xfffff9fb
    254c:	05301105 	ldreq	r1, [r0, #-261]!	; 0xfffffefb
    2550:	05010622 	streq	r0, [r1, #-1570]	; 0xfffff9de
    2554:	054b0605 	strbeq	r0, [fp, #-1541]	; 0xfffff9fb
    2558:	05058311 	streq	r8, [r5, #-785]	; 0xfffffcef
    255c:	359e0183 	ldrcc	r0, [lr, #387]	; 0x183
    2560:	01060e05 	tsteq	r6, r5, lsl #28
    2564:	062e0a05 	strteq	r0, [lr], -r5, lsl #20
    2568:	0604052d 	streq	r0, [r4], -sp, lsr #10
    256c:	00130501 	andseq	r0, r3, r1, lsl #10
    2570:	4a010402 	bmi	43580 <__bss_end__+0x38a28>
    2574:	02001005 	andeq	r1, r0, #5
    2578:	002e0104 	eoreq	r0, lr, r4, lsl #2
    257c:	66010402 	strvs	r0, [r1], -r2, lsl #8
    2580:	16060205 	strne	r0, [r6], -r5, lsl #4
    2584:	01060705 	tsteq	r6, r5, lsl #14
    2588:	4b060205 	blmi	182da4 <__bss_end__+0x17824c>
    258c:	13060105 	movwne	r0, #24837	; 0x6105
    2590:	001a0266 	andseq	r0, sl, r6, ror #4
    2594:	006e0101 	rsbeq	r0, lr, r1, lsl #2
    2598:	00030000 	andeq	r0, r3, r0
    259c:	00000026 	andeq	r0, r0, r6, lsr #32
    25a0:	0efb0102 	cdpeq	1, 15, cr0, cr11, cr2, {0}
    25a4:	0101000d 	tsteq	r1, sp
    25a8:	00000101 	andeq	r0, r0, r1, lsl #2
    25ac:	00000100 	andeq	r0, r0, r0, lsl #2
    25b0:	6c2f2e01 	stcvs	14, cr2, [pc], #-4	; 25b4 <__code_start__-0x5a4c>
    25b4:	00636269 	rsbeq	r6, r3, r9, ror #4
    25b8:	72747300 	rsbsvc	r7, r4, #0, 6
    25bc:	2e706d63 	cdpcs	13, 7, cr6, cr0, cr3, {3}
    25c0:	00010063 	andeq	r0, r1, r3, rrx
    25c4:	2a050000 	bcs	1425cc <__bss_end__+0x137a74>
    25c8:	44020500 	strmi	r0, [r2], #-1280	; 0xfffffb00
    25cc:	1400009b 	strne	r0, [r0], #-155	; 0xffffff65
    25d0:	05130905 	ldreq	r0, [r3, #-2309]	; 0xfffff6fb
    25d4:	0501060f 	streq	r0, [r1, #-1551]	; 0xfffff9f1
    25d8:	052f0611 	streq	r0, [pc, #-1553]!	; 1fcf <__code_start__-0x6031>
    25dc:	052e0616 	streq	r0, [lr, #-1558]!	; 0xfffff9ea
    25e0:	052d060f 	streq	r0, [sp, #-1551]!	; 0xfffff9f1
    25e4:	05010610 	streq	r0, [r1, #-1552]	; 0xfffff9f0
    25e8:	1c052e0f 	stcne	14, cr2, [r5], {15}
    25ec:	01040200 	mrseq	r0, R12_usr
    25f0:	0013054a 	andseq	r0, r3, sl, asr #10
    25f4:	2e010402 	cdpcs	4, 0, cr0, cr1, cr2, {0}
    25f8:	4c060905 			; <UNDEFINED> instruction: 0x4c060905
    25fc:	01061505 	tsteq	r6, r5, lsl #10
    2600:	022f0105 	eoreq	r0, pc, #1073741825	; 0x40000001
    2604:	01010004 	tsteq	r1, r4
    2608:	000000b1 	strheq	r0, [r0], -r1
    260c:	00260003 	eoreq	r0, r6, r3
    2610:	01020000 	mrseq	r0, (UNDEF: 2)
    2614:	000d0efb 	strdeq	r0, [sp], -fp
    2618:	01010101 	tsteq	r1, r1, lsl #2
    261c:	01000000 	mrseq	r0, (UNDEF: 0)
    2620:	2e010000 	cdpcs	0, 0, cr0, cr1, cr0, {0}
    2624:	62696c2f 	rsbvs	r6, r9, #12032	; 0x2f00
    2628:	73000063 	movwvc	r0, #99	; 0x63
    262c:	61637274 	smcvs	14116	; 0x3724
    2630:	00632e74 	rsbeq	r2, r3, r4, ror lr
    2634:	00000001 	andeq	r0, r0, r1
    2638:	05002c05 	streq	r2, [r0, #-3077]	; 0xfffff3fb
    263c:	009b7402 	addseq	r7, fp, r2, lsl #8
    2640:	05051500 	streq	r1, [r5, #-1280]	; 0xfffffb00
    2644:	0b051313 	bleq	147298 <__bss_end__+0x13c740>
    2648:	05051106 	streq	r1, [r5, #-262]	; 0xfffffefa
    264c:	01040200 	mrseq	r0, R12_usr
    2650:	02003006 	andeq	r3, r0, #6
    2654:	05150104 	ldreq	r0, [r5, #-260]	; 0xfffffefc
    2658:	04020009 	streq	r0, [r2], #-9
    265c:	10051301 	andne	r1, r5, r1, lsl #6
    2660:	01040200 	mrseq	r0, R12_usr
    2664:	0b052e06 	bleq	14de84 <__bss_end__+0x14332c>
    2668:	01040200 	mrseq	r0, R12_usr
    266c:	0402002e 	streq	r0, [r2], #-46	; 0xffffffd2
    2670:	052f0601 	streq	r0, [pc, #-1537]!	; 2077 <__code_start__-0x5f89>
    2674:	04020005 	streq	r0, [r2], #-5
    2678:	06010601 	streq	r0, [r1], -r1, lsl #12
    267c:	0608054e 	streq	r0, [r8], -lr, asr #10
    2680:	00050501 	andeq	r0, r5, r1, lsl #10
    2684:	06010402 	streq	r0, [r1], -r2, lsl #8
    2688:	0009052f 	andeq	r0, r9, pc, lsr #10
    268c:	13010402 	movwne	r0, #5122	; 0x1402
    2690:	02000b05 	andeq	r0, r0, #5120	; 0x1400
    2694:	01060104 	tsteq	r6, r4, lsl #2
    2698:	02000905 	andeq	r0, r0, #81920	; 0x14000
    269c:	4b060104 	blmi	182ab4 <__bss_end__+0x177f5c>
    26a0:	02000f05 	andeq	r0, r0, #5, 30
    26a4:	01060104 	tsteq	r6, r4, lsl #2
    26a8:	02000d05 	andeq	r0, r0, #320	; 0x140
    26ac:	2f060104 	svccs	0x00060104
    26b0:	02000505 	andeq	r0, r0, #20971520	; 0x1400000
    26b4:	01060104 	tsteq	r6, r4, lsl #2
    26b8:	01000602 	tsteq	r0, r2, lsl #12
    26bc:	0000be01 	andeq	fp, r0, r1, lsl #28
    26c0:	82000300 	andhi	r0, r0, #0, 6
    26c4:	02000000 	andeq	r0, r0, #0
    26c8:	0d0efb01 	vstreq	d15, [lr, #-4]
    26cc:	01010100 	mrseq	r0, (UNDEF: 17)
    26d0:	00000001 	andeq	r0, r0, r1
    26d4:	01000001 	tsteq	r0, r1
    26d8:	696c2f2e 	stmdbvs	ip!, {r1, r2, r3, r5, r8, r9, sl, fp, sp}^
    26dc:	2f006362 	svccs	0x00006362
    26e0:	2f727375 	svccs	0x00727375
    26e4:	72616873 	rsbvc	r6, r1, #7536640	; 0x730000
    26e8:	63672f65 	cmnvs	r7, #404	; 0x194
    26ec:	72612d63 	rsbvc	r2, r1, #6336	; 0x18c0
    26f0:	6f6e2d6d 	svcvs	0x006e2d6d
    26f4:	652d656e 	strvs	r6, [sp, #-1390]!	; 0xfffffa92
    26f8:	2d696261 	sfmcs	f6, 2, [r9, #-388]!	; 0xfffffe7c
    26fc:	332e3031 			; <UNDEFINED> instruction: 0x332e3031
    2700:	3230322d 	eorscc	r3, r0, #-805306366	; 0xd0000002
    2704:	30312e31 	eorscc	r2, r1, r1, lsr lr
    2708:	62696c2f 	rsbvs	r6, r9, #12032	; 0x2f00
    270c:	6363672f 	cmnvs	r3, #12320768	; 0xbc0000
    2710:	6d72612f 	ldfvse	f6, [r2, #-188]!	; 0xffffff44
    2714:	6e6f6e2d 	cdpvs	14, 6, cr6, cr15, cr13, {1}
    2718:	61652d65 	cmnvs	r5, r5, ror #26
    271c:	312f6962 			; <UNDEFINED> instruction: 0x312f6962
    2720:	2e332e30 	mrccs	14, 1, r2, cr3, cr0, {1}
    2724:	6e692f31 	mcrvs	15, 3, r2, cr9, cr1, {1}
    2728:	64756c63 	ldrbtvs	r6, [r5], #-3171	; 0xfffff39d
    272c:	73000065 	movwvc	r0, #101	; 0x65
    2730:	636e7274 	cmnvs	lr, #116, 4	; 0x40000007
    2734:	632e706d 			; <UNDEFINED> instruction: 0x632e706d
    2738:	00000100 	andeq	r0, r0, r0, lsl #2
    273c:	64647473 	strbtvs	r7, [r4], #-1139	; 0xfffffb8d
    2740:	682e6665 	stmdavs	lr!, {r0, r2, r5, r6, r9, sl, sp, lr}
    2744:	00000200 	andeq	r0, r0, r0, lsl #4
    2748:	00390500 	eorseq	r0, r9, r0, lsl #10
    274c:	9ba80205 	blls	fea02f68 <__bss_end__+0xfe9f8410>
    2750:	05150000 	ldreq	r0, [r5, #-0]
    2754:	05131305 	ldreq	r1, [r3, #-773]	; 0xfffffcfb
    2758:	0106010a 	tsteq	r6, sl, lsl #2
    275c:	0609054a 	streq	r0, [r9], -sl, asr #10
    2760:	060c052f 	streq	r0, [ip], -pc, lsr #10
    2764:	2e130501 	cfmul32cs	mvfx0, mvfx3, mvfx1
    2768:	052e0b05 	streq	r0, [lr, #-2821]!	; 0xfffff4fb
    276c:	054b060d 	strbeq	r0, [fp, #-1549]	; 0xfffff9f3
    2770:	2e01061b 	mcrcs	6, 0, r0, cr1, cr11, {0}
    2774:	05300c05 	ldreq	r0, [r0, #-3077]!	; 0xfffff3fb
    2778:	02022f01 	andeq	r2, r2, #1, 30
    277c:	ba010100 	blt	42b84 <__bss_end__+0x3802c>
    2780:	03000001 	movweq	r0, #1
    2784:	0000be00 	andeq	fp, r0, r0, lsl #28
    2788:	fb010200 	blx	42f92 <__bss_end__+0x3843a>
    278c:	01000d0e 	tsteq	r0, lr, lsl #26
    2790:	00010101 	andeq	r0, r1, r1, lsl #2
    2794:	00010000 	andeq	r0, r1, r0
    2798:	682f0100 	stmdavs	pc!, {r8}	; <UNPREDICTABLE>
    279c:	2f656d6f 	svccs	0x00656d6f
    27a0:	6c676e65 	stclvs	14, cr6, [r7], #-404	; 0xfffffe6c
    27a4:	632f7265 			; <UNDEFINED> instruction: 0x632f7265
    27a8:	7373616c 	cmnvc	r3, #108, 2
    27ac:	3173632f 	cmncc	r3, pc, lsr #6
    27b0:	2d653034 	stclcs	0, cr3, [r5, #-208]!	; 0xffffff30
    27b4:	69773232 	ldmdbvs	r7!, {r1, r4, r5, r9, ip, sp}^
    27b8:	6c2f2f6e 	stcvs	15, cr2, [pc], #-440	; 2608 <__code_start__-0x59f8>
    27bc:	69706269 	ldmdbvs	r0!, {r0, r3, r5, r6, r9, sp, lr}^
    27c0:	636e692f 	cmnvs	lr, #770048	; 0xbc000
    27c4:	6564756c 	strbvs	r7, [r4, #-1388]!	; 0xfffffa94
    27c8:	73752f00 	cmnvc	r5, #0, 30
    27cc:	68732f72 	ldmdavs	r3!, {r1, r4, r5, r6, r8, r9, sl, fp, sp}^
    27d0:	2f657261 	svccs	0x00657261
    27d4:	2d636367 	stclcs	3, cr6, [r3, #-412]!	; 0xfffffe64
    27d8:	2d6d7261 	sfmcs	f7, 2, [sp, #-388]!	; 0xfffffe7c
    27dc:	656e6f6e 	strbvs	r6, [lr, #-3950]!	; 0xfffff092
    27e0:	6261652d 	rsbvs	r6, r1, #188743680	; 0xb400000
    27e4:	30312d69 	eorscc	r2, r1, r9, ror #26
    27e8:	322d332e 	eorcc	r3, sp, #-1207959552	; 0xb8000000
    27ec:	2e313230 	mrccs	2, 1, r3, cr1, cr0, {1}
    27f0:	6c2f3031 	stcvs	0, cr3, [pc], #-196	; 2734 <__code_start__-0x58cc>
    27f4:	672f6269 	strvs	r6, [pc, -r9, ror #4]!
    27f8:	612f6363 			; <UNDEFINED> instruction: 0x612f6363
    27fc:	6e2d6d72 	mcrvs	13, 1, r6, cr13, cr2, {3}
    2800:	2d656e6f 	stclcs	14, cr6, [r5, #-444]!	; 0xfffffe44
    2804:	69626165 	stmdbvs	r2!, {r0, r2, r5, r6, r8, sp, lr}^
    2808:	2e30312f 	rsfcssp	f3, f0, #10.0
    280c:	2f312e33 	svccs	0x00312e33
    2810:	6c636e69 	stclvs	14, cr6, [r3], #-420	; 0xfffffe5c
    2814:	00656475 	rsbeq	r6, r5, r5, ror r4
    2818:	69706700 	ldmdbvs	r0!, {r8, r9, sl, sp, lr}^
    281c:	00632e6f 	rsbeq	r2, r3, pc, ror #28
    2820:	72000000 	andvc	r0, r0, #0
    2824:	682e6970 	stmdavs	lr!, {r4, r5, r6, r8, fp, sp, lr}
    2828:	00000100 	andeq	r0, r0, r0, lsl #2
    282c:	69647473 	stmdbvs	r4!, {r0, r1, r4, r5, r6, sl, ip, sp, lr}^
    2830:	672d746e 	strvs	r7, [sp, -lr, ror #8]!
    2834:	682e6363 	stmdavs	lr!, {r0, r1, r5, r6, r8, r9, sp, lr}
    2838:	00000200 	andeq	r0, r0, r0, lsl #4
    283c:	6f697067 	svcvs	0x00697067
    2840:	0100682e 	tsteq	r0, lr, lsr #16
    2844:	05000000 	streq	r0, [r0, #-0]
    2848:	02050038 	andeq	r0, r5, #56	; 0x38
    284c:	00009bec 	andeq	r9, r0, ip, ror #23
    2850:	05012703 	streq	r2, [r1, #-1795]	; 0xfffff8fd
    2854:	07051305 	streq	r1, [r5, -r5, lsl #6]
    2858:	38050106 	stmdacc	r5, {r1, r2, r8}
    285c:	06050549 	streq	r0, [r5], -r9, asr #10
    2860:	0607054d 	streq	r0, [r7], -sp, asr #10
    2864:	06050501 	streq	r0, [r5], -r1, lsl #10
    2868:	0618054c 	ldreq	r0, [r8], -ip, asr #10
    286c:	ba0e0501 	blt	383c78 <__bss_end__+0x379120>
    2870:	2f060505 	svccs	0x00060505
    2874:	01061c05 	tsteq	r6, r5, lsl #24
    2878:	2e0e052e 	cfsh32cs	mvfx0, mvfx14, #30
    287c:	30060505 	andcc	r0, r6, r5, lsl #10
    2880:	01061205 	tsteq	r6, r5, lsl #4
    2884:	4b060505 	blmi	183ca0 <__bss_end__+0x179148>
    2888:	01060705 	tsteq	r6, r5, lsl #14
    288c:	4b060505 	blmi	183ca8 <__bss_end__+0x179150>
    2890:	052e0613 	streq	r0, [lr, #-1555]!	; 0xfffff9ed
    2894:	24054b01 	strcs	r4, [r5], #-2817	; 0xfffff4ff
    2898:	01064c06 	tsteq	r6, r6, lsl #24
    289c:	2f060505 	svccs	0x00060505
    28a0:	4b060105 	blmi	182cbc <__bss_end__+0x178164>
    28a4:	31062005 	tstcc	r6, r5
    28a8:	05130505 	ldreq	r0, [r3, #-1285]	; 0xfffffafb
    28ac:	05010607 	streq	r0, [r1, #-1543]	; 0xfffff9f9
    28b0:	05054920 	streq	r4, [r5, #-2336]	; 0xfffff6e0
    28b4:	66063106 	strvs	r3, [r6], -r6, lsl #2
    28b8:	052f0105 	streq	r0, [pc, #-261]!	; 27bb <__code_start__-0x5845>
    28bc:	054d0621 	strbeq	r0, [sp, #-1569]	; 0xfffff9df
    28c0:	07051305 	streq	r1, [r5, -r5, lsl #6]
    28c4:	21050106 	tstcs	r5, r6, lsl #2
    28c8:	06050549 	streq	r0, [r5], -r9, asr #10
    28cc:	05660631 	strbeq	r0, [r6, #-1585]!	; 0xfffff9cf
    28d0:	23052f01 	movwcs	r2, #24321	; 0x5f01
    28d4:	01064d06 	tsteq	r6, r6, lsl #26
    28d8:	2f060505 	svccs	0x00060505
    28dc:	4b060105 	blmi	182cf8 <__bss_end__+0x1781a0>
    28e0:	31062b05 	tstcc	r6, r5, lsl #22
    28e4:	05050106 	streq	r0, [r5, #-262]	; 0xfffffefa
    28e8:	07052f06 	streq	r2, [r5, -r6, lsl #30]
    28ec:	09050106 	stmdbeq	r5, {r1, r2, r8}
    28f0:	2e064b06 	vmlacs.f64	d4, d6, d6
    28f4:	01053006 	tsteq	r5, r6
    28f8:	1d052f06 	stcne	15, cr2, [r5, #-24]	; 0xffffffe8
    28fc:	05053006 	streq	r3, [r5, #-6]
    2900:	06070513 			; <UNDEFINED> instruction: 0x06070513
    2904:	491d0501 	ldmdbmi	sp, {r0, r8, sl}
    2908:	31060505 	tstcc	r6, r5, lsl #10
    290c:	060e0513 			; <UNDEFINED> instruction: 0x060e0513
    2910:	06050501 	streq	r0, [r5], -r1, lsl #10
    2914:	0617052f 	ldreq	r0, [r7], -pc, lsr #10
    2918:	23054a01 	movwcs	r4, #23041	; 0x5a01
    291c:	0502042e 	streq	r0, [r2, #-1070]	; 0xfffffbd2
    2920:	d7030630 	smladxle	r3, r0, r6, r0
    2924:	01042e00 	tsteq	r4, r0, lsl #28
    2928:	03060c05 	movweq	r0, #27653	; 0x6c05
    292c:	05017fa9 	streq	r7, [r1, #-4009]	; 0xfffff057
    2930:	10052f01 	andne	r2, r5, r1, lsl #30
    2934:	3201052a 	andcc	r0, r1, #176160768	; 0xa800000
    2938:	01000402 	tsteq	r0, r2, lsl #8
    293c:	Address 0x000000000000293c is out of bounds.


Disassembly of section .debug_str:

00000000 <.debug_str>:
   0:	54524150 	ldrbpl	r4, [r2], #-336	; 0xfffffeb0
   4:	55525f30 	ldrbpl	r5, [r2, #-3888]	; 0xfffff0d0
   8:	41525f4e 	cmpmi	r2, lr, asr #30
   c:	65720057 	ldrbvs	r0, [r2, #-87]!	; 0xffffffa9
  10:	65675f67 	strbvs	r5, [r7, #-3943]!	; 0xfffff099
  14:	70735f74 	rsbsvc	r5, r3, r4, ror pc
  18:	6f727000 	svcvs	0x00727000
  1c:	6d617267 	sfmvs	f7, 2, [r1, #-412]!	; 0xfffffe64
  20:	7465675f 	strbtvc	r6, [r5], #-1887	; 0xfffff8a1
  24:	72617000 	rsbvc	r7, r1, #0
  28:	735f3174 	cmpvc	pc, #116, 2
  2c:	765f6977 			; <UNDEFINED> instruction: 0x765f6977
  30:	75006365 	strvc	r6, [r0, #-869]	; 0xfffffc9b
  34:	5f726573 	svcpl	0x00726573
  38:	65646f63 	strbvs	r6, [r4, #-3939]!	; 0xfffff09d
  3c:	6f687300 	svcvs	0x00687300
  40:	69207472 	stmdbvs	r0!, {r1, r4, r5, r6, sl, ip, sp, lr}
  44:	5000746e 	andpl	r7, r0, lr, ror #8
  48:	34545241 	ldrbcc	r5, [r4], #-577	; 0xfffffdbf
  4c:	4e55525f 	mrcmi	2, 2, r5, cr5, cr15, {2}
  50:	4745525f 	smlsldmi	r5, r5, pc, r2	; <UNPREDICTABLE>
  54:	5551455f 	ldrbpl	r4, [r1, #-1375]	; 0xfffffaa1
  58:	70005649 	andvc	r5, r0, r9, asr #12
  5c:	34747261 	ldrbtcc	r7, [r4], #-609	; 0xfffffd9f
  60:	7571655f 	ldrbvc	r6, [r1, #-1375]!	; 0xfffffaa1
  64:	765f7669 	ldrbvc	r7, [pc], -r9, ror #12
  68:	76006365 	strvc	r6, [r0], -r5, ror #6
  6c:	6f746365 	svcvs	0x00746365
  70:	61625f72 	smcvs	9714	; 0x25f2
  74:	735f6573 	cmpvc	pc, #482344960	; 0x1cc00000
  78:	50007465 	andpl	r7, r0, r5, ror #8
  7c:	32545241 	subscc	r5, r4, #268435460	; 0x10000004
  80:	4e55525f 	mrcmi	2, 2, r5, cr5, cr15, {2}
  84:	4e49535f 	mcrmi	3, 2, r5, cr9, cr15, {2}
  88:	00454c47 	subeq	r4, r5, r7, asr #24
  8c:	746e6975 	strbtvc	r6, [lr], #-2421	; 0xfffff68b
  90:	00745f38 	rsbseq	r5, r4, r8, lsr pc
  94:	746e6975 	strbtvc	r6, [lr], #-2421	; 0xfffff68b
  98:	745f3233 	ldrbvc	r3, [pc], #-563	; a0 <__code_start__-0x7f60>
  9c:	63657600 	cmnvs	r5, #0, 12
  a0:	5f726f74 	svcpl	0x00726f74
  a4:	65736162 	ldrbvs	r6, [r3, #-354]!	; 0xfffffe9e
  a8:	69626e00 	stmdbvs	r2!, {r9, sl, fp, sp, lr}^
  ac:	76007374 			; <UNDEFINED> instruction: 0x76007374
  b0:	6f746365 	svcvs	0x00746365
  b4:	61625f72 	smcvs	9714	; 0x25f2
  b8:	615f6573 	cmpvs	pc, r3, ror r5	; <UNPREDICTABLE>
  bc:	675f6d73 			; <UNDEFINED> instruction: 0x675f6d73
  c0:	6c007465 	cfstrsvs	mvf7, [r0], {101}	; 0x65
  c4:	20676e6f 	rsbcs	r6, r7, pc, ror #28
  c8:	676e6f6c 	strbvs	r6, [lr, -ip, ror #30]!
  cc:	746e6920 	strbtvc	r6, [lr], #-2336	; 0xfffff6e0
  d0:	72617000 	rsbvc	r7, r1, #0
  d4:	5f5f0074 	svcpl	0x005f0074
  d8:	434e5546 	movtmi	r5, #58694	; 0xe546
  dc:	4e4f4954 			; <UNDEFINED> instruction: 0x4e4f4954
  e0:	70005f5f 	andvc	r5, r0, pc, asr pc
  e4:	32747261 	rsbscc	r7, r4, #268435462	; 0x10000006
  e8:	6e69735f 	mcrvs	3, 3, r7, cr9, cr15, {2}
  ec:	5f656c67 	svcpl	0x00656c67
  f0:	70657473 	rsbvc	r7, r5, r3, ror r4
  f4:	6365765f 	cmnvs	r5, #99614720	; 0x5f00000
  f8:	656c6300 	strbvs	r6, [ip, #-768]!	; 0xfffffd00
  fc:	725f6e61 	subsvc	r6, pc, #1552	; 0x610
 100:	6f6f6265 	svcvs	0x006f6265
 104:	79730074 	ldmdbvc	r3!, {r2, r4, r5, r6}^
 108:	65765f73 	ldrbvs	r5, [r6, #-3955]!	; 0xfffff08d
 10c:	736f6272 	cmnvc	pc, #536870919	; 0x20000007
 110:	00705f65 	rsbseq	r5, r0, r5, ror #30
 114:	69736e75 	ldmdbvs	r3!, {r0, r2, r4, r5, r6, r9, sl, fp, sp, lr}^
 118:	64656e67 	strbtvs	r6, [r5], #-3687	; 0xfffff199
 11c:	61686320 	cmnvs	r8, r0, lsr #6
 120:	4e470072 	mcrmi	0, 2, r0, cr7, cr2, {3}
 124:	39432055 	stmdbcc	r3, {r0, r2, r4, r6, sp}^
 128:	30312039 	eorscc	r2, r1, r9, lsr r0
 12c:	312e332e 			; <UNDEFINED> instruction: 0x312e332e
 130:	32303220 	eorscc	r3, r0, #32, 4
 134:	32383031 	eorscc	r3, r8, #49	; 0x31
 138:	72282034 	eorvc	r2, r8, #52	; 0x34
 13c:	61656c65 	cmnvs	r5, r5, ror #24
 140:	20296573 	eorcs	r6, r9, r3, ror r5
 144:	70636d2d 	rsbvc	r6, r3, sp, lsr #26
 148:	72613d75 	rsbvc	r3, r1, #7488	; 0x1d40
 14c:	3731316d 	ldrcc	r3, [r1, -sp, ror #2]!
 150:	667a6a36 			; <UNDEFINED> instruction: 0x667a6a36
 154:	2d20732d 	stccs	3, cr7, [r0, #-180]!	; 0xffffff4c
 158:	6e75746d 	cdpvs	4, 7, cr7, cr5, cr13, {3}
 15c:	72613d65 	rsbvc	r3, r1, #6464	; 0x1940
 160:	3731316d 	ldrcc	r3, [r1, -sp, ror #2]!
 164:	667a6a36 			; <UNDEFINED> instruction: 0x667a6a36
 168:	2d20732d 	stccs	3, cr7, [r0, #-180]!	; 0xffffff4c
 16c:	6f6c666d 	svcvs	0x006c666d
 170:	612d7461 			; <UNDEFINED> instruction: 0x612d7461
 174:	733d6962 	teqvc	sp, #1605632	; 0x188000
 178:	2074666f 	rsbscs	r6, r4, pc, ror #12
 17c:	72616d2d 	rsbvc	r6, r1, #2880	; 0xb40
 180:	6d2d206d 	stcvs	0, cr2, [sp, #-436]!	; 0xfffffe4c
 184:	68637261 	stmdavs	r3!, {r0, r5, r6, r9, ip, sp, lr}^
 188:	6d72613d 	ldfvse	f6, [r2, #-244]!	; 0xffffff0c
 18c:	7a6b3676 	bvc	1acdb6c <__bss_end__+0x1ac3014>
 190:	67672d20 	strbvs	r2, [r7, -r0, lsr #26]!
 194:	2d206264 	sfmcs	f6, 4, [r0, #-400]!	; 0xfffffe70
 198:	2d20674f 	stccs	7, cr6, [r0, #-316]!	; 0xfffffec4
 19c:	3d647473 	cfstrdcc	mvd7, [r4, #-460]!	; 0xfffffe34
 1a0:	39756e67 	ldmdbcc	r5!, {r0, r1, r2, r5, r6, r9, sl, fp, sp, lr}^
 1a4:	662d2039 			; <UNDEFINED> instruction: 0x662d2039
 1a8:	65657266 	strbvs	r7, [r5, #-614]!	; 0xfffffd9a
 1ac:	6e617473 	mcrvs	4, 3, r7, cr1, cr3, {3}
 1b0:	676e6964 	strbvs	r6, [lr, -r4, ror #18]!
 1b4:	6e6f6c00 	cdpvs	12, 6, cr6, cr15, cr0, {0}
 1b8:	6f6c2067 	svcvs	0x006c2067
 1bc:	7520676e 	strvc	r6, [r0, #-1902]!	; 0xfffff892
 1c0:	6769736e 	strbvs	r7, [r9, -lr, ror #6]!
 1c4:	2064656e 	rsbcs	r6, r4, lr, ror #10
 1c8:	00746e69 	rsbseq	r6, r4, r9, ror #28
 1cc:	76697274 			; <UNDEFINED> instruction: 0x76697274
 1d0:	2d6c6169 	stfcse	f6, [ip, #-420]!	; 0xfffffe5c
 1d4:	632e736f 			; <UNDEFINED> instruction: 0x632e736f
 1d8:	6f727000 	svcvs	0x00727000
 1dc:	65760067 	ldrbvs	r0, [r6, #-103]!	; 0xffffff99
 1e0:	726f7463 	rsbvc	r7, pc, #1660944384	; 0x63000000
 1e4:	7361625f 	cmnvc	r1, #-268435451	; 0xf0000005
 1e8:	65675f65 	strbvs	r5, [r7, #-3941]!	; 0xfffff09b
 1ec:	6f6e0074 	svcvs	0x006e0074
 1f0:	69616d74 	stmdbvs	r1!, {r2, r4, r5, r6, r8, sl, fp, sp, lr}^
 1f4:	6873006e 	ldmdavs	r3!, {r1, r2, r3, r5, r6}^
 1f8:	2074726f 	rsbscs	r7, r4, pc, ror #4
 1fc:	69736e75 	ldmdbvs	r3!, {r0, r2, r4, r5, r6, r9, sl, fp, sp, lr}^
 200:	64656e67 	strbtvs	r6, [r5], #-3687	; 0xfffff199
 204:	746e6920 	strbtvc	r6, [lr], #-2336	; 0xfffff6e0
 208:	5f6f6400 	svcpl	0x006f6400
 20c:	63737973 	cmnvs	r3, #1884160	; 0x1cc000
 210:	006c6c61 	rsbeq	r6, ip, r1, ror #24
 214:	54524150 	ldrbpl	r4, [r2], #-336	; 0xfffffeb0
 218:	55525f33 	ldrbpl	r5, [r2, #-3891]	; 0xfffff0cd
 21c:	43505f4e 	cmpmi	r0, #312	; 0x138
 220:	5551455f 	ldrbpl	r4, [r1, #-1375]	; 0xfffffaa1
 224:	70005649 	andvc	r5, r0, r9, asr #12
 228:	65666572 	strbvs	r6, [r6, #-1394]!	; 0xfffffa8e
 22c:	5f686374 	svcpl	0x00686374
 230:	73756c66 	cmnvc	r5, #26112	; 0x6600
 234:	79730068 	ldmdbvc	r3!, {r3, r5, r6}^
 238:	6d756e73 	ldclvs	14, cr6, [r5, #-460]!	; 0xfffffe34
 23c:	74696200 	strbtvc	r6, [r9], #-512	; 0xfffffe00
 240:	616d5f73 	smcvs	54771	; 0xd5f3
 244:	50006b73 	andpl	r6, r0, r3, ror fp
 248:	31545241 	cmpcc	r4, r1, asr #4
 24c:	4e55525f 	mrcmi	2, 2, r5, cr5, cr15, {2}
 250:	4553555f 	ldrbmi	r5, [r3, #-1375]	; 0xfffffaa1
 254:	61700052 	cmnvs	r0, r2, asr r0
 258:	5f337472 	svcpl	0x00337472
 25c:	69757165 	ldmdbvs	r5!, {r0, r2, r5, r6, r8, ip, sp, lr}^
 260:	63705f76 	cmnvs	r0, #472	; 0x1d8
 264:	6365765f 	cmnvs	r5, #99614720	; 0x5f00000
 268:	63657600 	cmnvs	r5, #0, 12
 26c:	5f726f74 	svcpl	0x00726f74
 270:	65736162 	ldrbvs	r6, [r3, #-354]!	; 0xfffffe9e
 274:	6d73615f 	ldfvse	f6, [r3, #-380]!	; 0xfffffe84
 278:	7465735f 	strbtvc	r7, [r5], #-863	; 0xfffffca1
 27c:	6f682f00 	svcvs	0x00682f00
 280:	652f656d 	strvs	r6, [pc, #-1389]!	; fffffd1b <__bss_end__+0xffff51c3>
 284:	656c676e 	strbvs	r6, [ip, #-1902]!	; 0xfffff892
 288:	6c632f72 	stclvs	15, cr2, [r3], #-456	; 0xfffffe38
 28c:	2f737361 	svccs	0x00737361
 290:	34317363 	ldrtcc	r7, [r1], #-867	; 0xfffffc9d
 294:	322d6530 	eorcc	r6, sp, #48, 10	; 0xc000000
 298:	6e697732 	mcrvs	7, 3, r7, cr9, cr2, {1}
 29c:	62616c2f 	rsbvs	r6, r1, #12032	; 0x2f00
 2a0:	31312f73 	teqcc	r1, r3, ror pc
 2a4:	6573752d 	ldrbvs	r7, [r3, #-1325]!	; 0xfffffad3
 2a8:	72702d72 	rsbsvc	r2, r0, #7296	; 0x1c80
 2ac:	7365636f 	cmnvc	r5, #-1140850687	; 0xbc000001
 2b0:	6f632f73 	svcvs	0x00632f73
 2b4:	742f6564 	strtvc	r6, [pc], #-1380	; 2bc <__code_start__-0x7d44>
 2b8:	69766972 	ldmdbvs	r6!, {r1, r4, r5, r6, r8, fp, sp, lr}^
 2bc:	6f2d6c61 	svcvs	0x002d6c61
 2c0:	72700073 	rsbsvc	r0, r0, #115	; 0x73
 2c4:	6e5f676f 	cdpvs	7, 5, cr6, cr15, cr15, {3}
 2c8:	00656d61 	rsbeq	r6, r5, r1, ror #26
 2cc:	73746962 	cmnvc	r4, #1605632	; 0x188000
 2d0:	7465675f 	strbtvc	r6, [r5], #-1887	; 0xfffff8a1
 2d4:	6e5f6200 	cdpvs	2, 5, cr6, cr15, cr0, {0}
 2d8:	65747962 	ldrbvs	r7, [r4, #-2402]!	; 0xfffff69e
 2dc:	5f620073 	svcpl	0x00620073
 2e0:	72646461 	rsbvc	r6, r4, #1627389952	; 0x61000000
 2e4:	72747300 	rsbsvc	r7, r4, #0, 6
 2e8:	006e656c 	rsbeq	r6, lr, ip, ror #10
 2ec:	63727473 	cmnvs	r2, #1929379840	; 0x73000000
 2f0:	63007970 	movwvs	r7, #2416	; 0x970
 2f4:	6f747375 	svcvs	0x00747375
 2f8:	6f6c5f6d 	svcvs	0x006c5f6d
 2fc:	72656461 	rsbvc	r6, r5, #1627389952	; 0x61000000
 300:	61747300 	cmnvs	r4, r0, lsl #6
 304:	6c2d6666 	stcvs	6, cr6, [sp], #-408	; 0xfffffe68
 308:	6564616f 	strbvs	r6, [r4, #-367]!	; 0xfffffe91
 30c:	00632e72 	rsbeq	r2, r3, r2, ror lr
 310:	65685f5f 	strbvs	r5, [r8, #-3935]!	; 0xfffff0a1
 314:	655f7061 	ldrbvs	r7, [pc, #-97]	; 2bb <__code_start__-0x7d45>
 318:	5f5f646e 	svcpl	0x005f646e
 31c:	6d656d00 	stclvs	13, cr6, [r5, #-0]
 320:	00797063 	rsbseq	r7, r9, r3, rrx
 324:	61645f5f 	cmnvs	r4, pc, asr pc
 328:	655f6174 	ldrbvs	r6, [pc, #-372]	; 1bc <__code_start__-0x7e44>
 32c:	5f5f646e 	svcpl	0x005f646e
 330:	65737500 	ldrbvs	r7, [r3, #-1280]!	; 0xfffffb00
 334:	6f6d5f72 	svcvs	0x006d5f72
 338:	725f6564 	subsvc	r6, pc, #100, 10	; 0x19000000
 33c:	665f6e75 			; <UNDEFINED> instruction: 0x665f6e75
 340:	7262006e 	rsbvc	r0, r2, #110	; 0x6e
 344:	5f74706b 	svcpl	0x0074706b
 348:	6d73696d 			; <UNDEFINED> instruction: 0x6d73696d
 34c:	68637461 	stmdavs	r3!, {r0, r5, r6, sl, ip, sp, lr}^
 350:	6f74735f 	svcvs	0x0074735f
 354:	69730070 	ldmdbvs	r3!, {r4, r5, r6}^
 358:	656c676e 	strbvs	r6, [ip, #-1902]!	; 0xfffff892
 35c:	6574735f 	ldrbvs	r7, [r4, #-863]!	; 0xfffffca1
 360:	6e635f70 	mcrvs	15, 3, r5, cr3, cr0, {3}
 364:	72700074 	rsbsvc	r0, r0, #116	; 0x74
 368:	74656665 	strbtvc	r6, [r5], #-1637	; 0xfffff99b
 36c:	615f6863 	cmpvs	pc, r3, ror #16
 370:	74726f62 	ldrbtvc	r6, [r2], #-3938	; 0xfffff09e
 374:	6e69735f 	mcrvs	3, 3, r7, cr9, cr15, {2}
 378:	5f656c67 	svcpl	0x00656c67
 37c:	70657473 	rsbvc	r7, r5, r3, ror r4
 380:	6e697300 	cdpvs	3, 6, cr7, cr9, cr0, {0}
 384:	5f656c67 	svcpl	0x00656c67
 388:	70657473 	rsbvc	r7, r5, r3, ror r4
 38c:	7561665f 	strbvc	r6, [r1, #-1631]!	; 0xfffff9a1
 390:	0073746c 	rsbseq	r7, r3, ip, ror #8
 394:	706b7262 	rsbvc	r7, fp, r2, ror #4
 398:	696d5f74 	stmdbvs	sp!, {r2, r4, r5, r6, r8, r9, sl, fp, ip, lr}^
 39c:	74616d73 	strbtvc	r6, [r1], #-3443	; 0xfffff28d
 3a0:	735f6863 	cmpvc	pc, #6488064	; 0x630000
 3a4:	73007465 	movwvc	r7, #1125	; 0x465
 3a8:	6c676e69 	stclvs	14, cr6, [r7], #-420	; 0xfffffe5c
 3ac:	74735f65 	ldrbtvc	r5, [r3], #-3941	; 0xfffff09b
 3b0:	725f7065 	subsvc	r7, pc, #101	; 0x65
 3b4:	665f6e75 			; <UNDEFINED> instruction: 0x665f6e75
 3b8:	6973006e 	ldmdbvs	r3!, {r1, r2, r3, r5, r6}^
 3bc:	656c676e 	strbvs	r6, [ip, #-1902]!	; 0xfffff892
 3c0:	6574732d 	ldrbvs	r7, [r4, #-813]!	; 0xfffffcd3
 3c4:	00632e70 	rsbeq	r2, r3, r0, ror lr
 3c8:	72657375 	rsbvc	r7, r5, #-738197503	; 0xd4000001
 3cc:	006e665f 	rsbeq	r6, lr, pc, asr r6
 3d0:	706b7262 	rsbvc	r7, fp, r2, ror #4
 3d4:	696d5f74 	stmdbvs	sp!, {r2, r4, r5, r6, r8, r9, sl, fp, ip, lr}^
 3d8:	74616d73 	strbtvc	r6, [r1], #-3443	; 0xfffff28d
 3dc:	735f6863 	cmpvc	pc, #6488064	; 0x630000
 3e0:	74726174 	ldrbtvc	r6, [r2], #-372	; 0xfffffe8c
 3e4:	695f6e00 	ldmdbvs	pc, {r9, sl, fp, sp, lr}^	; <UNPREDICTABLE>
 3e8:	0074736e 	rsbseq	r7, r4, lr, ror #6
 3ec:	685f6370 	ldmdavs	pc, {r4, r5, r6, r8, r9, sp, lr}^	; <UNPREDICTABLE>
 3f0:	00687361 	rsbeq	r7, r8, r1, ror #6
 3f4:	72737063 	rsbsvc	r7, r3, #99	; 0x63
 3f8:	7465675f 	strbtvc	r6, [r5], #-1887	; 0xfffff8a1
 3fc:	705f6e00 	subsvc	r6, pc, r0, lsl #28
 400:	746e6972 	strbtvc	r6, [lr], #-2418	; 0xfffff68e
 404:	75716500 	ldrbvc	r6, [r1, #-1280]!	; 0xfffffb00
 408:	635f7669 	cmpvs	pc, #110100480	; 0x6900000
 40c:	745f7874 	ldrbvc	r7, [pc], #-2164	; 414 <__code_start__-0x7bec>
 410:	73707300 	cmnvc	r0, #0, 6
 414:	6f6d0072 	svcvs	0x006d0072
 418:	695f6564 	ldmdbvs	pc, {r2, r5, r6, r8, sl, sp, lr}^	; <UNPREDICTABLE>
 41c:	75735f73 	ldrbvc	r5, [r3, #-3955]!	; 0xfffff08d
 420:	00726570 	rsbseq	r6, r2, r0, ror r5
 424:	66657270 			; <UNDEFINED> instruction: 0x66657270
 428:	68637465 	stmdavs	r3!, {r0, r2, r5, r6, sl, ip, sp, lr}^
 42c:	6f62615f 	svcvs	0x0062615f
 430:	655f7472 	ldrbvs	r7, [pc, #-1138]	; ffffffc6 <__bss_end__+0xffff546e>
 434:	76697571 			; <UNDEFINED> instruction: 0x76697571
 438:	6d656d00 	stclvs	13, cr6, [r5, #-0]
 43c:	00746573 	rsbseq	r6, r4, r3, ror r5
 440:	65646f6d 	strbvs	r6, [r4, #-3949]!	; 0xfffff093
 444:	67656c5f 			; <UNDEFINED> instruction: 0x67656c5f
 448:	69006c61 	stmdbvs	r0, {r0, r5, r6, sl, fp, sp, lr}
 44c:	73755f6e 	cmnvc	r5, #440	; 0x1b8
 450:	63007265 	movwvs	r7, #613	; 0x265
 454:	635f7275 	cmpvs	pc, #1342177287	; 0x50000007
 458:	63007874 	movwvs	r7, #2164	; 0x874
 45c:	00727370 	rsbseq	r7, r2, r0, ror r3
 460:	65646f6d 	strbvs	r6, [r4, #-3949]!	; 0xfffff093
 464:	0071655f 	rsbseq	r6, r1, pc, asr r5
 468:	69757165 	ldmdbvs	r5!, {r0, r2, r5, r6, r8, ip, sp, lr}^
 46c:	75725f76 	ldrbvc	r5, [r2, #-3958]!	; 0xfffff08a
 470:	6e665f6e 	cdpvs	15, 6, cr5, cr6, cr14, {3}
 474:	67657200 	strbvs	r7, [r5, -r0, lsl #4]!
 478:	7361685f 	cmnvc	r1, #6225920	; 0x5f0000
 47c:	72700068 	rsbsvc	r0, r0, #104	; 0x68
 480:	74656665 	strbtvc	r6, [r5], #-1637	; 0xfffff99b
 484:	615f6863 	cmpvs	pc, r3, ror #16
 488:	74726f62 	ldrbtvc	r6, [r2], #-3938	; 0xfffff09e
 48c:	7571655f 	ldrbvc	r6, [r1, #-1375]!	; 0xfffffaa1
 490:	705f7669 	subsvc	r7, pc, r9, ror #12
 494:	6f6d0063 	svcvs	0x006d0063
 498:	6d006564 	cfstr32vs	mvfx6, [r0, #-400]	; 0xfffffe70
 49c:	5f65646f 	svcpl	0x0065646f
 4a0:	00746567 	rsbseq	r6, r4, r7, ror #10
 4a4:	6e697270 	mcrvs	2, 3, r7, cr9, cr0, {3}
 4a8:	69665f74 	stmdbvs	r6!, {r2, r4, r5, r6, r8, r9, sl, fp, ip, lr}^
 4ac:	5f747372 	svcpl	0x00747372
 4b0:	7165006e 	cmnvc	r5, lr, rrx
 4b4:	2e766975 			; <UNDEFINED> instruction: 0x2e766975
 4b8:	71650063 	cmnvc	r5, r3, rrx
 4bc:	5f766975 	svcpl	0x00766975
 4c0:	6e697270 	mcrvs	2, 3, r7, cr9, cr0, {3}
 4c4:	65720074 	ldrbvs	r0, [r2, #-116]!	; 0xffffff8c
 4c8:	63007367 	movwvs	r7, #871	; 0x367
 4cc:	5f343170 	svcpl	0x00343170
 4d0:	30726362 	rsbscc	r6, r2, r2, ror #6
 4d4:	7465675f 	strbtvc	r6, [r5], #-1887	; 0xfffff8a1
 4d8:	65727000 	ldrbvs	r7, [r2, #-0]!
 4dc:	63746566 	cmnvs	r4, #427819008	; 0x19800000
 4e0:	62615f68 	rsbvs	r5, r1, #104, 30	; 0x1a0
 4e4:	5f74726f 	svcpl	0x0074726f
 4e8:	74636576 	strbtvc	r6, [r3], #-1398	; 0xfffffa8a
 4ec:	6300726f 	movwvs	r7, #623	; 0x26f
 4f0:	5f343170 	svcpl	0x00343170
 4f4:	30727677 	rsbscc	r7, r2, r7, ror r6
 4f8:	7465675f 	strbtvc	r6, [r5], #-1887	; 0xfffff8a1
 4fc:	69707200 	ldmdbvs	r0!, {r9, ip, sp, lr}^
 500:	7475705f 	ldrbtvc	r7, [r5], #-95	; 0xffffffa1
 504:	72616863 	rsbvc	r6, r1, #6488064	; 0x630000
 508:	6f682f00 	svcvs	0x00682f00
 50c:	652f656d 	strvs	r6, [pc, #-1389]!	; ffffffa7 <__bss_end__+0xffff544f>
 510:	656c676e 	strbvs	r6, [ip, #-1902]!	; 0xfffff892
 514:	6c632f72 	stclvs	15, cr2, [r3], #-456	; 0xfffffe38
 518:	2f737361 	svccs	0x00737361
 51c:	34317363 	ldrtcc	r7, [r1], #-867	; 0xfffffc9d
 520:	322d6530 	eorcc	r6, sp, #48, 10	; 0xc000000
 524:	72707331 	rsbsvc	r7, r0, #-1006632960	; 0xc4000000
 528:	62616c2f 	rsbvs	r6, r1, #12032	; 0x2f00
 52c:	30312f73 	eorscc	r2, r1, r3, ror pc
 530:	6f72702d 	svcvs	0x0072702d
 534:	73736563 	cmnvc	r3, #415236096	; 0x18c00000
 538:	646f632f 	strbtvs	r6, [pc], #-815	; 540 <__code_start__-0x7ac0>
 53c:	61662f65 	cmnvs	r6, r5, ror #30
 540:	6f2d656b 	svcvs	0x002d656b
 544:	61680073 	smcvs	32771	; 0x8003
 548:	656c646e 	strbvs	r6, [ip, #-1134]!	; 0xfffffb92
 54c:	66640072 			; <UNDEFINED> instruction: 0x66640072
 550:	675f7273 			; <UNDEFINED> instruction: 0x675f7273
 554:	62007465 	andvs	r7, r0, #1694498816	; 0x65000000
 558:	695f7469 	ldmdbvs	pc, {r0, r3, r5, r6, sl, ip, sp, lr}^	; <UNPREDICTABLE>
 55c:	6e6f5f73 	mcrvs	15, 3, r5, cr15, cr3, {3}
 560:	73617700 	cmnvc	r1, #0, 14
 564:	6265645f 	rsbvs	r6, r5, #1593835520	; 0x5f000000
 568:	645f6775 	ldrbvs	r6, [pc], #-1909	; 570 <__code_start__-0x7a90>
 56c:	66617461 	strbtvs	r7, [r1], -r1, ror #8
 570:	746c7561 	strbtvc	r7, [ip], #-1377	; 0xfffffa9f
 574:	6b726200 	blvs	1c98d7c <__bss_end__+0x1c8e224>
 578:	6d5f7470 	cfldrdvs	mvd7, [pc, #-448]	; 3c0 <__code_start__-0x7c40>
 57c:	616d7369 	cmnvs	sp, r9, ror #6
 580:	5f686374 	svcpl	0x00686374
 584:	30746573 	rsbscc	r6, r4, r3, ror r5
 588:	696e6900 	stmdbvs	lr!, {r8, fp, sp, lr}^
 58c:	00705f74 	rsbseq	r5, r0, r4, ror pc
 590:	66617473 			; <UNDEFINED> instruction: 0x66617473
 594:	72622d66 	rsbvc	r2, r2, #6528	; 0x1980
 598:	706b6165 	rsbvc	r6, fp, r5, ror #2
 59c:	746e696f 	strbtvc	r6, [lr], #-2415	; 0xfffff691
 5a0:	6300632e 	movwvs	r6, #814	; 0x32e
 5a4:	5f343170 	svcpl	0x00343170
 5a8:	74617473 	strbtvc	r7, [r1], #-1139	; 0xfffffb8d
 5ac:	735f7375 	cmpvc	pc, #-738197503	; 0xd4000001
 5b0:	63007465 	movwvs	r7, #1125	; 0x465
 5b4:	5f343170 	svcpl	0x00343170
 5b8:	30727677 	rsbscc	r7, r2, r7, ror r6
 5bc:	7465735f 	strbtvc	r7, [r5], #-863	; 0xfffffca1
 5c0:	31706300 	cmncc	r0, r0, lsl #6
 5c4:	63775f34 	cmnvs	r7, #52, 30	; 0xd0
 5c8:	735f3072 	cmpvc	pc, #114	; 0x72
 5cc:	77007465 	strvc	r7, [r0, -r5, ror #8]
 5d0:	5f726166 	svcpl	0x00726166
 5d4:	00746567 	rsbseq	r6, r4, r7, ror #10
 5d8:	72637364 	rsbvc	r7, r3, #100, 6	; 0x90000001
 5dc:	7465675f 	strbtvc	r6, [r5], #-1887	; 0xfffff8a1
 5e0:	74696200 	strbtvc	r6, [r9], #-512	; 0xfffffe00
 5e4:	726c635f 	rsbvc	r6, ip, #2080374785	; 0x7c000001
 5e8:	6b726200 	blvs	1c98df0 <__bss_end__+0x1c8e298>
 5ec:	5f6f6e5f 	svcpl	0x006f6e5f
 5f0:	5f746572 	svcpl	0x00746572
 5f4:	6f727265 	svcvs	0x00727265
 5f8:	65640072 	strbvs	r0, [r4, #-114]!	; 0xffffff8e
 5fc:	5f677562 	svcpl	0x00677562
 600:	61746164 	cmnvs	r4, r4, ror #2
 604:	6f62615f 	svcvs	0x0062615f
 608:	765f7472 			; <UNDEFINED> instruction: 0x765f7472
 60c:	6f746365 	svcvs	0x00746365
 610:	61770072 	cmnvs	r7, r2, ror r0
 614:	70686374 	rsbvc	r6, r8, r4, ror r3
 618:	65735f74 	ldrbvs	r5, [r3, #-3956]!	; 0xfffff08c
 61c:	69003074 	stmdbvs	r0, {r2, r4, r5, r6, ip, sp}
 620:	5f727366 	svcpl	0x00727366
 624:	00746567 	rsbseq	r6, r4, r7, ror #10
 628:	706b7262 	rsbvc	r7, fp, r2, ror #4
 62c:	696d5f74 	stmdbvs	sp!, {r2, r4, r5, r6, r8, r9, sl, fp, ip, lr}^
 630:	74616d73 	strbtvc	r6, [r1], #-3443	; 0xfffff28d
 634:	645f6863 	ldrbvs	r6, [pc], #-2147	; 63c <__code_start__-0x79c4>
 638:	62617369 	rsbvs	r7, r1, #-1543503871	; 0xa4000001
 63c:	0030656c 	eorseq	r6, r0, ip, ror #10
 640:	706b7262 	rsbvc	r7, fp, r2, ror #4
 644:	65735f74 	ldrbvs	r5, [r3, #-3956]!	; 0xfffff08c
 648:	62003074 	andvs	r3, r0, #116	; 0x74
 64c:	74706b72 	ldrbtvc	r6, [r0], #-2930	; 0xfffff48e
 650:	73696d5f 	cmnvc	r9, #6080	; 0x17c0
 654:	6374616d 	cmnvs	r4, #1073741851	; 0x4000001b
 658:	65735f68 	ldrbvs	r5, [r3, #-3944]!	; 0xfffff098
 65c:	725f3074 	subsvc	r3, pc, #116	; 0x74
 660:	6d007761 	stcvs	7, cr7, [r0, #-388]	; 0xfffffe7c
 664:	68637461 	stmdavs	r3!, {r0, r5, r6, sl, ip, sp, lr}^
 668:	6400705f 	strvs	r7, [r0], #-95	; 0xffffffa1
 66c:	66617461 	strbtvs	r7, [r1], -r1, ror #8
 670:	746c7561 	strbtvc	r7, [ip], #-1377	; 0xfffffa9f
 674:	6f72665f 	svcvs	0x0072665f
 678:	646c5f6d 	strbtvs	r5, [ip], #-3949	; 0xfffff093
 67c:	31706300 	cmncc	r0, r0, lsl #6
 680:	63625f34 	cmnvs	r2, #52, 30	; 0xd0
 684:	735f3072 	cmpvc	pc, #114	; 0x72
 688:	63007465 	movwvs	r7, #1125	; 0x465
 68c:	5f343170 	svcpl	0x00343170
 690:	62616e65 	rsbvs	r6, r1, #1616	; 0x650
 694:	6200656c 	andvs	r6, r0, #108, 10	; 0x1b000000
 698:	74706b72 	ldrbtvc	r6, [r0], #-2930	; 0xfffff48e
 69c:	6e61685f 	mcrvs	8, 3, r6, cr1, cr15, {2}
 6a0:	72656c64 	rsbvc	r6, r5, #100, 24	; 0x6400
 6a4:	72620030 	rsbvc	r0, r2, #48	; 0x30
 6a8:	5f74706b 	svcpl	0x0074706b
 6ac:	61736964 	cmnvs	r3, r4, ror #18
 6b0:	30656c62 	rsbcc	r6, r5, r2, ror #24
 6b4:	31706300 	cmncc	r0, r0, lsl #6
 6b8:	74735f34 	ldrbtvc	r5, [r3], #-3892	; 0xfffff0cc
 6bc:	73757461 	cmnvc	r5, #1627389952	; 0x61000000
 6c0:	7465675f 	strbtvc	r6, [r5], #-1887	; 0xfffff8a1
 6c4:	73617700 	cmnvc	r1, #0, 14
 6c8:	6265645f 	rsbvs	r6, r5, #1593835520	; 0x5f000000
 6cc:	695f6775 	ldmdbvs	pc, {r0, r2, r4, r5, r6, r8, r9, sl, sp, lr}^	; <UNPREDICTABLE>
 6d0:	6674736e 	ldrbtvs	r7, [r4], -lr, ror #6
 6d4:	746c7561 	strbtvc	r7, [ip], #-1377	; 0xfffffa9f
 6d8:	554e4700 	strbpl	r4, [lr, #-1792]	; 0xfffff900
 6dc:	39394320 	ldmdbcc	r9!, {r5, r8, r9, lr}
 6e0:	322e3920 	eorcc	r3, lr, #32, 18	; 0x80000
 6e4:	3220312e 	eorcc	r3, r0, #-2147483637	; 0x8000000b
 6e8:	31393130 	teqcc	r9, r0, lsr r1
 6ec:	20353230 	eorscs	r3, r5, r0, lsr r2
 6f0:	6c657228 	sfmvs	f7, 2, [r5], #-160	; 0xffffff60
 6f4:	65736165 	ldrbvs	r6, [r3, #-357]!	; 0xfffffe9b
 6f8:	415b2029 	cmpmi	fp, r9, lsr #32
 6fc:	612f4d52 			; <UNDEFINED> instruction: 0x612f4d52
 700:	392d6d72 	pushcc	{r1, r4, r5, r6, r8, sl, fp, sp, lr}
 704:	6172622d 	cmnvs	r2, sp, lsr #4
 708:	2068636e 	rsbcs	r6, r8, lr, ror #6
 70c:	69766572 	ldmdbvs	r6!, {r1, r4, r5, r6, r8, sl, sp, lr}^
 710:	6e6f6973 			; <UNDEFINED> instruction: 0x6e6f6973
 714:	37373220 	ldrcc	r3, [r7, -r0, lsr #4]!
 718:	5d393935 			; <UNDEFINED> instruction: 0x5d393935
 71c:	636d2d20 	cmnvs	sp, #32, 26	; 0x800
 720:	613d7570 	teqvs	sp, r0, ror r5
 724:	31316d72 	teqcc	r1, r2, ror sp
 728:	7a6a3637 	bvc	1a8e00c <__bss_end__+0x1a834b4>
 72c:	20732d66 	rsbscs	r2, r3, r6, ror #26
 730:	75746d2d 	ldrbvc	r6, [r4, #-3373]!	; 0xfffff2d3
 734:	613d656e 	teqvs	sp, lr, ror #10
 738:	31316d72 	teqcc	r1, r2, ror sp
 73c:	7a6a3637 	bvc	1a8e020 <__bss_end__+0x1a834c8>
 740:	20732d66 	rsbscs	r2, r3, r6, ror #26
 744:	6c666d2d 	stclvs	13, cr6, [r6], #-180	; 0xffffff4c
 748:	2d74616f 	ldfcse	f6, [r4, #-444]!	; 0xfffffe44
 74c:	3d696261 	sfmcc	f6, 2, [r9, #-388]!	; 0xfffffe7c
 750:	74666f73 	strbtvc	r6, [r6], #-3955	; 0xfffff08d
 754:	616d2d20 	cmnvs	sp, r0, lsr #26
 758:	2d206d72 	stccs	13, cr6, [r0, #-456]!	; 0xfffffe38
 75c:	6372616d 	cmnvs	r2, #1073741851	; 0x4000001b
 760:	72613d68 	rsbvc	r3, r1, #104, 26	; 0x1a00
 764:	6b36766d 	blvs	d9e120 <__bss_end__+0xd935c8>
 768:	672d207a 			; <UNDEFINED> instruction: 0x672d207a
 76c:	20626467 	rsbcs	r6, r2, r7, ror #8
 770:	20674f2d 	rsbcs	r4, r7, sp, lsr #30
 774:	6474732d 	ldrbtvs	r7, [r4], #-813	; 0xfffffcd3
 778:	756e673d 	strbvc	r6, [lr, #-1853]!	; 0xfffff8c3
 77c:	2d203939 			; <UNDEFINED> instruction: 0x2d203939
 780:	65726666 	ldrbvs	r6, [r2, #-1638]!	; 0xfffff99a
 784:	61747365 	cmnvs	r4, r5, ror #6
 788:	6e69646e 	cdpvs	4, 6, cr6, cr9, cr14, {3}
 78c:	70630067 	rsbvc	r0, r3, r7, rrx
 790:	625f3431 	subsvs	r3, pc, #822083584	; 0x31000000
 794:	5f307276 	svcpl	0x00307276
 798:	00746567 	rsbseq	r6, r4, r7, ror #10
 79c:	34317063 	ldrtcc	r7, [r1], #-99	; 0xffffff9d
 7a0:	7263775f 	rsbvc	r7, r3, #24903680	; 0x17c0000
 7a4:	65675f30 	strbvs	r5, [r7, #-3888]!	; 0xfffff0d0
 7a8:	666e0074 			; <UNDEFINED> instruction: 0x666e0074
 7ac:	746c7561 	strbtvc	r7, [ip], #-1377	; 0xfffffa9f
 7b0:	72620073 	rsbvc	r0, r2, #115	; 0x73
 7b4:	5f74706b 	svcpl	0x0074706b
 7b8:	30746573 	rsbscc	r6, r4, r3, ror r5
 7bc:	6c65685f 	stclvs	8, cr6, [r5], #-380	; 0xfffffe84
 7c0:	00726570 	rsbseq	r6, r2, r0, ror r5
 7c4:	706b7262 	rsbvc	r7, fp, r2, ror #4
 7c8:	6b6d5f74 	blvs	1b585a0 <__bss_end__+0x1b4da48>
 7cc:	6e616800 	cdpvs	8, 6, cr6, cr1, cr0, {0}
 7d0:	72656c64 	rsbvc	r6, r5, #100, 24	; 0x6400
 7d4:	7700745f 	smlsdvc	r0, pc, r4, r7	; <UNPREDICTABLE>
 7d8:	645f7361 	ldrbvs	r7, [pc], #-865	; 7e0 <__code_start__-0x7820>
 7dc:	67756265 	ldrbvs	r6, [r5, -r5, ror #4]!
 7e0:	6c756166 	ldfvse	f6, [r5], #-408	; 0xfffffe68
 7e4:	00725f74 	rsbseq	r5, r2, r4, ror pc
 7e8:	5f746962 	svcpl	0x00746962
 7ec:	00746573 	rsbseq	r6, r4, r3, ror r5
 7f0:	63746177 	cmnvs	r4, #-1073741795	; 0xc000001d
 7f4:	5f747068 	svcpl	0x00747068
 7f8:	646e6168 	strbtvs	r6, [lr], #-360	; 0xfffffe98
 7fc:	3072656c 	rsbscc	r6, r2, ip, ror #10
 800:	31706300 	cmncc	r0, r0, lsl #6
 804:	76625f34 	uqasxvc	r5, r2, r4
 808:	735f3072 	cmpvc	pc, #114	; 0x72
 80c:	62007465 	andvs	r7, r0, #1694498816	; 0x65000000
 810:	765f6b72 			; <UNDEFINED> instruction: 0x765f6b72
 814:	6f627265 	svcvs	0x00627265
 818:	705f6573 	subsvc	r6, pc, r3, ror r5	; <UNPREDICTABLE>
 81c:	67726100 	ldrbvs	r6, [r2, -r0, lsl #2]!
 820:	61760073 	cmnvs	r6, r3, ror r0
 824:	6972705f 	ldmdbvs	r2!, {r0, r1, r2, r3, r4, r6, ip, sp, lr}^
 828:	006b746e 	rsbeq	r7, fp, lr, ror #8
 82c:	6d6f682f 	stclvs	8, cr6, [pc, #-188]!	; 778 <__code_start__-0x7888>
 830:	6e652f65 	cdpvs	15, 6, cr2, cr5, cr5, {3}
 834:	72656c67 	rsbvc	r6, r5, #26368	; 0x6700
 838:	616c632f 	cmnvs	ip, pc, lsr #6
 83c:	632f7373 			; <UNDEFINED> instruction: 0x632f7373
 840:	30343173 	eorscc	r3, r4, r3, ror r1
 844:	32322d65 	eorscc	r2, r2, #6464	; 0x1940
 848:	2f6e6977 	svccs	0x006e6977
 84c:	7062696c 	rsbvc	r6, r2, ip, ror #18
 850:	5f5f0069 	svcpl	0x005f0069
 854:	63756e67 	cmnvs	r5, #1648	; 0x670
 858:	5f61765f 	svcpl	0x0061765f
 85c:	7473696c 	ldrbtvc	r6, [r3], #-2412	; 0xfffff694
 860:	615f5f00 	cmpvs	pc, r0, lsl #30
 864:	2f2e0070 	svccs	0x002e0070
 868:	6362696c 	cmnvs	r2, #108, 18	; 0x1b0000
 86c:	6972702f 	ldmdbvs	r2!, {r0, r1, r2, r3, r5, ip, sp, lr}^
 870:	2e6b746e 	cdpcs	4, 6, cr7, cr11, cr14, {3}
 874:	5f5f0063 	svcpl	0x005f0063
 878:	6c5f6176 	ldfvse	f6, [pc], {118}	; 0x76
 87c:	00747369 	rsbseq	r7, r4, r9, ror #6
 880:	657a6973 	ldrbvs	r6, [sl, #-2419]!	; 0xfffff68d
 884:	2e00745f 	cfmvsrcs	mvf0, r7
 888:	62696c2f 	rsbvs	r6, r9, #12032	; 0x2f00
 88c:	74732f63 	ldrbtvc	r2, [r3], #-3939	; 0xfffff09d
 890:	6e656c72 	mcrvs	12, 3, r6, cr5, cr2, {3}
 894:	2e00632e 	cdpcs	3, 0, cr6, cr0, cr14, {1}
 898:	62696c2f 	rsbvs	r6, r9, #12032	; 0x2f00
 89c:	74732f63 	ldrbtvc	r2, [r3], #-3939	; 0xfffff09d
 8a0:	79706372 	ldmdbvc	r0!, {r1, r4, r5, r6, r8, r9, sp, lr}^
 8a4:	2e00632e 	cdpcs	3, 0, cr6, cr0, cr14, {1}
 8a8:	62696c2f 	rsbvs	r6, r9, #12032	; 0x2f00
 8ac:	656d2f63 	strbvs	r2, [sp, #-3939]!	; 0xfffff09d
 8b0:	7970636d 	ldmdbvc	r0!, {r0, r2, r3, r5, r6, r8, r9, sp, lr}^
 8b4:	6900632e 	stmdbvs	r0, {r1, r2, r3, r5, r8, r9, sp, lr}
 8b8:	7265746e 	rsbvc	r7, r5, #1845493760	; 0x6e000000
 8bc:	5f6c616e 	svcpl	0x006c616e
 8c0:	6b747570 	blvs	1d1de88 <__bss_end__+0x1d13330>
 8c4:	6c2f2e00 	stcvs	14, cr2, [pc], #-0	; 8cc <__code_start__-0x7734>
 8c8:	2f636269 	svccs	0x00636269
 8cc:	6b747570 	blvs	1d1de94 <__bss_end__+0x1d1333c>
 8d0:	6900632e 	stmdbvs	r0, {r1, r2, r3, r5, r8, r9, sp, lr}
 8d4:	7265746e 	rsbvc	r7, r5, #1845493760	; 0x6e000000
 8d8:	5f6c616e 	svcpl	0x006c616e
 8dc:	63747570 	cmnvs	r4, #112, 10	; 0x1c000000
 8e0:	00726168 	rsbseq	r6, r2, r8, ror #2
 8e4:	5f697072 	svcpl	0x00697072
 8e8:	5f746573 	svcpl	0x00746573
 8ec:	63747570 	cmnvs	r4, #112, 10	; 0x1c000000
 8f0:	6c2f2e00 	stcvs	14, cr2, [pc], #-0	; 8f8 <__code_start__-0x7708>
 8f4:	2f636269 	svccs	0x00636269
 8f8:	63747570 	cmnvs	r4, #112, 10	; 0x1c000000
 8fc:	2e726168 	rpwcssz	f6, f2, #0.0
 900:	61750063 	cmnvs	r5, r3, rrx
 904:	705f7472 	subsvc	r7, pc, r2, ror r4	; <UNPREDICTABLE>
 908:	00637475 	rsbeq	r7, r3, r5, ror r4
 90c:	5f697072 	svcpl	0x00697072
 910:	65736572 	ldrbvs	r6, [r3, #-1394]!	; 0xfffffa8e
 914:	75705f74 	ldrbvc	r5, [r0, #-3956]!	; 0xfffff08c
 918:	2e006374 	mcrcs	3, 0, r6, cr0, cr4, {3}
 91c:	62696c2f 	rsbvs	r6, r9, #12032	; 0x2f00
 920:	656d2f63 	strbvs	r2, [sp, #-3939]!	; 0xfffff09d
 924:	7465736d 	strbtvc	r7, [r5], #-877	; 0xfffffc93
 928:	2e00632e 	cdpcs	3, 0, cr6, cr0, cr14, {1}
 92c:	6174732f 	cmnvs	r4, pc, lsr #6
 930:	732d6666 			; <UNDEFINED> instruction: 0x732d6666
 934:	642f6372 	strtvs	r6, [pc], #-882	; 93c <__code_start__-0x76c4>
 938:	75616665 	strbvc	r6, [r1, #-1637]!	; 0xfffff99b
 93c:	682d746c 	stmdavs	sp!, {r2, r3, r5, r6, sl, ip, sp, lr}
 940:	6c646e61 	stclvs	14, cr6, [r4], #-388	; 0xfffffe7c
 944:	752d7265 	strvc	r7, [sp, #-613]!	; 0xfffffd9b
 948:	6665646e 	strbtvs	r6, [r5], -lr, ror #8
 94c:	64656e69 	strbtvs	r6, [r5], #-3689	; 0xfffff197
 950:	736e692d 	cmnvc	lr, #737280	; 0xb4000
 954:	00632e74 	rsbeq	r2, r3, r4, ror lr
 958:	65646e75 	strbvs	r6, [r4, #-3701]!	; 0xfffff18b
 95c:	656e6966 	strbvs	r6, [lr, #-2406]!	; 0xfffff69a
 960:	6e695f64 	cdpvs	15, 6, cr5, cr9, cr4, {3}
 964:	75727473 	ldrbvc	r7, [r2, #-1139]!	; 0xfffffb8d
 968:	6f697463 	svcvs	0x00697463
 96c:	65765f6e 	ldrbvs	r5, [r6, #-3950]!	; 0xfffff092
 970:	726f7463 	rsbvc	r7, pc, #1660944384	; 0x63000000
 974:	6d736100 	ldfvse	f6, [r3, #-0]
 978:	746f6e5f 	strbtvc	r6, [pc], #-3679	; 980 <__code_start__-0x7680>
 97c:	706d695f 	rsbvc	r6, sp, pc, asr r9
 980:	656d656c 	strbvs	r6, [sp, #-1388]!	; 0xfffffa94
 984:	6465746e 	strbtvs	r7, [r5], #-1134	; 0xfffffb92
 988:	6c65685f 	stclvs	8, cr6, [r5], #-380	; 0xfffffe84
 98c:	00726570 	rsbseq	r6, r2, r0, ror r5
 990:	74732f2e 	ldrbtvc	r2, [r3], #-3886	; 0xfffff0d2
 994:	2d666661 	stclcs	6, cr6, [r6, #-388]!	; 0xfffffe7c
 998:	2f637273 	svccs	0x00637273
 99c:	2d6d7361 	stclcs	3, cr7, [sp, #-388]!	; 0xfffffe7c
 9a0:	706c6568 	rsbvc	r6, ip, r8, ror #10
 9a4:	2e737265 	cdpcs	2, 7, cr7, cr3, cr5, {3}
 9a8:	73610063 	cmnvc	r1, #99	; 0x63
 9ac:	6f6e5f6d 	svcvs	0x006e5f6d
 9b0:	65725f74 	ldrbvs	r5, [r2, #-3956]!	; 0xfffff08c
 9b4:	65686361 	strbvs	r6, [r8, #-865]!	; 0xfffffc9f
 9b8:	65685f64 	strbvs	r5, [r8, #-3940]!	; 0xfffff09c
 9bc:	7265706c 	rsbvc	r7, r5, #108	; 0x6c
 9c0:	746e6900 	strbtvc	r6, [lr], #-2304	; 0xfffff700
 9c4:	6365765f 	cmnvs	r5, #99614720	; 0x5f00000
 9c8:	00726f74 	rsbseq	r6, r2, r4, ror pc
 9cc:	74732f2e 	ldrbtvc	r2, [r3], #-3886	; 0xfffff0d2
 9d0:	2d666661 	stclcs	6, cr6, [r6, #-388]!	; 0xfffffe7c
 9d4:	2f637273 	svccs	0x00637273
 9d8:	61666564 	cmnvs	r6, r4, ror #10
 9dc:	2d746c75 	ldclcs	12, cr6, [r4, #-468]!	; 0xfffffe2c
 9e0:	646e6168 	strbtvs	r6, [lr], #-360	; 0xfffffe98
 9e4:	2d72656c 	cfldr64cs	mvdx6, [r2, #-432]!	; 0xfffffe50
 9e8:	2e746e69 	cdpcs	14, 7, cr6, cr4, cr9, {3}
 9ec:	2f2e0063 	svccs	0x002e0063
 9f0:	66617473 			; <UNDEFINED> instruction: 0x66617473
 9f4:	72732d66 	rsbsvc	r2, r3, #6528	; 0x1980
 9f8:	65642f63 	strbvs	r2, [r4, #-3939]!	; 0xfffff09d
 9fc:	6c756166 	ldfvse	f6, [r5], #-408	; 0xfffffe68
 a00:	61682d74 	smcvs	33492	; 0x82d4
 a04:	656c646e 	strbvs	r6, [ip, #-1134]!	; 0xfffffb92
 a08:	65722d72 	ldrbvs	r2, [r2, #-3442]!	; 0xfffff28e
 a0c:	2e746573 	mrccs	5, 3, r6, cr4, cr3, {3}
 a10:	65720063 	ldrbvs	r0, [r2, #-99]!	; 0xffffff9d
 a14:	5f746573 	svcpl	0x00746573
 a18:	74636576 	strbtvc	r6, [r3], #-1398	; 0xfffffa8a
 a1c:	2e00726f 	cdpcs	2, 0, cr7, cr0, cr15, {3}
 a20:	6174732f 	cmnvs	r4, pc, lsr #6
 a24:	732d6666 			; <UNDEFINED> instruction: 0x732d6666
 a28:	642f6372 	strtvs	r6, [pc], #-882	; a30 <__code_start__-0x75d0>
 a2c:	75616665 	strbvc	r6, [r1, #-1637]!	; 0xfffff99b
 a30:	682d746c 	stmdavs	sp!, {r2, r3, r5, r6, sl, ip, sp, lr}
 a34:	6c646e61 	stclvs	14, cr6, [r4], #-388	; 0xfffffe7c
 a38:	642d7265 	strtvs	r7, [sp], #-613	; 0xfffffd9b
 a3c:	2d617461 	cfstrdcs	mvd7, [r1, #-388]!	; 0xfffffe7c
 a40:	726f6261 	rsbvc	r6, pc, #268435462	; 0x10000006
 a44:	00632e74 	rsbeq	r2, r3, r4, ror lr
 a48:	73625f5f 	cmnvc	r2, #380	; 0x17c
 a4c:	74735f73 	ldrbtvc	r5, [r3], #-3955	; 0xfffff08d
 a50:	5f747261 	svcpl	0x00747261
 a54:	635f005f 	cmpvs	pc, #95	; 0x5f
 a58:	72617473 	rsbvc	r7, r1, #1929379840	; 0x73000000
 a5c:	73620074 	cmnvc	r2, #116	; 0x74
 a60:	6e655f73 	mcrvs	15, 3, r5, cr5, cr3, {3}
 a64:	2f2e0064 	svccs	0x002e0064
 a68:	66617473 			; <UNDEFINED> instruction: 0x66617473
 a6c:	72732d66 	rsbsvc	r2, r3, #6528	; 0x1980
 a70:	73632f63 	cmnvc	r3, #396	; 0x18c
 a74:	74726174 	ldrbtvc	r6, [r2], #-372	; 0xfffffe8c
 a78:	7500632e 	strvc	r6, [r0, #-814]	; 0xfffffcd2
 a7c:	5f747261 	svcpl	0x00747261
 a80:	74696e69 	strbtvc	r6, [r9], #-3689	; 0xfffff197
 a84:	625f5f00 	subsvs	r5, pc, #0, 30
 a88:	655f7373 	ldrbvs	r7, [pc, #-883]	; 71d <__code_start__-0x78e3>
 a8c:	5f5f646e 	svcpl	0x005f646e
 a90:	69707200 	ldmdbvs	r0!, {r9, ip, sp, lr}^
 a94:	6265725f 	rsbvs	r7, r5, #-268435451	; 0xf0000005
 a98:	00746f6f 	rsbseq	r6, r4, pc, ror #30
 a9c:	575f4d50 			; <UNDEFINED> instruction: 0x575f4d50
 aa0:	00474f44 	subeq	r4, r7, r4, asr #30
 aa4:	5f746573 	svcpl	0x00746573
 aa8:	72657375 	rsbvc	r7, r5, #-738197503	; 0xd4000001
 aac:	76656c5f 			; <UNDEFINED> instruction: 0x76656c5f
 ab0:	50006c65 	andpl	r6, r0, r5, ror #24
 ab4:	32335455 	eorscc	r5, r3, #1426063360	; 0x55000000
 ab8:	6c656400 	cfstrdvs	mvd6, [r5], #-0
 abc:	6d5f7961 	vldrvs.16	s15, [pc, #-194]	; a02 <__code_start__-0x75fe>	; <UNPREDICTABLE>
 ac0:	2f2e0073 	svccs	0x002e0073
 ac4:	66617473 			; <UNDEFINED> instruction: 0x66617473
 ac8:	72732d66 	rsbsvc	r2, r3, #6528	; 0x1980
 acc:	65722f63 	ldrbvs	r2, [r2, #-3939]!	; 0xfffff09d
 ad0:	746f6f62 	strbtvc	r6, [pc], #-3938	; ad8 <__code_start__-0x7528>
 ad4:	5000632e 	andpl	r6, r0, lr, lsr #6
 ad8:	41505f4d 	cmpmi	r0, sp, asr #30
 adc:	4f575353 	svcmi	0x00575353
 ae0:	61004452 	tstvs	r0, r2, asr r4
 ae4:	73755f74 	cmnvc	r5, #116, 30	; 0x1d0
 ae8:	6c5f7265 	lfmvs	f7, 2, [pc], {101}	; 0x65
 aec:	6c657665 	stclvs	6, cr7, [r5], #-404	; 0xfffffe6c
 af0:	5f4d5000 	svcpl	0x004d5000
 af4:	43545352 	cmpmi	r4, #1207959553	; 0x48000001
 af8:	4352575f 	cmpmi	r2, #24903680	; 0x17c0000
 afc:	465f4746 	ldrbmi	r4, [pc], -r6, asr #14
 b00:	5f4c4c55 	svcpl	0x004c4c55
 b04:	45534552 	ldrbmi	r4, [r3, #-1362]	; 0xfffffaae
 b08:	4d500054 	ldclmi	0, cr0, [r0, #-336]	; 0xfffffeb0
 b0c:	5453525f 	ldrbpl	r5, [r3], #-607	; 0xfffffda1
 b10:	61750043 	cmnvs	r5, r3, asr #32
 b14:	665f7472 			; <UNDEFINED> instruction: 0x665f7472
 b18:	6873756c 	ldmdavs	r3!, {r2, r3, r5, r6, r8, sl, ip, sp, lr}^
 b1c:	0078745f 	rsbseq	r7, r8, pc, asr r4
 b20:	74732f2e 	ldrbtvc	r2, [r3], #-3886	; 0xfffff0d2
 b24:	2d666661 	stclcs	6, cr6, [r6, #-388]!	; 0xfffffe7c
 b28:	2f637273 	svccs	0x00637273
 b2c:	61656c63 	cmnvs	r5, r3, ror #24
 b30:	65722d6e 	ldrbvs	r2, [r2, #-3438]!	; 0xfffff292
 b34:	746f6f62 	strbtvc	r6, [pc], #-3938	; b3c <__code_start__-0x74c4>
 b38:	6400632e 	strvs	r6, [r0], #-814	; 0xfffffcd2
 b3c:	625f7665 	subsvs	r7, pc, #105906176	; 0x6500000
 b40:	69727261 	ldmdbvs	r2!, {r0, r5, r6, r9, ip, sp, lr}^
 b44:	64007265 	strvs	r7, [r0], #-613	; 0xfffffd9b
 b48:	79616c65 	stmdbvc	r1!, {r0, r2, r5, r6, sl, fp, sp, lr}^
 b4c:	6365735f 	cmnvs	r5, #2080374785	; 0x7c000001
 b50:	54454700 	strbpl	r4, [r5], #-1792	; 0xfffff900
 b54:	2e003233 	mcrcs	2, 0, r3, cr0, cr3, {1}
 b58:	6174732f 	cmnvs	r4, pc, lsr #6
 b5c:	732d6666 			; <UNDEFINED> instruction: 0x732d6666
 b60:	742f6372 	strtvc	r6, [pc], #-882	; b68 <__code_start__-0x7498>
 b64:	72656d69 	rsbvc	r6, r5, #6720	; 0x1a40
 b68:	7400632e 	strvc	r6, [r0], #-814	; 0xfffffcd2
 b6c:	72656d69 	rsbvc	r6, r5, #6720	; 0x1a40
 b70:	7465675f 	strbtvc	r6, [r5], #-1887	; 0xfffff8a1
 b74:	6573755f 	ldrbvs	r7, [r3, #-1375]!	; 0xfffffaa1
 b78:	65640063 	strbvs	r0, [r4, #-99]!	; 0xffffff9d
 b7c:	5f79616c 	svcpl	0x0079616c
 b80:	74007375 	strvc	r7, [r0], #-885	; 0xfffffc8b
 b84:	72656d69 	rsbvc	r6, r5, #6720	; 0x1a40
 b88:	7465675f 	strbtvc	r6, [r5], #-1887	; 0xfffff8a1
 b8c:	6573755f 	ldrbvs	r7, [r3, #-1375]!	; 0xfffffaa1
 b90:	61725f63 	cmnvs	r2, r3, ror #30
 b94:	61620077 	smcvs	8199	; 0x2007
 b98:	765f6475 			; <UNDEFINED> instruction: 0x765f6475
 b9c:	73006c61 	movwvc	r6, #3169	; 0xc61
 ba0:	00746174 	rsbseq	r6, r4, r4, ror r1
 ba4:	74726175 	ldrbtvc	r6, [r2], #-373	; 0xfffffe8b
 ba8:	6e61635f 	mcrvs	3, 3, r6, cr1, cr15, {2}
 bac:	7465675f 	strbtvc	r6, [r5], #-1887	; 0xfffff8a1
 bb0:	50470063 	subpl	r0, r7, r3, rrx
 bb4:	465f4f49 	ldrbmi	r4, [pc], -r9, asr #30
 bb8:	5f434e55 	svcpl	0x00434e55
 bbc:	5054554f 	subspl	r5, r4, pc, asr #10
 bc0:	75005455 	strvc	r5, [r0, #-1109]	; 0xfffffbab
 bc4:	2e747261 	cdpcs	2, 7, cr7, cr4, cr1, {3}
 bc8:	61750063 	cmnvs	r5, r3, rrx
 bcc:	635f7472 	cmpvs	pc, #1912602624	; 0x72000000
 bd0:	705f6e61 	subsvc	r6, pc, r1, ror #28
 bd4:	00637475 	rsbeq	r7, r3, r5, ror r4
 bd8:	74726175 	ldrbtvc	r6, [r2], #-373	; 0xfffffe8b
 bdc:	72617500 	rsbvc	r7, r1, #0, 10
 be0:	78745f74 	ldmdavc	r4!, {r2, r4, r5, r6, r8, r9, sl, fp, ip, lr}^
 be4:	5f73695f 	svcpl	0x0073695f
 be8:	74706d65 	ldrbtvc	r6, [r0], #-3429	; 0xfffff29b
 bec:	50470079 	subpl	r0, r7, r9, ror r0
 bf0:	465f4f49 	ldrbmi	r4, [pc], -r9, asr #30
 bf4:	5f434e55 	svcpl	0x00434e55
 bf8:	30544c41 	subscc	r4, r4, r1, asr #24
 bfc:	49504700 	ldmdbmi	r0, {r8, r9, sl, lr}^
 c00:	55465f4f 	strbpl	r5, [r6, #-3919]	; 0xfffff0b1
 c04:	415f434e 	cmpmi	pc, lr, asr #6
 c08:	0031544c 	eorseq	r5, r1, ip, asr #8
 c0c:	4f495047 	svcmi	0x00495047
 c10:	4e55465f 	mrcmi	6, 2, r4, cr5, cr15, {2}
 c14:	4c415f43 	mcrrmi	15, 4, r5, r1, cr3
 c18:	47003254 	smlsdmi	r0, r4, r2, r3
 c1c:	5f4f4950 	svcpl	0x004f4950
 c20:	434e5546 	movtmi	r5, #58694	; 0xe546
 c24:	544c415f 	strbpl	r4, [ip], #-351	; 0xfffffea1
 c28:	50470033 	subpl	r0, r7, r3, lsr r0
 c2c:	465f4f49 	ldrbmi	r4, [pc], -r9, asr #30
 c30:	5f434e55 	svcpl	0x00434e55
 c34:	35544c41 	ldrbcc	r4, [r4, #-3137]	; 0xfffff3bf
 c38:	74757000 	ldrbtvc	r7, [r5], #-0
 c3c:	62003233 	andvs	r3, r0, #805306371	; 0x30000003
 c40:	00647561 	rsbeq	r7, r4, r1, ror #10
 c44:	5f787561 	svcpl	0x00787561
 c48:	62616e65 	rsbvs	r6, r1, #1616	; 0x650
 c4c:	0073656c 	rsbseq	r6, r3, ip, ror #10
 c50:	74726175 	ldrbtvc	r6, [r2], #-373	; 0xfffffe8b
 c54:	7465675f 	strbtvc	r6, [r5], #-1887	; 0xfffff8a1
 c58:	6e630063 	cdpvs	0, 6, cr0, cr3, cr3, {3}
 c5c:	75006c74 	strvc	r6, [r0, #-3188]	; 0xfffff38c
 c60:	5f747261 	svcpl	0x00747261
 c64:	61736964 	cmnvs	r3, r4, ror #18
 c68:	00656c62 	rsbeq	r6, r5, r2, ror #24
 c6c:	74726175 	ldrbtvc	r6, [r2], #-373	; 0xfffffe8b
 c70:	7361685f 	cmnvc	r1, #6225920	; 0x5f0000
 c74:	7461645f 	strbtvc	r6, [r1], #-1119	; 0xfffffba1
 c78:	50470061 	subpl	r0, r7, r1, rrx
 c7c:	465f4f49 	ldrbmi	r4, [pc], -r9, asr #30
 c80:	5f434e55 	svcpl	0x00434e55
 c84:	34544c41 	ldrbcc	r4, [r4], #-3137	; 0xfffff3bf
 c88:	5f726f00 	svcpl	0x00726f00
 c8c:	32336e69 	eorscc	r6, r3, #1680	; 0x690
 c90:	72637300 	rsbvc	r7, r3, #0, 6
 c94:	68637461 	stmdavs	r3!, {r0, r5, r6, sl, ip, sp, lr}^
 c98:	78756100 	ldmdavc	r5!, {r8, sp, lr}^
 c9c:	7265705f 	rsbvc	r7, r5, #95	; 0x5f
 ca0:	73687069 	cmnvc	r8, #105	; 0x69
 ca4:	6f682f00 	svcvs	0x00682f00
 ca8:	652f656d 	strvs	r6, [pc, #-1389]!	; 743 <__code_start__-0x78bd>
 cac:	656c676e 	strbvs	r6, [ip, #-1902]!	; 0xfffff892
 cb0:	6c632f72 	stclvs	15, cr2, [r3], #-456	; 0xfffffe38
 cb4:	2f737361 	svccs	0x00737361
 cb8:	34317363 	ldrtcc	r7, [r1], #-867	; 0xfffffc9d
 cbc:	322d6530 	eorcc	r6, sp, #48, 10	; 0xc000000
 cc0:	6e697732 	mcrvs	7, 3, r7, cr9, cr2, {1}
 cc4:	62696c2f 	rsbvs	r6, r9, #12032	; 0x2f00
 cc8:	732f6970 			; <UNDEFINED> instruction: 0x732f6970
 ccc:	66666174 			; <UNDEFINED> instruction: 0x66666174
 cd0:	6972702d 	ldmdbvs	r2!, {r0, r2, r3, r5, ip, sp, lr}^
 cd4:	65746176 	ldrbvs	r6, [r4, #-374]!	; 0xfffffe8a
 cd8:	646e6100 	strbtvs	r6, [lr], #-256	; 0xffffff00
 cdc:	336e695f 	cmncc	lr, #1556480	; 0x17c000
 ce0:	50470032 	subpl	r0, r7, r2, lsr r0
 ce4:	465f4f49 	ldrbmi	r4, [pc], -r9, asr #30
 ce8:	5f434e55 	svcpl	0x00434e55
 cec:	55504e49 	ldrbpl	r4, [r0, #-3657]	; 0xfffff1b7
 cf0:	70670054 	rsbvc	r0, r7, r4, asr r0
 cf4:	735f6f69 	cmpvc	pc, #420	; 0x1a4
 cf8:	665f7465 	ldrbvs	r7, [pc], -r5, ror #8
 cfc:	74636e75 	strbtvc	r6, [r3], #-3701	; 0xfffff18b
 d00:	006e6f69 	rsbeq	r6, lr, r9, ror #30
 d04:	33746567 	cmncc	r4, #432013312	; 0x19c00000
 d08:	73690032 	cmnvc	r9, #50	; 0x32
 d0c:	69676964 	stmdbvs	r7!, {r2, r5, r6, r8, fp, sp, lr}^
 d10:	69750074 	ldmdbvs	r5!, {r2, r4, r5, r6}^
 d14:	3436746e 	ldrtcc	r7, [r6], #-1134	; 0xfffffb92
 d18:	2e00745f 	cfmvsrcs	mvf0, r7
 d1c:	62696c2f 	rsbvs	r6, r9, #12032	; 0x2f00
 d20:	61762f63 	cmnvs	r6, r3, ror #30
 d24:	6972702d 	ldmdbvs	r2!, {r0, r2, r3, r5, ip, sp, lr}^
 d28:	2e6b746e 	cdpcs	4, 6, cr7, cr11, cr14, {3}
 d2c:	69770063 	ldmdbvs	r7!, {r0, r1, r5, r6}^
 d30:	00687464 	rsbeq	r7, r8, r4, ror #8
 d34:	63747570 	cmnvs	r4, #112, 10	; 0x1c000000
 d38:	0070665f 	rsbseq	r6, r0, pc, asr r6
 d3c:	5f697072 	svcpl	0x00697072
 d40:	5f746573 	svcpl	0x00746573
 d44:	7074756f 	rsbsvc	r7, r4, pc, ror #10
 d48:	66007475 			; <UNDEFINED> instruction: 0x66007475
 d4c:	735f746d 	cmpvc	pc, #1828716544	; 0x6d000000
 d50:	74726174 	ldrbtvc	r6, [r2], #-372	; 0xfffffe8c
 d54:	72747300 	rsbsvc	r7, r4, #0, 6
 d58:	00746163 	rsbseq	r6, r4, r3, ror #2
 d5c:	5f67656e 	svcpl	0x0067656e
 d60:	6d650070 	stclvs	0, cr0, [r5, #-448]!	; 0xfffffe40
 d64:	70007469 	andvc	r7, r0, r9, ror #8
 d68:	5f737475 	svcpl	0x00737475
 d6c:	72007066 	andvc	r7, r0, #102	; 0x66
 d70:	72657665 	rsbvc	r7, r5, #105906176	; 0x6500000
 d74:	73006573 	movwvc	r6, #1395	; 0x573
 d78:	6d637274 	sfmvs	f7, 2, [r3, #-464]!	; 0xfffffe30
 d7c:	756e0070 	strbvc	r0, [lr, #-112]!	; 0xffffff90
 d80:	7300316d 	movwvc	r3, #365	; 0x16d
 d84:	636e7274 	cmnvs	lr, #116, 4	; 0x40000007
 d88:	7300706d 	movwvc	r7, #109	; 0x6d
 d8c:	656e6769 	strbvs	r6, [lr, #-1897]!	; 0xfffff897
 d90:	00705f64 	rsbseq	r5, r0, r4, ror #30
 d94:	696c2f2e 	stmdbvs	ip!, {r1, r2, r3, r5, r8, r9, sl, fp, sp}^
 d98:	732f6362 			; <UNDEFINED> instruction: 0x732f6362
 d9c:	6d637274 	sfmvs	f7, 2, [r3, #-464]!	; 0xfffffe30
 da0:	00632e70 	rsbeq	r2, r3, r0, ror lr
 da4:	74736564 	ldrbtvc	r6, [r3], #-1380	; 0xfffffa9c
 da8:	6c2f2e00 	stcvs	14, cr2, [pc], #-0	; db0 <__code_start__-0x7250>
 dac:	2f636269 	svccs	0x00636269
 db0:	63727473 	cmnvs	r2, #1929379840	; 0x73000000
 db4:	632e7461 			; <UNDEFINED> instruction: 0x632e7461
 db8:	6c2f2e00 	stcvs	14, cr2, [pc], #-0	; dc0 <__code_start__-0x7240>
 dbc:	2f636269 	svccs	0x00636269
 dc0:	6e727473 	mrcvs	4, 3, r7, cr2, cr3, {3}
 dc4:	2e706d63 	cdpcs	13, 7, cr6, cr0, cr3, {3}
 dc8:	70670063 	rsbvc	r0, r7, r3, rrx
 dcc:	635f6f69 	cmpvs	pc, #420	; 0x1a4
 dd0:	0030726c 	eorseq	r7, r0, ip, ror #4
 dd4:	6f697067 	svcvs	0x00697067
 dd8:	7465735f 	strbtvc	r7, [r5], #-863	; 0xfffffca1
 ddc:	70670030 	rsbvc	r0, r7, r0, lsr r0
 de0:	775f6f69 	ldrbvc	r6, [pc, -r9, ror #30]
 de4:	65746972 	ldrbvs	r6, [r4, #-2418]!	; 0xfffff68e
 de8:	56454400 	strbpl	r4, [r5], -r0, lsl #8
 dec:	4c41565f 	mcrrmi	6, 5, r5, r1, cr15
 df0:	67003233 	smladxvs	r0, r3, r2, r3
 df4:	5f6f6970 	svcpl	0x006f6970
 df8:	64616572 	strbtvs	r6, [r1], #-1394	; 0xfffffa8e
 dfc:	69706700 	ldmdbvs	r0!, {r8, r9, sl, sp, lr}^
 e00:	65735f6f 	ldrbvs	r5, [r3, #-3951]!	; 0xfffff091
 e04:	6e695f74 	mcrvs	15, 3, r5, cr9, cr4, {3}
 e08:	00747570 	rsbseq	r7, r4, r0, ror r5
 e0c:	6f697067 	svcvs	0x00697067
 e10:	7465735f 	strbtvc	r7, [r5], #-863	; 0xfffffca1
 e14:	66666f5f 	uqsaxvs	r6, r6, pc	; <UNPREDICTABLE>
 e18:	69706700 	ldmdbvs	r0!, {r8, r9, sl, sp, lr}^
 e1c:	65735f6f 	ldrbvs	r5, [r3, #-3951]!	; 0xfffff091
 e20:	756f5f74 	strbvc	r5, [pc, #-3956]!	; fffffeb4 <__bss_end__+0xffff535c>
 e24:	74757074 	ldrbtvc	r7, [r5], #-116	; 0xffffff8c
 e28:	6e756600 	cdpvs	6, 7, cr6, cr5, cr0, {0}
 e2c:	70670063 	rsbvc	r0, r7, r3, rrx
 e30:	665f6f69 	ldrbvs	r6, [pc], -r9, ror #30
 e34:	5f636e75 	svcpl	0x00636e75
 e38:	70670074 	rsbvc	r0, r7, r4, ror r0
 e3c:	6c5f6f69 	mrrcvs	15, 6, r6, pc, cr9	; <UNPREDICTABLE>
 e40:	00307665 	eorseq	r7, r0, r5, ror #12
 e44:	6b6e6162 	blvs	1b993d4 <__bss_end__+0x1b8e87c>
 e48:	69706700 	ldmdbvs	r0!, {r8, r9, sl, sp, lr}^
 e4c:	00632e6f 	rsbeq	r2, r3, pc, ror #28
 e50:	6f697067 	svcvs	0x00697067
 e54:	7465735f 	strbtvc	r7, [r5], #-863	; 0xfffffca1
 e58:	006e6f5f 	rsbeq	r6, lr, pc, asr pc

Disassembly of section .debug_frame:

00000000 <.debug_frame>:
   0:	0000000c 	andeq	r0, r0, ip
   4:	ffffffff 			; <UNDEFINED> instruction: 0xffffffff
   8:	7c020001 	stcvc	0, cr0, [r2], {1}
   c:	000d0c0e 	andeq	r0, sp, lr, lsl #24
  10:	0000001c 	andeq	r0, r0, ip, lsl r0
  14:	00000000 	andeq	r0, r0, r0
  18:	00008034 	andeq	r8, r0, r4, lsr r0
  1c:	000000ac 	andeq	r0, r0, ip, lsr #1
  20:	8e040e42 	cdphi	14, 0, cr0, cr4, cr2, {2}
  24:	100e4201 	andne	r4, lr, r1, lsl #4
  28:	040e0a56 	streq	r0, [lr], #-2646	; 0xfffff5aa
  2c:	00000b42 	andeq	r0, r0, r2, asr #22
  30:	00000020 	andeq	r0, r0, r0, lsr #32
  34:	00000000 	andeq	r0, r0, r0
  38:	000080e0 	andeq	r8, r0, r0, ror #1
  3c:	0000012c 	andeq	r0, r0, ip, lsr #2
  40:	840c0e42 	strhi	r0, [ip], #-3650	; 0xfffff1be
  44:	8e028503 	cfsh32hi	mvfx8, mvfx2, #3
  48:	180e4201 	stmdane	lr, {r0, r9, lr}
  4c:	0c0e0a66 			; <UNDEFINED> instruction: 0x0c0e0a66
  50:	00000b42 	andeq	r0, r0, r2, asr #22
  54:	00000018 	andeq	r0, r0, r8, lsl r0
  58:	00000000 	andeq	r0, r0, r0
  5c:	0000820c 	andeq	r8, r0, ip, lsl #4
  60:	00000068 	andeq	r0, r0, r8, rrx
  64:	84080e42 	strhi	r0, [r8], #-3650	; 0xfffff1be
  68:	42018e02 	andmi	r8, r1, #2, 28
  6c:	0000100e 	andeq	r1, r0, lr
  70:	0000000c 	andeq	r0, r0, ip
  74:	ffffffff 			; <UNDEFINED> instruction: 0xffffffff
  78:	7c020001 	stcvc	0, cr0, [r2], {1}
  7c:	000d0c0e 	andeq	r0, sp, lr, lsl #24
  80:	00000020 	andeq	r0, r0, r0, lsr #32
  84:	00000070 	andeq	r0, r0, r0, ror r0
  88:	00008408 	andeq	r8, r0, r8, lsl #8
  8c:	000000bc 	strheq	r0, [r0], -ip
  90:	84100e42 	ldrhi	r0, [r0], #-3650	; 0xfffff1be
  94:	86038504 	strhi	r8, [r3], -r4, lsl #10
  98:	42018e02 	andmi	r8, r1, #2, 28
  9c:	0a68180e 	beq	1a060dc <__bss_end__+0x19fb584>
  a0:	0b42100e 	bleq	10840e0 <__bss_end__+0x1079588>
  a4:	00000020 	andeq	r0, r0, r0, lsr #32
  a8:	00000070 	andeq	r0, r0, r0, ror r0
  ac:	000084c4 	andeq	r8, r0, r4, asr #9
  b0:	000000b0 	strheq	r0, [r0], -r0	; <UNPREDICTABLE>
  b4:	840c0e42 	strhi	r0, [ip], #-3650	; 0xfffff1be
  b8:	8e028503 	cfsh32hi	mvfx8, mvfx2, #3
  bc:	180e4201 	stmdane	lr, {r0, r9, lr}
  c0:	0c0e0a64 			; <UNDEFINED> instruction: 0x0c0e0a64
  c4:	00000b42 	andeq	r0, r0, r2, asr #22
  c8:	0000000c 	andeq	r0, r0, ip
  cc:	ffffffff 			; <UNDEFINED> instruction: 0xffffffff
  d0:	7c020001 	stcvc	0, cr0, [r2], {1}
  d4:	000d0c0e 	andeq	r0, sp, lr, lsl #24
  d8:	00000014 	andeq	r0, r0, r4, lsl r0
  dc:	000000c8 	andeq	r0, r0, r8, asr #1
  e0:	00008574 	andeq	r8, r0, r4, ror r5
  e4:	00000038 	andeq	r0, r0, r8, lsr r0
  e8:	84080e42 	strhi	r0, [r8], #-3650	; 0xfffff1be
  ec:	00018e02 	andeq	r8, r1, r2, lsl #28
  f0:	00000018 	andeq	r0, r0, r8, lsl r0
  f4:	000000c8 	andeq	r0, r0, r8, asr #1
  f8:	000085ac 	andeq	r8, r0, ip, lsr #11
  fc:	0000002c 	andeq	r0, r0, ip, lsr #32
 100:	84100e42 	ldrhi	r0, [r0], #-3650	; 0xfffff1be
 104:	86038504 	strhi	r8, [r3], -r4, lsl #10
 108:	00018e02 	andeq	r8, r1, r2, lsl #28
 10c:	0000000c 	andeq	r0, r0, ip
 110:	000000c8 	andeq	r0, r0, r8, asr #1
 114:	000085d8 	ldrdeq	r8, [r0], -r8	; <UNPREDICTABLE>
 118:	00000010 	andeq	r0, r0, r0, lsl r0
 11c:	0000000c 	andeq	r0, r0, ip
 120:	ffffffff 			; <UNDEFINED> instruction: 0xffffffff
 124:	7c020001 	stcvc	0, cr0, [r2], {1}
 128:	000d0c0e 	andeq	r0, sp, lr, lsl #24
 12c:	00000014 	andeq	r0, r0, r4, lsl r0
 130:	0000011c 	andeq	r0, r0, ip, lsl r1
 134:	000085e8 	andeq	r8, r0, r8, ror #11
 138:	00000028 	andeq	r0, r0, r8, lsr #32
 13c:	84080e42 	strhi	r0, [r8], #-3650	; 0xfffff1be
 140:	00018e02 	andeq	r8, r1, r2, lsl #28
 144:	00000014 	andeq	r0, r0, r4, lsl r0
 148:	0000011c 	andeq	r0, r0, ip, lsl r1
 14c:	00008610 	andeq	r8, r0, r0, lsl r6
 150:	00000028 	andeq	r0, r0, r8, lsr #32
 154:	84080e42 	strhi	r0, [r8], #-3650	; 0xfffff1be
 158:	00018e02 	andeq	r8, r1, r2, lsl #28
 15c:	0000001c 	andeq	r0, r0, ip, lsl r0
 160:	0000011c 	andeq	r0, r0, ip, lsl r1
 164:	00008638 	andeq	r8, r0, r8, lsr r6
 168:	000000ec 	andeq	r0, r0, ip, ror #1
 16c:	84140e42 	ldrhi	r0, [r4], #-3650	; 0xfffff1be
 170:	86048505 	strhi	r8, [r4], -r5, lsl #10
 174:	8e028703 	cdphi	7, 0, cr8, cr2, cr3, {0}
 178:	200e4201 	andcs	r4, lr, r1, lsl #4
 17c:	0000001c 	andeq	r0, r0, ip, lsl r0
 180:	0000011c 	andeq	r0, r0, ip, lsl r1
 184:	00008724 	andeq	r8, r0, r4, lsr #14
 188:	000000b0 	strheq	r0, [r0], -r0	; <UNPREDICTABLE>
 18c:	84080e42 	strhi	r0, [r8], #-3650	; 0xfffff1be
 190:	42018e02 	andmi	r8, r1, #2, 28
 194:	0a50180e 	beq	14061d4 <__bss_end__+0x13fb67c>
 198:	0b42080e 	bleq	10821d8 <__bss_end__+0x1077680>
 19c:	0000000c 	andeq	r0, r0, ip
 1a0:	ffffffff 			; <UNDEFINED> instruction: 0xffffffff
 1a4:	7c020001 	stcvc	0, cr0, [r2], {1}
 1a8:	000d0c0e 	andeq	r0, sp, lr, lsl #24
 1ac:	0000001c 	andeq	r0, r0, ip, lsl r0
 1b0:	0000019c 	muleq	r0, ip, r1
 1b4:	000087d4 	ldrdeq	r8, [r0], -r4
 1b8:	000000b0 	strheq	r0, [r0], -r0	; <UNPREDICTABLE>
 1bc:	8e040e42 	cdphi	14, 0, cr0, cr4, cr2, {2}
 1c0:	100e4201 	andne	r4, lr, r1, lsl #4
 1c4:	040e0a60 	streq	r0, [lr], #-2656	; 0xfffff5a0
 1c8:	00000b42 	andeq	r0, r0, r2, asr #22
 1cc:	00000014 	andeq	r0, r0, r4, lsl r0
 1d0:	0000019c 	muleq	r0, ip, r1
 1d4:	00008884 	andeq	r8, r0, r4, lsl #17
 1d8:	0000005c 	andeq	r0, r0, ip, asr r0
 1dc:	8e040e54 	mcrhi	14, 0, r0, cr4, cr4, {2}
 1e0:	100e4201 	andne	r4, lr, r1, lsl #4
 1e4:	0000001c 	andeq	r0, r0, ip, lsl r0
 1e8:	0000019c 	muleq	r0, ip, r1
 1ec:	000088e0 	andeq	r8, r0, r0, ror #17
 1f0:	000000bc 	strheq	r0, [r0], -ip
 1f4:	8e040e42 	cdphi	14, 0, cr0, cr4, cr2, {2}
 1f8:	100e4201 	andne	r4, lr, r1, lsl #4
 1fc:	040e0a6c 	streq	r0, [lr], #-2668	; 0xfffff594
 200:	00000b42 	andeq	r0, r0, r2, asr #22
 204:	00000020 	andeq	r0, r0, r0, lsr #32
 208:	0000019c 	muleq	r0, ip, r1
 20c:	0000899c 	muleq	r0, ip, r9
 210:	0000018c 	andeq	r0, r0, ip, lsl #3
 214:	840c0e42 	strhi	r0, [ip], #-3650	; 0xfffff1be
 218:	8e028503 	cfsh32hi	mvfx8, mvfx2, #3
 21c:	180e4201 	stmdane	lr, {r0, r9, lr}
 220:	0e0a5c02 	cdpeq	12, 0, cr5, cr10, cr2, {0}
 224:	000b420c 	andeq	r4, fp, ip, lsl #4
 228:	0000001c 	andeq	r0, r0, ip, lsl r0
 22c:	0000019c 	muleq	r0, ip, r1
 230:	00008b28 	andeq	r8, r0, r8, lsr #22
 234:	00000138 	andeq	r0, r0, r8, lsr r1
 238:	8e040e42 	cdphi	14, 0, cr0, cr4, cr2, {2}
 23c:	100e4201 	andne	r4, lr, r1, lsl #4
 240:	040e0a66 	streq	r0, [lr], #-2662	; 0xfffff59a
 244:	00000b42 	andeq	r0, r0, r2, asr #22
 248:	00000014 	andeq	r0, r0, r4, lsl r0
 24c:	0000019c 	muleq	r0, ip, r1
 250:	00008c60 	andeq	r8, r0, r0, ror #24
 254:	00000020 	andeq	r0, r0, r0, lsr #32
 258:	84080e42 	strhi	r0, [r8], #-3650	; 0xfffff1be
 25c:	00018e02 	andeq	r8, r1, r2, lsl #28
 260:	0000001c 	andeq	r0, r0, ip, lsl r0
 264:	0000019c 	muleq	r0, ip, r1
 268:	00008c80 	andeq	r8, r0, r0, lsl #25
 26c:	000000d8 	ldrdeq	r0, [r0], -r8
 270:	8e040e42 	cdphi	14, 0, cr0, cr4, cr2, {2}
 274:	100e4201 	andne	r4, lr, r1, lsl #4
 278:	040e0a64 	streq	r0, [lr], #-2660	; 0xfffff59c
 27c:	00000b42 	andeq	r0, r0, r2, asr #22
 280:	00000014 	andeq	r0, r0, r4, lsl r0
 284:	0000019c 	muleq	r0, ip, r1
 288:	00008d58 	andeq	r8, r0, r8, asr sp
 28c:	00000028 	andeq	r0, r0, r8, lsr #32
 290:	84080e42 	strhi	r0, [r8], #-3650	; 0xfffff1be
 294:	00018e02 	andeq	r8, r1, r2, lsl #28
 298:	00000014 	andeq	r0, r0, r4, lsl r0
 29c:	0000019c 	muleq	r0, ip, r1
 2a0:	00008d80 	andeq	r8, r0, r0, lsl #27
 2a4:	00000010 	andeq	r0, r0, r0, lsl r0
 2a8:	84080e42 	strhi	r0, [r8], #-3650	; 0xfffff1be
 2ac:	00018e02 	andeq	r8, r1, r2, lsl #28
 2b0:	00000014 	andeq	r0, r0, r4, lsl r0
 2b4:	0000019c 	muleq	r0, ip, r1
 2b8:	00008d90 	muleq	r0, r0, sp
 2bc:	00000020 	andeq	r0, r0, r0, lsr #32
 2c0:	84080e42 	strhi	r0, [r8], #-3650	; 0xfffff1be
 2c4:	00018e02 	andeq	r8, r1, r2, lsl #28
 2c8:	00000014 	andeq	r0, r0, r4, lsl r0
 2cc:	0000019c 	muleq	r0, ip, r1
 2d0:	00008db0 			; <UNDEFINED> instruction: 0x00008db0
 2d4:	0000000c 	andeq	r0, r0, ip
 2d8:	84080e42 	strhi	r0, [r8], #-3650	; 0xfffff1be
 2dc:	00018e02 	andeq	r8, r1, r2, lsl #28
 2e0:	00000014 	andeq	r0, r0, r4, lsl r0
 2e4:	0000019c 	muleq	r0, ip, r1
 2e8:	00008dbc 			; <UNDEFINED> instruction: 0x00008dbc
 2ec:	00000014 	andeq	r0, r0, r4, lsl r0
 2f0:	84080e42 	strhi	r0, [r8], #-3650	; 0xfffff1be
 2f4:	00018e02 	andeq	r8, r1, r2, lsl #28
 2f8:	00000014 	andeq	r0, r0, r4, lsl r0
 2fc:	0000019c 	muleq	r0, ip, r1
 300:	00008dd0 	ldrdeq	r8, [r0], -r0
 304:	0000000c 	andeq	r0, r0, ip
 308:	84080e42 	strhi	r0, [r8], #-3650	; 0xfffff1be
 30c:	00018e02 	andeq	r8, r1, r2, lsl #28
 310:	00000014 	andeq	r0, r0, r4, lsl r0
 314:	0000019c 	muleq	r0, ip, r1
 318:	00008ddc 	ldrdeq	r8, [r0], -ip
 31c:	00000010 	andeq	r0, r0, r0, lsl r0
 320:	84080e42 	strhi	r0, [r8], #-3650	; 0xfffff1be
 324:	00018e02 	andeq	r8, r1, r2, lsl #28
 328:	0000000c 	andeq	r0, r0, ip
 32c:	ffffffff 			; <UNDEFINED> instruction: 0xffffffff
 330:	7c020001 	stcvc	0, cr0, [r2], {1}
 334:	000d0c0e 	andeq	r0, sp, lr, lsl #24
 338:	00000034 	andeq	r0, r0, r4, lsr r0
 33c:	00000328 	andeq	r0, r0, r8, lsr #6
 340:	00008dec 	andeq	r8, r0, ip, ror #27
 344:	00000058 	andeq	r0, r0, r8, asr r0
 348:	80100e42 	andshi	r0, r0, r2, asr #28
 34c:	82038104 	andhi	r8, r3, #4, 2
 350:	42018302 	andmi	r8, r1, #134217728	; 0x8000000
 354:	07841c0e 	streq	r1, [r4, lr, lsl #24]
 358:	058e0685 	streq	r0, [lr, #1669]	; 0x685
 35c:	5c280e42 	stcpl	14, cr0, [r8], #-264	; 0xfffffef8
 360:	ce421c0e 	cdpgt	12, 4, cr1, cr2, cr14, {0}
 364:	100ec4c5 	andne	ip, lr, r5, asr #9
 368:	c1c2c342 	bicgt	ip, r2, r2, asr #6
 36c:	00000ec0 	andeq	r0, r0, r0, asr #29
 370:	0000000c 	andeq	r0, r0, ip
 374:	ffffffff 			; <UNDEFINED> instruction: 0xffffffff
 378:	7c020001 	stcvc	0, cr0, [r2], {1}
 37c:	000d0c0e 	andeq	r0, sp, lr, lsl #24
 380:	0000000c 	andeq	r0, r0, ip
 384:	00000370 	andeq	r0, r0, r0, ror r3
 388:	00008e44 	andeq	r8, r0, r4, asr #28
 38c:	00000020 	andeq	r0, r0, r0, lsr #32
 390:	0000000c 	andeq	r0, r0, ip
 394:	ffffffff 			; <UNDEFINED> instruction: 0xffffffff
 398:	7c020001 	stcvc	0, cr0, [r2], {1}
 39c:	000d0c0e 	andeq	r0, sp, lr, lsl #24
 3a0:	0000000c 	andeq	r0, r0, ip
 3a4:	00000390 	muleq	r0, r0, r3
 3a8:	00008e64 	andeq	r8, r0, r4, ror #28
 3ac:	00000020 	andeq	r0, r0, r0, lsr #32
 3b0:	0000000c 	andeq	r0, r0, ip
 3b4:	ffffffff 			; <UNDEFINED> instruction: 0xffffffff
 3b8:	7c020001 	stcvc	0, cr0, [r2], {1}
 3bc:	000d0c0e 	andeq	r0, sp, lr, lsl #24
 3c0:	0000000c 	andeq	r0, r0, ip
 3c4:	000003b0 			; <UNDEFINED> instruction: 0x000003b0
 3c8:	00008e84 	andeq	r8, r0, r4, lsl #29
 3cc:	00000060 	andeq	r0, r0, r0, rrx
 3d0:	0000000c 	andeq	r0, r0, ip
 3d4:	ffffffff 			; <UNDEFINED> instruction: 0xffffffff
 3d8:	7c020001 	stcvc	0, cr0, [r2], {1}
 3dc:	000d0c0e 	andeq	r0, sp, lr, lsl #24
 3e0:	00000014 	andeq	r0, r0, r4, lsl r0
 3e4:	000003d0 	ldrdeq	r0, [r0], -r0	; <UNPREDICTABLE>
 3e8:	00008ee4 	andeq	r8, r0, r4, ror #29
 3ec:	00000034 	andeq	r0, r0, r4, lsr r0
 3f0:	84080e42 	strhi	r0, [r8], #-3650	; 0xfffff1be
 3f4:	00018e02 	andeq	r8, r1, r2, lsl #28
 3f8:	0000000c 	andeq	r0, r0, ip
 3fc:	ffffffff 			; <UNDEFINED> instruction: 0xffffffff
 400:	7c020001 	stcvc	0, cr0, [r2], {1}
 404:	000d0c0e 	andeq	r0, sp, lr, lsl #24
 408:	00000014 	andeq	r0, r0, r4, lsl r0
 40c:	000003f8 	strdeq	r0, [r0], -r8
 410:	00008f18 	andeq	r8, r0, r8, lsl pc
 414:	00000014 	andeq	r0, r0, r4, lsl r0
 418:	84080e42 	strhi	r0, [r8], #-3650	; 0xfffff1be
 41c:	00018e02 	andeq	r8, r1, r2, lsl #28
 420:	0000000c 	andeq	r0, r0, ip
 424:	000003f8 	strdeq	r0, [r0], -r8
 428:	00008f2c 	andeq	r8, r0, ip, lsr #30
 42c:	00000018 	andeq	r0, r0, r8, lsl r0
 430:	0000000c 	andeq	r0, r0, ip
 434:	000003f8 	strdeq	r0, [r0], -r8
 438:	00008f44 	andeq	r8, r0, r4, asr #30
 43c:	00000010 	andeq	r0, r0, r0, lsl r0
 440:	0000000c 	andeq	r0, r0, ip
 444:	ffffffff 			; <UNDEFINED> instruction: 0xffffffff
 448:	7c020001 	stcvc	0, cr0, [r2], {1}
 44c:	000d0c0e 	andeq	r0, sp, lr, lsl #24
 450:	0000000c 	andeq	r0, r0, ip
 454:	00000440 	andeq	r0, r0, r0, asr #8
 458:	00008f54 	andeq	r8, r0, r4, asr pc
 45c:	0000001c 	andeq	r0, r0, ip, lsl r0
 460:	0000000c 	andeq	r0, r0, ip
 464:	ffffffff 			; <UNDEFINED> instruction: 0xffffffff
 468:	7c020001 	stcvc	0, cr0, [r2], {1}
 46c:	000d0c0e 	andeq	r0, sp, lr, lsl #24
 470:	00000014 	andeq	r0, r0, r4, lsl r0
 474:	00000460 	andeq	r0, r0, r0, ror #8
 478:	00008f70 	andeq	r8, r0, r0, ror pc
 47c:	0000003c 	andeq	r0, r0, ip, lsr r0
 480:	8e040e42 	cdphi	14, 0, cr0, cr4, cr2, {2}
 484:	100e4201 	andne	r4, lr, r1, lsl #4
 488:	0000000c 	andeq	r0, r0, ip
 48c:	ffffffff 			; <UNDEFINED> instruction: 0xffffffff
 490:	7c020001 	stcvc	0, cr0, [r2], {1}
 494:	000d0c0e 	andeq	r0, sp, lr, lsl #24
 498:	00000014 	andeq	r0, r0, r4, lsl r0
 49c:	00000488 	andeq	r0, r0, r8, lsl #9
 4a0:	00008fac 	andeq	r8, r0, ip, lsr #31
 4a4:	00000030 	andeq	r0, r0, r0, lsr r0
 4a8:	8e040e42 	cdphi	14, 0, cr0, cr4, cr2, {2}
 4ac:	100e4201 	andne	r4, lr, r1, lsl #4
 4b0:	00000014 	andeq	r0, r0, r4, lsl r0
 4b4:	00000488 	andeq	r0, r0, r8, lsl #9
 4b8:	00008fdc 	ldrdeq	r8, [r0], -ip
 4bc:	00000030 	andeq	r0, r0, r0, lsr r0
 4c0:	8e040e42 	cdphi	14, 0, cr0, cr4, cr2, {2}
 4c4:	100e4201 	andne	r4, lr, r1, lsl #4
 4c8:	0000000c 	andeq	r0, r0, ip
 4cc:	ffffffff 			; <UNDEFINED> instruction: 0xffffffff
 4d0:	7c020001 	stcvc	0, cr0, [r2], {1}
 4d4:	000d0c0e 	andeq	r0, sp, lr, lsl #24
 4d8:	00000014 	andeq	r0, r0, r4, lsl r0
 4dc:	000004c8 	andeq	r0, r0, r8, asr #9
 4e0:	0000900c 	andeq	r9, r0, ip
 4e4:	0000003c 	andeq	r0, r0, ip, lsr r0
 4e8:	8e040e42 	cdphi	14, 0, cr0, cr4, cr2, {2}
 4ec:	100e4201 	andne	r4, lr, r1, lsl #4
 4f0:	0000000c 	andeq	r0, r0, ip
 4f4:	ffffffff 			; <UNDEFINED> instruction: 0xffffffff
 4f8:	7c020001 	stcvc	0, cr0, [r2], {1}
 4fc:	000d0c0e 	andeq	r0, sp, lr, lsl #24
 500:	00000014 	andeq	r0, r0, r4, lsl r0
 504:	000004f0 	strdeq	r0, [r0], -r0	; <UNPREDICTABLE>
 508:	00009048 	andeq	r9, r0, r8, asr #32
 50c:	0000003c 	andeq	r0, r0, ip, lsr r0
 510:	8e040e42 	cdphi	14, 0, cr0, cr4, cr2, {2}
 514:	100e4201 	andne	r4, lr, r1, lsl #4
 518:	0000000c 	andeq	r0, r0, ip
 51c:	ffffffff 			; <UNDEFINED> instruction: 0xffffffff
 520:	7c020001 	stcvc	0, cr0, [r2], {1}
 524:	000d0c0e 	andeq	r0, sp, lr, lsl #24
 528:	00000014 	andeq	r0, r0, r4, lsl r0
 52c:	00000518 	andeq	r0, r0, r8, lsl r5
 530:	00009084 	andeq	r9, r0, r4, lsl #1
 534:	0000003c 	andeq	r0, r0, ip, lsr r0
 538:	8e040e42 	cdphi	14, 0, cr0, cr4, cr2, {2}
 53c:	100e4201 	andne	r4, lr, r1, lsl #4
 540:	0000000c 	andeq	r0, r0, ip
 544:	ffffffff 			; <UNDEFINED> instruction: 0xffffffff
 548:	7c020001 	stcvc	0, cr0, [r2], {1}
 54c:	000d0c0e 	andeq	r0, sp, lr, lsl #24
 550:	00000014 	andeq	r0, r0, r4, lsl r0
 554:	00000540 	andeq	r0, r0, r0, asr #10
 558:	000090c0 	andeq	r9, r0, r0, asr #1
 55c:	00000040 	andeq	r0, r0, r0, asr #32
 560:	84080e42 	strhi	r0, [r8], #-3650	; 0xfffff1be
 564:	00018e02 	andeq	r8, r1, r2, lsl #28
 568:	0000000c 	andeq	r0, r0, ip
 56c:	ffffffff 			; <UNDEFINED> instruction: 0xffffffff
 570:	7c020001 	stcvc	0, cr0, [r2], {1}
 574:	000d0c0e 	andeq	r0, sp, lr, lsl #24
 578:	0000000c 	andeq	r0, r0, ip
 57c:	00000568 	andeq	r0, r0, r8, ror #10
 580:	00009100 	andeq	r9, r0, r0, lsl #2
 584:	00000018 	andeq	r0, r0, r8, lsl r0
 588:	0000000c 	andeq	r0, r0, ip
 58c:	00000568 	andeq	r0, r0, r8, ror #10
 590:	00009118 	andeq	r9, r0, r8, lsl r1
 594:	00000014 	andeq	r0, r0, r4, lsl r0
 598:	00000014 	andeq	r0, r0, r4, lsl r0
 59c:	00000568 	andeq	r0, r0, r8, ror #10
 5a0:	0000912c 	andeq	r9, r0, ip, lsr #2
 5a4:	00000050 	andeq	r0, r0, r0, asr r0
 5a8:	84080e42 	strhi	r0, [r8], #-3650	; 0xfffff1be
 5ac:	00018e02 	andeq	r8, r1, r2, lsl #28
 5b0:	0000000c 	andeq	r0, r0, ip
 5b4:	ffffffff 			; <UNDEFINED> instruction: 0xffffffff
 5b8:	7c020001 	stcvc	0, cr0, [r2], {1}
 5bc:	000d0c0e 	andeq	r0, sp, lr, lsl #24
 5c0:	00000014 	andeq	r0, r0, r4, lsl r0
 5c4:	000005b0 			; <UNDEFINED> instruction: 0x000005b0
 5c8:	0000917c 	andeq	r9, r0, ip, ror r1
 5cc:	0000002c 	andeq	r0, r0, ip, lsr #32
 5d0:	84080e42 	strhi	r0, [r8], #-3650	; 0xfffff1be
 5d4:	00018e02 	andeq	r8, r1, r2, lsl #28
 5d8:	0000000c 	andeq	r0, r0, ip
 5dc:	ffffffff 			; <UNDEFINED> instruction: 0xffffffff
 5e0:	7c020001 	stcvc	0, cr0, [r2], {1}
 5e4:	000d0c0e 	andeq	r0, sp, lr, lsl #24
 5e8:	00000014 	andeq	r0, r0, r4, lsl r0
 5ec:	000005d8 	ldrdeq	r0, [r0], -r8
 5f0:	000091a8 	andeq	r9, r0, r8, lsr #3
 5f4:	00000014 	andeq	r0, r0, r4, lsl r0
 5f8:	84080e42 	strhi	r0, [r8], #-3650	; 0xfffff1be
 5fc:	00018e02 	andeq	r8, r1, r2, lsl #28
 600:	00000014 	andeq	r0, r0, r4, lsl r0
 604:	000005d8 	ldrdeq	r0, [r0], -r8
 608:	000091bc 			; <UNDEFINED> instruction: 0x000091bc
 60c:	0000001c 	andeq	r0, r0, ip, lsl r0
 610:	84080e42 	strhi	r0, [r8], #-3650	; 0xfffff1be
 614:	00018e02 	andeq	r8, r1, r2, lsl #28
 618:	00000018 	andeq	r0, r0, r8, lsl r0
 61c:	000005d8 	ldrdeq	r0, [r0], -r8
 620:	000091d8 	ldrdeq	r9, [r0], -r8
 624:	00000024 	andeq	r0, r0, r4, lsr #32
 628:	84100e42 	ldrhi	r0, [r0], #-3650	; 0xfffff1be
 62c:	86038504 	strhi	r8, [r3], -r4, lsl #10
 630:	00018e02 	andeq	r8, r1, r2, lsl #28
 634:	00000014 	andeq	r0, r0, r4, lsl r0
 638:	000005d8 	ldrdeq	r0, [r0], -r8
 63c:	000091fc 	strdeq	r9, [r0], -ip
 640:	00000018 	andeq	r0, r0, r8, lsl r0
 644:	84080e42 	strhi	r0, [r8], #-3650	; 0xfffff1be
 648:	00018e02 	andeq	r8, r1, r2, lsl #28
 64c:	00000014 	andeq	r0, r0, r4, lsl r0
 650:	000005d8 	ldrdeq	r0, [r0], -r8
 654:	00009214 	andeq	r9, r0, r4, lsl r2
 658:	00000018 	andeq	r0, r0, r8, lsl r0
 65c:	84080e42 	strhi	r0, [r8], #-3650	; 0xfffff1be
 660:	00018e02 	andeq	r8, r1, r2, lsl #28
 664:	0000000c 	andeq	r0, r0, ip
 668:	ffffffff 			; <UNDEFINED> instruction: 0xffffffff
 66c:	7c020001 	stcvc	0, cr0, [r2], {1}
 670:	000d0c0e 	andeq	r0, sp, lr, lsl #24
 674:	00000018 	andeq	r0, r0, r8, lsl r0
 678:	00000664 	andeq	r0, r0, r4, ror #12
 67c:	0000922c 	andeq	r9, r0, ip, lsr #4
 680:	00000020 	andeq	r0, r0, r0, lsr #32
 684:	84100e42 	ldrhi	r0, [r0], #-3650	; 0xfffff1be
 688:	86038504 	strhi	r8, [r3], -r4, lsl #10
 68c:	00018e02 	andeq	r8, r1, r2, lsl #28
 690:	00000018 	andeq	r0, r0, r8, lsl r0
 694:	00000664 	andeq	r0, r0, r4, ror #12
 698:	0000924c 	andeq	r9, r0, ip, asr #4
 69c:	00000020 	andeq	r0, r0, r0, lsr #32
 6a0:	84100e42 	ldrhi	r0, [r0], #-3650	; 0xfffff1be
 6a4:	86038504 	strhi	r8, [r3], -r4, lsl #10
 6a8:	00018e02 	andeq	r8, r1, r2, lsl #28
 6ac:	00000014 	andeq	r0, r0, r4, lsl r0
 6b0:	00000664 	andeq	r0, r0, r4, ror #12
 6b4:	0000926c 	andeq	r9, r0, ip, ror #4
 6b8:	000000b0 	strheq	r0, [r0], -r0	; <UNPREDICTABLE>
 6bc:	84080e42 	strhi	r0, [r8], #-3650	; 0xfffff1be
 6c0:	00018e02 	andeq	r8, r1, r2, lsl #28
 6c4:	00000014 	andeq	r0, r0, r4, lsl r0
 6c8:	00000664 	andeq	r0, r0, r4, ror #12
 6cc:	0000931c 	andeq	r9, r0, ip, lsl r3
 6d0:	00000018 	andeq	r0, r0, r8, lsl r0
 6d4:	84080e42 	strhi	r0, [r8], #-3650	; 0xfffff1be
 6d8:	00018e02 	andeq	r8, r1, r2, lsl #28
 6dc:	00000014 	andeq	r0, r0, r4, lsl r0
 6e0:	00000664 	andeq	r0, r0, r4, ror #12
 6e4:	00009334 	andeq	r9, r0, r4, lsr r3
 6e8:	00000020 	andeq	r0, r0, r0, lsr #32
 6ec:	84080e42 	strhi	r0, [r8], #-3650	; 0xfffff1be
 6f0:	00018e02 	andeq	r8, r1, r2, lsl #28
 6f4:	00000014 	andeq	r0, r0, r4, lsl r0
 6f8:	00000664 	andeq	r0, r0, r4, ror #12
 6fc:	00009354 	andeq	r9, r0, r4, asr r3
 700:	00000030 	andeq	r0, r0, r0, lsr r0
 704:	84080e42 	strhi	r0, [r8], #-3650	; 0xfffff1be
 708:	00018e02 	andeq	r8, r1, r2, lsl #28
 70c:	00000014 	andeq	r0, r0, r4, lsl r0
 710:	00000664 	andeq	r0, r0, r4, ror #12
 714:	00009384 	andeq	r9, r0, r4, lsl #7
 718:	00000030 	andeq	r0, r0, r0, lsr r0
 71c:	84080e42 	strhi	r0, [r8], #-3650	; 0xfffff1be
 720:	00018e02 	andeq	r8, r1, r2, lsl #28
 724:	00000014 	andeq	r0, r0, r4, lsl r0
 728:	00000664 	andeq	r0, r0, r4, ror #12
 72c:	000093b4 			; <UNDEFINED> instruction: 0x000093b4
 730:	00000010 	andeq	r0, r0, r0, lsl r0
 734:	84080e42 	strhi	r0, [r8], #-3650	; 0xfffff1be
 738:	00018e02 	andeq	r8, r1, r2, lsl #28
 73c:	00000014 	andeq	r0, r0, r4, lsl r0
 740:	00000664 	andeq	r0, r0, r4, ror #12
 744:	000093c4 	andeq	r9, r0, r4, asr #7
 748:	00000020 	andeq	r0, r0, r0, lsr #32
 74c:	84080e42 	strhi	r0, [r8], #-3650	; 0xfffff1be
 750:	00018e02 	andeq	r8, r1, r2, lsl #28
 754:	00000014 	andeq	r0, r0, r4, lsl r0
 758:	00000664 	andeq	r0, r0, r4, ror #12
 75c:	000093e4 	andeq	r9, r0, r4, ror #7
 760:	00000014 	andeq	r0, r0, r4, lsl r0
 764:	84080e42 	strhi	r0, [r8], #-3650	; 0xfffff1be
 768:	00018e02 	andeq	r8, r1, r2, lsl #28
 76c:	00000014 	andeq	r0, r0, r4, lsl r0
 770:	00000664 	andeq	r0, r0, r4, ror #12
 774:	000093f8 	strdeq	r9, [r0], -r8
 778:	00000024 	andeq	r0, r0, r4, lsr #32
 77c:	84080e42 	strhi	r0, [r8], #-3650	; 0xfffff1be
 780:	00018e02 	andeq	r8, r1, r2, lsl #28
 784:	0000000c 	andeq	r0, r0, ip
 788:	ffffffff 			; <UNDEFINED> instruction: 0xffffffff
 78c:	7c020001 	stcvc	0, cr0, [r2], {1}
 790:	000d0c0e 	andeq	r0, sp, lr, lsl #24
 794:	0000000c 	andeq	r0, r0, ip
 798:	00000784 	andeq	r0, r0, r4, lsl #15
 79c:	0000941c 	andeq	r9, r0, ip, lsl r4
 7a0:	00000014 	andeq	r0, r0, r4, lsl r0
 7a4:	0000000c 	andeq	r0, r0, ip
 7a8:	00000784 	andeq	r0, r0, r4, lsl #15
 7ac:	00009430 	andeq	r9, r0, r0, lsr r4
 7b0:	00000028 	andeq	r0, r0, r8, lsr #32
 7b4:	0000000c 	andeq	r0, r0, ip
 7b8:	00000784 	andeq	r0, r0, r4, lsl #15
 7bc:	00009458 	andeq	r9, r0, r8, asr r4
 7c0:	0000003c 	andeq	r0, r0, ip, lsr r0
 7c4:	00000024 	andeq	r0, r0, r4, lsr #32
 7c8:	00000784 	andeq	r0, r0, r4, lsl #15
 7cc:	00009494 	muleq	r0, r4, r4
 7d0:	000001b4 			; <UNDEFINED> instruction: 0x000001b4
 7d4:	84140e42 	ldrhi	r0, [r4], #-3650	; 0xfffff1be
 7d8:	86048505 	strhi	r8, [r4], -r5, lsl #10
 7dc:	8e028703 	cdphi	7, 0, cr8, cr2, cr3, {0}
 7e0:	600e4201 	andvs	r4, lr, r1, lsl #4
 7e4:	0e0a9a02 	vmlaeq.f32	s18, s20, s4
 7e8:	000b4214 	andeq	r4, fp, r4, lsl r2
 7ec:	00000014 	andeq	r0, r0, r4, lsl r0
 7f0:	00000784 	andeq	r0, r0, r4, lsl #15
 7f4:	00009648 	andeq	r9, r0, r8, asr #12
 7f8:	00000064 	andeq	r0, r0, r4, rrx
 7fc:	8e040e54 	mcrhi	14, 0, r0, cr4, cr4, {2}
 800:	100e4201 	andne	r4, lr, r1, lsl #4
 804:	0000002c 	andeq	r0, r0, ip, lsr #32
 808:	00000784 	andeq	r0, r0, r4, lsl #15
 80c:	000096ac 	andeq	r9, r0, ip, lsr #13
 810:	00000498 	muleq	r0, r8, r4
 814:	84240e42 	strthi	r0, [r4], #-3650	; 0xfffff1be
 818:	86088509 	strhi	r8, [r8], -r9, lsl #10
 81c:	88068707 	stmdahi	r6, {r0, r1, r2, r8, r9, sl, pc}
 820:	8a048905 	bhi	122c3c <__bss_end__+0x1180e4>
 824:	8e028b03 	vmlahi.f64	d8, d2, d3
 828:	b80e4201 	stmdalt	lr, {r0, r9, lr}
 82c:	022c0302 	eoreq	r0, ip, #134217728	; 0x8000000
 830:	0000240e 	andeq	r2, r0, lr, lsl #8
 834:	0000000c 	andeq	r0, r0, ip
 838:	ffffffff 			; <UNDEFINED> instruction: 0xffffffff
 83c:	7c020001 	stcvc	0, cr0, [r2], {1}
 840:	000d0c0e 	andeq	r0, sp, lr, lsl #24
 844:	0000000c 	andeq	r0, r0, ip
 848:	00000834 	andeq	r0, r0, r4, lsr r8
 84c:	00009b44 	andeq	r9, r0, r4, asr #22
 850:	00000030 	andeq	r0, r0, r0, lsr r0
 854:	0000000c 	andeq	r0, r0, ip
 858:	ffffffff 			; <UNDEFINED> instruction: 0xffffffff
 85c:	7c020001 	stcvc	0, cr0, [r2], {1}
 860:	000d0c0e 	andeq	r0, sp, lr, lsl #24
 864:	0000000c 	andeq	r0, r0, ip
 868:	00000854 	andeq	r0, r0, r4, asr r8
 86c:	00009b74 	andeq	r9, r0, r4, ror fp
 870:	00000034 	andeq	r0, r0, r4, lsr r0
 874:	0000000c 	andeq	r0, r0, ip
 878:	ffffffff 			; <UNDEFINED> instruction: 0xffffffff
 87c:	7c020001 	stcvc	0, cr0, [r2], {1}
 880:	000d0c0e 	andeq	r0, sp, lr, lsl #24
 884:	0000000c 	andeq	r0, r0, ip
 888:	00000874 	andeq	r0, r0, r4, ror r8
 88c:	00009ba8 	andeq	r9, r0, r8, lsr #23
 890:	0000002c 	andeq	r0, r0, ip, lsr #32
 894:	0000000c 	andeq	r0, r0, ip
 898:	ffffffff 			; <UNDEFINED> instruction: 0xffffffff
 89c:	7c020001 	stcvc	0, cr0, [r2], {1}
 8a0:	000d0c0e 	andeq	r0, sp, lr, lsl #24
 8a4:	00000018 	andeq	r0, r0, r8, lsl r0
 8a8:	00000894 	muleq	r0, r4, r8
 8ac:	00009bec 	andeq	r9, r0, ip, ror #23
 8b0:	00000064 	andeq	r0, r0, r4, rrx
 8b4:	84100e46 	ldrhi	r0, [r0], #-3654	; 0xfffff1ba
 8b8:	86038504 	strhi	r8, [r3], -r4, lsl #10
 8bc:	00018e02 	andeq	r8, r1, r2, lsl #28
 8c0:	00000014 	andeq	r0, r0, r4, lsl r0
 8c4:	00000894 	muleq	r0, r4, r8
 8c8:	00009c50 	andeq	r9, r0, r0, asr ip
 8cc:	00000010 	andeq	r0, r0, r0, lsl r0
 8d0:	84080e42 	strhi	r0, [r8], #-3650	; 0xfffff1be
 8d4:	00018e02 	andeq	r8, r1, r2, lsl #28
 8d8:	00000014 	andeq	r0, r0, r4, lsl r0
 8dc:	00000894 	muleq	r0, r4, r8
 8e0:	00009c60 	andeq	r9, r0, r0, ror #24
 8e4:	00000024 	andeq	r0, r0, r4, lsr #32
 8e8:	84080e46 	strhi	r0, [r8], #-3654	; 0xfffff1ba
 8ec:	00018e02 	andeq	r8, r1, r2, lsl #28
 8f0:	00000014 	andeq	r0, r0, r4, lsl r0
 8f4:	00000894 	muleq	r0, r4, r8
 8f8:	00009c84 	andeq	r9, r0, r4, lsl #25
 8fc:	00000024 	andeq	r0, r0, r4, lsr #32
 900:	84080e46 	strhi	r0, [r8], #-3654	; 0xfffff1ba
 904:	00018e02 	andeq	r8, r1, r2, lsl #28
 908:	00000014 	andeq	r0, r0, r4, lsl r0
 90c:	00000894 	muleq	r0, r4, r8
 910:	00009ca8 	andeq	r9, r0, r8, lsr #25
 914:	00000010 	andeq	r0, r0, r0, lsl r0
 918:	84080e42 	strhi	r0, [r8], #-3650	; 0xfffff1be
 91c:	00018e02 	andeq	r8, r1, r2, lsl #28
 920:	00000014 	andeq	r0, r0, r4, lsl r0
 924:	00000894 	muleq	r0, r4, r8
 928:	00009cb8 			; <UNDEFINED> instruction: 0x00009cb8
 92c:	0000001c 	andeq	r0, r0, ip, lsl r0
 930:	84080e42 	strhi	r0, [r8], #-3650	; 0xfffff1be
 934:	00018e02 	andeq	r8, r1, r2, lsl #28
 938:	00000018 	andeq	r0, r0, r8, lsl r0
 93c:	00000894 	muleq	r0, r4, r8
 940:	00009cd4 	ldrdeq	r9, [r0], -r4
 944:	00000034 	andeq	r0, r0, r4, lsr r0
 948:	84080e46 	strhi	r0, [r8], #-3654	; 0xfffff1ba
 94c:	4e018e02 	cdpmi	14, 0, cr8, cr1, cr2, {0}
 950:	cec4000e 	cdpgt	0, 12, cr0, cr4, cr14, {0}

Disassembly of section .debug_ranges:

00000000 <.debug_ranges>:
   0:	00000080 	andeq	r0, r0, r0, lsl #1
   4:	00000080 	andeq	r0, r0, r0, lsl #1
   8:	00000080 	andeq	r0, r0, r0, lsl #1
   c:	00000080 	andeq	r0, r0, r0, lsl #1
  10:	00000080 	andeq	r0, r0, r0, lsl #1
  14:	00000084 	andeq	r0, r0, r4, lsl #1
  18:	00000084 	andeq	r0, r0, r4, lsl #1
  1c:	000000ac 	andeq	r0, r0, ip, lsr #1
  20:	000000d4 	ldrdeq	r0, [r0], -r4
  24:	000000f0 	strdeq	r0, [r0], -r0	; <UNPREDICTABLE>
	...
  30:	00000084 	andeq	r0, r0, r4, lsl #1
  34:	00000084 	andeq	r0, r0, r4, lsl #1
  38:	00000084 	andeq	r0, r0, r4, lsl #1
  3c:	000000ac 	andeq	r0, r0, ip, lsr #1
  40:	000000d4 	ldrdeq	r0, [r0], -r4
  44:	000000f0 	strdeq	r0, [r0], -r0	; <UNPREDICTABLE>
	...
  50:	00000084 	andeq	r0, r0, r4, lsl #1
  54:	00000084 	andeq	r0, r0, r4, lsl #1
  58:	00000084 	andeq	r0, r0, r4, lsl #1
  5c:	00000088 	andeq	r0, r0, r8, lsl #1
	...
  68:	00000088 	andeq	r0, r0, r8, lsl #1
  6c:	000000ac 	andeq	r0, r0, ip, lsr #1
  70:	000000d4 	ldrdeq	r0, [r0], -r4
  74:	000000f0 	strdeq	r0, [r0], -r0	; <UNPREDICTABLE>
	...
  80:	00000020 	andeq	r0, r0, r0, lsr #32
  84:	0000002c 	andeq	r0, r0, ip, lsr #32
  88:	0000006c 	andeq	r0, r0, ip, rrx
  8c:	00000074 	andeq	r0, r0, r4, ror r0
	...
  98:	000001f0 	strdeq	r0, [r0], -r0	; <UNPREDICTABLE>
  9c:	000001f0 	strdeq	r0, [r0], -r0	; <UNPREDICTABLE>
  a0:	000001f0 	strdeq	r0, [r0], -r0	; <UNPREDICTABLE>
  a4:	000001f4 	strdeq	r0, [r0], -r4
	...
  b0:	00000204 	andeq	r0, r0, r4, lsl #4
  b4:	00000220 	andeq	r0, r0, r0, lsr #4
  b8:	00000298 	muleq	r0, r8, r2
  bc:	00000298 	muleq	r0, r8, r2
  c0:	00000298 	muleq	r0, r8, r2
  c4:	000002b8 			; <UNDEFINED> instruction: 0x000002b8
  c8:	000002b8 			; <UNDEFINED> instruction: 0x000002b8
  cc:	000002cc 	andeq	r0, r0, ip, asr #5
	...
  d8:	00000208 	andeq	r0, r0, r8, lsl #4
  dc:	00000218 	andeq	r0, r0, r8, lsl r2
  e0:	00000298 	muleq	r0, r8, r2
  e4:	00000298 	muleq	r0, r8, r2
  e8:	00000298 	muleq	r0, r8, r2
  ec:	000002b0 			; <UNDEFINED> instruction: 0x000002b0
	...
  f8:	00000298 	muleq	r0, r8, r2
  fc:	00000298 	muleq	r0, r8, r2
 100:	00000298 	muleq	r0, r8, r2
 104:	0000029c 	muleq	r0, ip, r2
	...
 110:	000002b4 			; <UNDEFINED> instruction: 0x000002b4
 114:	000002b8 			; <UNDEFINED> instruction: 0x000002b8
 118:	000002b8 			; <UNDEFINED> instruction: 0x000002b8
 11c:	000002bc 			; <UNDEFINED> instruction: 0x000002bc
	...
 128:	000004b8 			; <UNDEFINED> instruction: 0x000004b8
 12c:	000004d4 	ldrdeq	r0, [r0], -r4
 130:	00000500 	andeq	r0, r0, r0, lsl #10
 134:	00000500 	andeq	r0, r0, r0, lsl #10
 138:	00000500 	andeq	r0, r0, r0, lsl #10
 13c:	00000520 	andeq	r0, r0, r0, lsr #10
 140:	00000520 	andeq	r0, r0, r0, lsr #10
 144:	00000534 	andeq	r0, r0, r4, lsr r5
	...
 150:	000004bc 			; <UNDEFINED> instruction: 0x000004bc
 154:	000004cc 	andeq	r0, r0, ip, asr #9
 158:	00000500 	andeq	r0, r0, r0, lsl #10
 15c:	00000500 	andeq	r0, r0, r0, lsl #10
 160:	00000500 	andeq	r0, r0, r0, lsl #10
 164:	00000518 	andeq	r0, r0, r8, lsl r5
	...
 170:	00000500 	andeq	r0, r0, r0, lsl #10
 174:	00000500 	andeq	r0, r0, r0, lsl #10
 178:	00000500 	andeq	r0, r0, r0, lsl #10
 17c:	00000504 	andeq	r0, r0, r4, lsl #10
	...
 188:	0000051c 	andeq	r0, r0, ip, lsl r5
 18c:	00000520 	andeq	r0, r0, r0, lsr #10
 190:	00000520 	andeq	r0, r0, r0, lsr #10
 194:	00000524 	andeq	r0, r0, r4, lsr #10
	...
 1a0:	00009100 	andeq	r9, r0, r0, lsl #2
 1a4:	0000917c 	andeq	r9, r0, ip, ror r1
	...
 1b0:	00009ba8 	andeq	r9, r0, r8, lsr #23
 1b4:	00009bd4 	ldrdeq	r9, [r0], -r4
	...
